   1              	 .syntax unified
   2              	 .cpu cortex-m4
   3              	 .eabi_attribute 27,3
   4              	 .fpu fpv4-sp-d16
   5              	 .eabi_attribute 20,1
   6              	 .eabi_attribute 21,1
   7              	 .eabi_attribute 23,3
   8              	 .eabi_attribute 24,1
   9              	 .eabi_attribute 25,1
  10              	 .eabi_attribute 26,1
  11              	 .eabi_attribute 30,6
  12              	 .eabi_attribute 34,1
  13              	 .eabi_attribute 18,4
  14              	 .thumb
  15              	 .file "xmc_posif.c"
  16              	 .text
  17              	.Ltext0:
  18              	 .cfi_sections .debug_frame
  19              	 .section .text.XMC_POSIF_Stop,"ax",%progbits
  20              	 .align 2
  21              	 .thumb
  22              	 .thumb_func
  24              	XMC_POSIF_Stop:
  25              	.LFB176:
  26              	 .file 1 "D:/Workspace/Development/my/DAVE/Infineon_CANopen/Libraries/XMCLib/inc/xmc_posif.h"
   1:D:/Workspace/Development/my/DAVE/Infineon_CANopen/Libraries/XMCLib/inc\xmc_posif.h **** /**
   2:D:/Workspace/Development/my/DAVE/Infineon_CANopen/Libraries/XMCLib/inc\xmc_posif.h ****  * @file xmc_posif.h
   3:D:/Workspace/Development/my/DAVE/Infineon_CANopen/Libraries/XMCLib/inc\xmc_posif.h ****  * @date 2019-12-02
   4:D:/Workspace/Development/my/DAVE/Infineon_CANopen/Libraries/XMCLib/inc\xmc_posif.h ****  *
   5:D:/Workspace/Development/my/DAVE/Infineon_CANopen/Libraries/XMCLib/inc\xmc_posif.h ****  * @cond
   6:D:/Workspace/Development/my/DAVE/Infineon_CANopen/Libraries/XMCLib/inc\xmc_posif.h ****  *****************************************************************************
   7:D:/Workspace/Development/my/DAVE/Infineon_CANopen/Libraries/XMCLib/inc\xmc_posif.h ****  * XMClib v2.2.0 - XMC Peripheral Driver Library
   8:D:/Workspace/Development/my/DAVE/Infineon_CANopen/Libraries/XMCLib/inc\xmc_posif.h ****  *
   9:D:/Workspace/Development/my/DAVE/Infineon_CANopen/Libraries/XMCLib/inc\xmc_posif.h ****  * Copyright (c) 2015-2020, Infineon Technologies AG
  10:D:/Workspace/Development/my/DAVE/Infineon_CANopen/Libraries/XMCLib/inc\xmc_posif.h ****  * All rights reserved.
  11:D:/Workspace/Development/my/DAVE/Infineon_CANopen/Libraries/XMCLib/inc\xmc_posif.h ****  *
  12:D:/Workspace/Development/my/DAVE/Infineon_CANopen/Libraries/XMCLib/inc\xmc_posif.h ****  * Boost Software License - Version 1.0 - August 17th, 2003
  13:D:/Workspace/Development/my/DAVE/Infineon_CANopen/Libraries/XMCLib/inc\xmc_posif.h ****  *
  14:D:/Workspace/Development/my/DAVE/Infineon_CANopen/Libraries/XMCLib/inc\xmc_posif.h ****  * Permission is hereby granted, free of charge, to any person or organization
  15:D:/Workspace/Development/my/DAVE/Infineon_CANopen/Libraries/XMCLib/inc\xmc_posif.h ****  * obtaining a copy of the software and accompanying documentation covered by
  16:D:/Workspace/Development/my/DAVE/Infineon_CANopen/Libraries/XMCLib/inc\xmc_posif.h ****  * this license (the "Software") to use, reproduce, display, distribute,
  17:D:/Workspace/Development/my/DAVE/Infineon_CANopen/Libraries/XMCLib/inc\xmc_posif.h ****  * execute, and transmit the Software, and to prepare derivative works of the
  18:D:/Workspace/Development/my/DAVE/Infineon_CANopen/Libraries/XMCLib/inc\xmc_posif.h ****  * Software, and to permit third-parties to whom the Software is furnished to
  19:D:/Workspace/Development/my/DAVE/Infineon_CANopen/Libraries/XMCLib/inc\xmc_posif.h ****  * do so, all subject to the following:
  20:D:/Workspace/Development/my/DAVE/Infineon_CANopen/Libraries/XMCLib/inc\xmc_posif.h ****  *
  21:D:/Workspace/Development/my/DAVE/Infineon_CANopen/Libraries/XMCLib/inc\xmc_posif.h ****  * The copyright notices in the Software and this entire statement, including
  22:D:/Workspace/Development/my/DAVE/Infineon_CANopen/Libraries/XMCLib/inc\xmc_posif.h ****  * the above license grant, this restriction and the following disclaimer,
  23:D:/Workspace/Development/my/DAVE/Infineon_CANopen/Libraries/XMCLib/inc\xmc_posif.h ****  * must be included in all copies of the Software, in whole or in part, and
  24:D:/Workspace/Development/my/DAVE/Infineon_CANopen/Libraries/XMCLib/inc\xmc_posif.h ****  * all derivative works of the Software, unless such copies or derivative
  25:D:/Workspace/Development/my/DAVE/Infineon_CANopen/Libraries/XMCLib/inc\xmc_posif.h ****  * works are solely in the form of machine-executable object code generated by
  26:D:/Workspace/Development/my/DAVE/Infineon_CANopen/Libraries/XMCLib/inc\xmc_posif.h ****  * a source language processor.
  27:D:/Workspace/Development/my/DAVE/Infineon_CANopen/Libraries/XMCLib/inc\xmc_posif.h ****  *
  28:D:/Workspace/Development/my/DAVE/Infineon_CANopen/Libraries/XMCLib/inc\xmc_posif.h ****  * THE SOFTWARE IS PROVIDED "AS IS", WITHOUT WARRANTY OF ANY KIND, EXPRESS OR
  29:D:/Workspace/Development/my/DAVE/Infineon_CANopen/Libraries/XMCLib/inc\xmc_posif.h ****  * IMPLIED, INCLUDING BUT NOT LIMITED TO THE WARRANTIES OF MERCHANTABILITY,
  30:D:/Workspace/Development/my/DAVE/Infineon_CANopen/Libraries/XMCLib/inc\xmc_posif.h ****  * FITNESS FOR A PARTICULAR PURPOSE, TITLE AND NON-INFRINGEMENT. IN NO EVENT
  31:D:/Workspace/Development/my/DAVE/Infineon_CANopen/Libraries/XMCLib/inc\xmc_posif.h ****  * SHALL THE COPYRIGHT HOLDERS OR ANYONE DISTRIBUTING THE SOFTWARE BE LIABLE
  32:D:/Workspace/Development/my/DAVE/Infineon_CANopen/Libraries/XMCLib/inc\xmc_posif.h ****  * FOR ANY DAMAGES OR OTHER LIABILITY, WHETHER IN CONTRACT, TORT OR OTHERWISE,
  33:D:/Workspace/Development/my/DAVE/Infineon_CANopen/Libraries/XMCLib/inc\xmc_posif.h ****  * ARISING FROM, OUT OF OR IN CONNECTION WITH THE SOFTWARE OR THE USE OR OTHER
  34:D:/Workspace/Development/my/DAVE/Infineon_CANopen/Libraries/XMCLib/inc\xmc_posif.h ****  * DEALINGS IN THE SOFTWARE.
  35:D:/Workspace/Development/my/DAVE/Infineon_CANopen/Libraries/XMCLib/inc\xmc_posif.h ****  *
  36:D:/Workspace/Development/my/DAVE/Infineon_CANopen/Libraries/XMCLib/inc\xmc_posif.h ****  * To improve the quality of the software, users are encouraged to share
  37:D:/Workspace/Development/my/DAVE/Infineon_CANopen/Libraries/XMCLib/inc\xmc_posif.h ****  * modifications, enhancements or bug fixes with Infineon Technologies AG
  38:D:/Workspace/Development/my/DAVE/Infineon_CANopen/Libraries/XMCLib/inc\xmc_posif.h ****  * at XMCSupport@infineon.com.
  39:D:/Workspace/Development/my/DAVE/Infineon_CANopen/Libraries/XMCLib/inc\xmc_posif.h ****  *****************************************************************************
  40:D:/Workspace/Development/my/DAVE/Infineon_CANopen/Libraries/XMCLib/inc\xmc_posif.h ****  *
  41:D:/Workspace/Development/my/DAVE/Infineon_CANopen/Libraries/XMCLib/inc\xmc_posif.h ****  * Change History
  42:D:/Workspace/Development/my/DAVE/Infineon_CANopen/Libraries/XMCLib/inc\xmc_posif.h ****  * --------------
  43:D:/Workspace/Development/my/DAVE/Infineon_CANopen/Libraries/XMCLib/inc\xmc_posif.h ****  *
  44:D:/Workspace/Development/my/DAVE/Infineon_CANopen/Libraries/XMCLib/inc\xmc_posif.h ****  * 2015-02-18:
  45:D:/Workspace/Development/my/DAVE/Infineon_CANopen/Libraries/XMCLib/inc\xmc_posif.h ****  *     - Initial version
  46:D:/Workspace/Development/my/DAVE/Infineon_CANopen/Libraries/XMCLib/inc\xmc_posif.h ****  *
  47:D:/Workspace/Development/my/DAVE/Infineon_CANopen/Libraries/XMCLib/inc\xmc_posif.h ****  * 2015-02-20:
  48:D:/Workspace/Development/my/DAVE/Infineon_CANopen/Libraries/XMCLib/inc\xmc_posif.h ****  *     - Driver description added <BR>
  49:D:/Workspace/Development/my/DAVE/Infineon_CANopen/Libraries/XMCLib/inc\xmc_posif.h ****  *
  50:D:/Workspace/Development/my/DAVE/Infineon_CANopen/Libraries/XMCLib/inc\xmc_posif.h ****  * 2015-06-19:
  51:D:/Workspace/Development/my/DAVE/Infineon_CANopen/Libraries/XMCLib/inc\xmc_posif.h ****  *     - Removed version macros and declaration of GetDriverVersion API <BR>
  52:D:/Workspace/Development/my/DAVE/Infineon_CANopen/Libraries/XMCLib/inc\xmc_posif.h ****  *
  53:D:/Workspace/Development/my/DAVE/Infineon_CANopen/Libraries/XMCLib/inc\xmc_posif.h ****  * 2015-07-02:
  54:D:/Workspace/Development/my/DAVE/Infineon_CANopen/Libraries/XMCLib/inc\xmc_posif.h ****  *     - Updated XMC_POSIF_QD_GetDirection API
  55:D:/Workspace/Development/my/DAVE/Infineon_CANopen/Libraries/XMCLib/inc\xmc_posif.h ****  *
  56:D:/Workspace/Development/my/DAVE/Infineon_CANopen/Libraries/XMCLib/inc\xmc_posif.h ****  * 2016-03-09:
  57:D:/Workspace/Development/my/DAVE/Infineon_CANopen/Libraries/XMCLib/inc\xmc_posif.h ****  *     - Optimization of write only registers
  58:D:/Workspace/Development/my/DAVE/Infineon_CANopen/Libraries/XMCLib/inc\xmc_posif.h ****  *
  59:D:/Workspace/Development/my/DAVE/Infineon_CANopen/Libraries/XMCLib/inc\xmc_posif.h ****  * 2017-06-24
  60:D:/Workspace/Development/my/DAVE/Infineon_CANopen/Libraries/XMCLib/inc\xmc_posif.h ****  *     - Added posif map connectivity file<br>
  61:D:/Workspace/Development/my/DAVE/Infineon_CANopen/Libraries/XMCLib/inc\xmc_posif.h ****  *
  62:D:/Workspace/Development/my/DAVE/Infineon_CANopen/Libraries/XMCLib/inc\xmc_posif.h ****  * 2019-12-02:
  63:D:/Workspace/Development/my/DAVE/Infineon_CANopen/Libraries/XMCLib/inc\xmc_posif.h ****  *     - Fix including files following the convention: angle brackets are used for standard include
  64:D:/Workspace/Development/my/DAVE/Infineon_CANopen/Libraries/XMCLib/inc\xmc_posif.h ****  *
  65:D:/Workspace/Development/my/DAVE/Infineon_CANopen/Libraries/XMCLib/inc\xmc_posif.h ****  * @endcond
  66:D:/Workspace/Development/my/DAVE/Infineon_CANopen/Libraries/XMCLib/inc\xmc_posif.h ****  *
  67:D:/Workspace/Development/my/DAVE/Infineon_CANopen/Libraries/XMCLib/inc\xmc_posif.h ****  */
  68:D:/Workspace/Development/my/DAVE/Infineon_CANopen/Libraries/XMCLib/inc\xmc_posif.h **** 
  69:D:/Workspace/Development/my/DAVE/Infineon_CANopen/Libraries/XMCLib/inc\xmc_posif.h **** 
  70:D:/Workspace/Development/my/DAVE/Infineon_CANopen/Libraries/XMCLib/inc\xmc_posif.h **** #ifndef XMC_POSIF_H
  71:D:/Workspace/Development/my/DAVE/Infineon_CANopen/Libraries/XMCLib/inc\xmc_posif.h **** #define XMC_POSIF_H
  72:D:/Workspace/Development/my/DAVE/Infineon_CANopen/Libraries/XMCLib/inc\xmc_posif.h **** 
  73:D:/Workspace/Development/my/DAVE/Infineon_CANopen/Libraries/XMCLib/inc\xmc_posif.h **** /**************************************************************************************************
  74:D:/Workspace/Development/my/DAVE/Infineon_CANopen/Libraries/XMCLib/inc\xmc_posif.h ****  * HEADER FILES
  75:D:/Workspace/Development/my/DAVE/Infineon_CANopen/Libraries/XMCLib/inc\xmc_posif.h ****  **************************************************************************************************
  76:D:/Workspace/Development/my/DAVE/Infineon_CANopen/Libraries/XMCLib/inc\xmc_posif.h **** #include "xmc_common.h"
  77:D:/Workspace/Development/my/DAVE/Infineon_CANopen/Libraries/XMCLib/inc\xmc_posif.h **** 
  78:D:/Workspace/Development/my/DAVE/Infineon_CANopen/Libraries/XMCLib/inc\xmc_posif.h **** #if defined(POSIF0)
  79:D:/Workspace/Development/my/DAVE/Infineon_CANopen/Libraries/XMCLib/inc\xmc_posif.h **** #include "xmc_scu.h"
  80:D:/Workspace/Development/my/DAVE/Infineon_CANopen/Libraries/XMCLib/inc\xmc_posif.h **** #include "xmc_posif_map.h"
  81:D:/Workspace/Development/my/DAVE/Infineon_CANopen/Libraries/XMCLib/inc\xmc_posif.h **** 
  82:D:/Workspace/Development/my/DAVE/Infineon_CANopen/Libraries/XMCLib/inc\xmc_posif.h **** /**
  83:D:/Workspace/Development/my/DAVE/Infineon_CANopen/Libraries/XMCLib/inc\xmc_posif.h ****  * @addtogroup XMClib XMC Peripheral Library
  84:D:/Workspace/Development/my/DAVE/Infineon_CANopen/Libraries/XMCLib/inc\xmc_posif.h ****  * @{
  85:D:/Workspace/Development/my/DAVE/Infineon_CANopen/Libraries/XMCLib/inc\xmc_posif.h ****  */
  86:D:/Workspace/Development/my/DAVE/Infineon_CANopen/Libraries/XMCLib/inc\xmc_posif.h **** 
  87:D:/Workspace/Development/my/DAVE/Infineon_CANopen/Libraries/XMCLib/inc\xmc_posif.h **** /**
  88:D:/Workspace/Development/my/DAVE/Infineon_CANopen/Libraries/XMCLib/inc\xmc_posif.h ****  * @addtogroup POSIF
  89:D:/Workspace/Development/my/DAVE/Infineon_CANopen/Libraries/XMCLib/inc\xmc_posif.h ****  * @brief Position Interface Unit (POSIF) driver for the XMC microcontroller family <br>
  90:D:/Workspace/Development/my/DAVE/Infineon_CANopen/Libraries/XMCLib/inc\xmc_posif.h ****  *
  91:D:/Workspace/Development/my/DAVE/Infineon_CANopen/Libraries/XMCLib/inc\xmc_posif.h ****  * The POSIF unit is a flexible and powerful component for motor control systems that use
  92:D:/Workspace/Development/my/DAVE/Infineon_CANopen/Libraries/XMCLib/inc\xmc_posif.h ****  * rotary encoders or hall sensors as feedback loop. It provides interface for motor position and v
  93:D:/Workspace/Development/my/DAVE/Infineon_CANopen/Libraries/XMCLib/inc\xmc_posif.h ****  * POSIF unit works with CCU4 and CCU8 to enable position and velocity measurement and to control P
  94:D:/Workspace/Development/my/DAVE/Infineon_CANopen/Libraries/XMCLib/inc\xmc_posif.h ****  *
  95:D:/Workspace/Development/my/DAVE/Infineon_CANopen/Libraries/XMCLib/inc\xmc_posif.h ****  * Driver is divided in three POSIF functional blocks - Hall Sensor Control (POSIF_HSC), Quadrature
  96:D:/Workspace/Development/my/DAVE/Infineon_CANopen/Libraries/XMCLib/inc\xmc_posif.h ****  * MultiChannel Mode (POSIF_MCM). <br>
  97:D:/Workspace/Development/my/DAVE/Infineon_CANopen/Libraries/XMCLib/inc\xmc_posif.h ****  *
  98:D:/Workspace/Development/my/DAVE/Infineon_CANopen/Libraries/XMCLib/inc\xmc_posif.h ****  * POSIF driver features:
  99:D:/Workspace/Development/my/DAVE/Infineon_CANopen/Libraries/XMCLib/inc\xmc_posif.h ****  * -#  Configuration structure XMC_POSIF_CONFIG_t and initialization function XMC_POSIF_Init() to c
 100:D:/Workspace/Development/my/DAVE/Infineon_CANopen/Libraries/XMCLib/inc\xmc_posif.h ****  * -# Allows to change the operating mode using XMC_POSIF_SetMode()
 101:D:/Workspace/Development/my/DAVE/Infineon_CANopen/Libraries/XMCLib/inc\xmc_posif.h ****  * -# Allows the selection of one of the four inputs (A, B, C or D) using XMC_POSIF_SelectInputSour
 102:D:/Workspace/Development/my/DAVE/Infineon_CANopen/Libraries/XMCLib/inc\xmc_posif.h ****  * hall0, hall1 and hall2 signals. For quadrature decoder mode, inputs are phase A, phase B and ind
 103:D:/Workspace/Development/my/DAVE/Infineon_CANopen/Libraries/XMCLib/inc\xmc_posif.h ****  * -#  Hall Sensor Control (APIs prefixed with XMC_POSIF_HSC_) <br>
 104:D:/Workspace/Development/my/DAVE/Infineon_CANopen/Libraries/XMCLib/inc\xmc_posif.h ****  * 	-  Configuration structure XMC_POSIF_HSC_CONFIG_t and initialization function XMC_POSIF_HSC_Ini
 105:D:/Workspace/Development/my/DAVE/Infineon_CANopen/Libraries/XMCLib/inc\xmc_posif.h ****  * 	-  Update current and expected hall pattern in shadow register using XMC_POSIF_HSC_SetHallPatte
 106:D:/Workspace/Development/my/DAVE/Infineon_CANopen/Libraries/XMCLib/inc\xmc_posif.h ****  * 	- Allows immediate shadow transfer using XMC_POSIF_HSC_UpdateHallPattern()
 107:D:/Workspace/Development/my/DAVE/Infineon_CANopen/Libraries/XMCLib/inc\xmc_posif.h ****  * -#  Quadrature Decoder (APIs prefixed with XMC_POSIF_QD_) <br>
 108:D:/Workspace/Development/my/DAVE/Infineon_CANopen/Libraries/XMCLib/inc\xmc_posif.h ****  * 	-  Configuration structure XMC_POSIF_QD_CONFIG_t and initialization function XMC_POSIF_QD_Init(
 109:D:/Workspace/Development/my/DAVE/Infineon_CANopen/Libraries/XMCLib/inc\xmc_posif.h ****  * 	-  Get direction of rotation using XMC_POSIF_QD_GetDirection()
 110:D:/Workspace/Development/my/DAVE/Infineon_CANopen/Libraries/XMCLib/inc\xmc_posif.h ****  * -#  MultiChannel Mode (APIs prefixed with XMC_POSIF_MCM_) <br>
 111:D:/Workspace/Development/my/DAVE/Infineon_CANopen/Libraries/XMCLib/inc\xmc_posif.h ****  *	-  Configuration structure XMC_POSIF_MCM_CONFIG_t and initialization function XMC_POSIF_MCM_Init
 112:D:/Workspace/Development/my/DAVE/Infineon_CANopen/Libraries/XMCLib/inc\xmc_posif.h ****  *	-  Update multichannel pattern in shadow register using XMC_POSIF_MCM_SetMultiChannelPattern()
 113:D:/Workspace/Development/my/DAVE/Infineon_CANopen/Libraries/XMCLib/inc\xmc_posif.h ****  *	-  Allows immediate shadow transfer using XMC_POSIF_MCM_UpdateMultiChannelPattern()
 114:D:/Workspace/Development/my/DAVE/Infineon_CANopen/Libraries/XMCLib/inc\xmc_posif.h ****  * -# User need to call respective init functions to configure POSIF operating mode. e.g to configu
 115:D:/Workspace/Development/my/DAVE/Infineon_CANopen/Libraries/XMCLib/inc\xmc_posif.h ****  * call both XMC_POSIF_HSC_Init() and XMC_POSIF_MCM_Init().
 116:D:/Workspace/Development/my/DAVE/Infineon_CANopen/Libraries/XMCLib/inc\xmc_posif.h ****  * -# Allows to enable and disable interrupt sources and assign to service request node using XMC_P
 117:D:/Workspace/Development/my/DAVE/Infineon_CANopen/Libraries/XMCLib/inc\xmc_posif.h ****  *
 118:D:/Workspace/Development/my/DAVE/Infineon_CANopen/Libraries/XMCLib/inc\xmc_posif.h ****  * @note POSIF is not available on XMC11 and XMC12 devices
 119:D:/Workspace/Development/my/DAVE/Infineon_CANopen/Libraries/XMCLib/inc\xmc_posif.h ****  *
 120:D:/Workspace/Development/my/DAVE/Infineon_CANopen/Libraries/XMCLib/inc\xmc_posif.h ****  * @{
 121:D:/Workspace/Development/my/DAVE/Infineon_CANopen/Libraries/XMCLib/inc\xmc_posif.h ****  */
 122:D:/Workspace/Development/my/DAVE/Infineon_CANopen/Libraries/XMCLib/inc\xmc_posif.h **** 
 123:D:/Workspace/Development/my/DAVE/Infineon_CANopen/Libraries/XMCLib/inc\xmc_posif.h **** /**************************************************************************************************
 124:D:/Workspace/Development/my/DAVE/Infineon_CANopen/Libraries/XMCLib/inc\xmc_posif.h ****  * MACROS
 125:D:/Workspace/Development/my/DAVE/Infineon_CANopen/Libraries/XMCLib/inc\xmc_posif.h ****  **************************************************************************************************
 126:D:/Workspace/Development/my/DAVE/Infineon_CANopen/Libraries/XMCLib/inc\xmc_posif.h **** #if ((UC_SERIES == XMC45) || (UC_SERIES == XMC44) || (UC_SERIES == XMC47) || (UC_SERIES == XMC48) |
 127:D:/Workspace/Development/my/DAVE/Infineon_CANopen/Libraries/XMCLib/inc\xmc_posif.h **** #define XMC_POSIF_CHECK_MODULE_PTR(PTR)  ( ((PTR)== POSIF0) || ((PTR)== POSIF1) ) /*< Check for val
 128:D:/Workspace/Development/my/DAVE/Infineon_CANopen/Libraries/XMCLib/inc\xmc_posif.h **** #else
 129:D:/Workspace/Development/my/DAVE/Infineon_CANopen/Libraries/XMCLib/inc\xmc_posif.h **** #define XMC_POSIF_CHECK_MODULE_PTR(PTR)  ( ((PTR)== POSIF0))  /*< Check for valid module pointer */
 130:D:/Workspace/Development/my/DAVE/Infineon_CANopen/Libraries/XMCLib/inc\xmc_posif.h **** #endif
 131:D:/Workspace/Development/my/DAVE/Infineon_CANopen/Libraries/XMCLib/inc\xmc_posif.h **** 
 132:D:/Workspace/Development/my/DAVE/Infineon_CANopen/Libraries/XMCLib/inc\xmc_posif.h **** /**************************************************************************************************
 133:D:/Workspace/Development/my/DAVE/Infineon_CANopen/Libraries/XMCLib/inc\xmc_posif.h ****  * ENUMS
 134:D:/Workspace/Development/my/DAVE/Infineon_CANopen/Libraries/XMCLib/inc\xmc_posif.h ****  **************************************************************************************************
 135:D:/Workspace/Development/my/DAVE/Infineon_CANopen/Libraries/XMCLib/inc\xmc_posif.h **** /**
 136:D:/Workspace/Development/my/DAVE/Infineon_CANopen/Libraries/XMCLib/inc\xmc_posif.h ****  *  Defines the return status, to verify the POSIF related API calls. Use type @ref XMC_POSIF_STATU
 137:D:/Workspace/Development/my/DAVE/Infineon_CANopen/Libraries/XMCLib/inc\xmc_posif.h ****  */
 138:D:/Workspace/Development/my/DAVE/Infineon_CANopen/Libraries/XMCLib/inc\xmc_posif.h **** typedef enum XMC_POSIF_STATUS
 139:D:/Workspace/Development/my/DAVE/Infineon_CANopen/Libraries/XMCLib/inc\xmc_posif.h **** {
 140:D:/Workspace/Development/my/DAVE/Infineon_CANopen/Libraries/XMCLib/inc\xmc_posif.h ****   XMC_POSIF_STATUS_OK = 0U,     /**< API fulfills request */
 141:D:/Workspace/Development/my/DAVE/Infineon_CANopen/Libraries/XMCLib/inc\xmc_posif.h ****   XMC_POSIF_STATUS_ERROR        /**< API cannot fulfill request */
 142:D:/Workspace/Development/my/DAVE/Infineon_CANopen/Libraries/XMCLib/inc\xmc_posif.h **** } XMC_POSIF_STATUS_t;
 143:D:/Workspace/Development/my/DAVE/Infineon_CANopen/Libraries/XMCLib/inc\xmc_posif.h **** 
 144:D:/Workspace/Development/my/DAVE/Infineon_CANopen/Libraries/XMCLib/inc\xmc_posif.h **** /**
 145:D:/Workspace/Development/my/DAVE/Infineon_CANopen/Libraries/XMCLib/inc\xmc_posif.h ****  * Defines POSIF configurable modes.Use type @ref XMC_POSIF_MODE_t for this enum.
 146:D:/Workspace/Development/my/DAVE/Infineon_CANopen/Libraries/XMCLib/inc\xmc_posif.h ****  * The members defines the function selector(FSEL) bitfields of \a PCONF register.
 147:D:/Workspace/Development/my/DAVE/Infineon_CANopen/Libraries/XMCLib/inc\xmc_posif.h ****  */
 148:D:/Workspace/Development/my/DAVE/Infineon_CANopen/Libraries/XMCLib/inc\xmc_posif.h **** typedef enum XMC_POSIF_MODE
 149:D:/Workspace/Development/my/DAVE/Infineon_CANopen/Libraries/XMCLib/inc\xmc_posif.h **** {
 150:D:/Workspace/Development/my/DAVE/Infineon_CANopen/Libraries/XMCLib/inc\xmc_posif.h ****   XMC_POSIF_MODE_HALL_SENSOR = 0U, /**< Hall sensor mode */
 151:D:/Workspace/Development/my/DAVE/Infineon_CANopen/Libraries/XMCLib/inc\xmc_posif.h ****   XMC_POSIF_MODE_QD,               /**< Quadrature Decoder mode */
 152:D:/Workspace/Development/my/DAVE/Infineon_CANopen/Libraries/XMCLib/inc\xmc_posif.h ****   XMC_POSIF_MODE_MCM,              /**< Standalone Multichannel mode */
 153:D:/Workspace/Development/my/DAVE/Infineon_CANopen/Libraries/XMCLib/inc\xmc_posif.h ****   XMC_POSIF_MODE_MCM_QD           /**< Quadrature Decoder + Standalone Multichannel mode */
 154:D:/Workspace/Development/my/DAVE/Infineon_CANopen/Libraries/XMCLib/inc\xmc_posif.h **** } XMC_POSIF_MODE_t;
 155:D:/Workspace/Development/my/DAVE/Infineon_CANopen/Libraries/XMCLib/inc\xmc_posif.h **** 
 156:D:/Workspace/Development/my/DAVE/Infineon_CANopen/Libraries/XMCLib/inc\xmc_posif.h **** /**
 157:D:/Workspace/Development/my/DAVE/Infineon_CANopen/Libraries/XMCLib/inc\xmc_posif.h ****  * Defines POSIF configurable input ports.Use type @ref XMC_POSIF_INPUT_PORT_t for this enum.
 158:D:/Workspace/Development/my/DAVE/Infineon_CANopen/Libraries/XMCLib/inc\xmc_posif.h ****  * The member defines the respective input selector(INSELX) bitfields of \a PCONF register.
 159:D:/Workspace/Development/my/DAVE/Infineon_CANopen/Libraries/XMCLib/inc\xmc_posif.h ****  * It selects, which input is used for the phase or Hall input function (depending on the module is
 160:D:/Workspace/Development/my/DAVE/Infineon_CANopen/Libraries/XMCLib/inc\xmc_posif.h ****  * Quadrature Decoder or Hall Sensor Mode). Same enum can be used to configure pattern update signa
 161:D:/Workspace/Development/my/DAVE/Infineon_CANopen/Libraries/XMCLib/inc\xmc_posif.h ****  * \a PCONF register's \a MSETS bit field.
 162:D:/Workspace/Development/my/DAVE/Infineon_CANopen/Libraries/XMCLib/inc\xmc_posif.h ****  */
 163:D:/Workspace/Development/my/DAVE/Infineon_CANopen/Libraries/XMCLib/inc\xmc_posif.h **** typedef enum XMC_POSIF_INPUT_PORT
 164:D:/Workspace/Development/my/DAVE/Infineon_CANopen/Libraries/XMCLib/inc\xmc_posif.h **** {
 165:D:/Workspace/Development/my/DAVE/Infineon_CANopen/Libraries/XMCLib/inc\xmc_posif.h ****   XMC_POSIF_INPUT_PORT_A = 0U, /**< INPUT-A */
 166:D:/Workspace/Development/my/DAVE/Infineon_CANopen/Libraries/XMCLib/inc\xmc_posif.h ****   XMC_POSIF_INPUT_PORT_B,      /**< INPUT-B */
 167:D:/Workspace/Development/my/DAVE/Infineon_CANopen/Libraries/XMCLib/inc\xmc_posif.h ****   XMC_POSIF_INPUT_PORT_C,      /**< INPUT-C */
 168:D:/Workspace/Development/my/DAVE/Infineon_CANopen/Libraries/XMCLib/inc\xmc_posif.h ****   XMC_POSIF_INPUT_PORT_D,      /**< INPUT-D */
 169:D:/Workspace/Development/my/DAVE/Infineon_CANopen/Libraries/XMCLib/inc\xmc_posif.h ****   XMC_POSIF_INPUT_PORT_E,      /**< INPUT-E */
 170:D:/Workspace/Development/my/DAVE/Infineon_CANopen/Libraries/XMCLib/inc\xmc_posif.h ****   XMC_POSIF_INPUT_PORT_F,      /**< INPUT-F */
 171:D:/Workspace/Development/my/DAVE/Infineon_CANopen/Libraries/XMCLib/inc\xmc_posif.h ****   XMC_POSIF_INPUT_PORT_G,      /**< INPUT-G */
 172:D:/Workspace/Development/my/DAVE/Infineon_CANopen/Libraries/XMCLib/inc\xmc_posif.h ****   XMC_POSIF_INPUT_PORT_H       /**< INPUT-H */
 173:D:/Workspace/Development/my/DAVE/Infineon_CANopen/Libraries/XMCLib/inc\xmc_posif.h **** } XMC_POSIF_INPUT_PORT_t;
 174:D:/Workspace/Development/my/DAVE/Infineon_CANopen/Libraries/XMCLib/inc\xmc_posif.h **** 
 175:D:/Workspace/Development/my/DAVE/Infineon_CANopen/Libraries/XMCLib/inc\xmc_posif.h **** /**
 176:D:/Workspace/Development/my/DAVE/Infineon_CANopen/Libraries/XMCLib/inc\xmc_posif.h ****  *  Defines active level of an input signal.Use type @ref XMC_POSIF_INPUT_ACTIVE_LEVEL_t for this e
 177:D:/Workspace/Development/my/DAVE/Infineon_CANopen/Libraries/XMCLib/inc\xmc_posif.h ****  */
 178:D:/Workspace/Development/my/DAVE/Infineon_CANopen/Libraries/XMCLib/inc\xmc_posif.h **** typedef enum XMC_POSIF_INPUT_ACTIVE_LEVEL
 179:D:/Workspace/Development/my/DAVE/Infineon_CANopen/Libraries/XMCLib/inc\xmc_posif.h **** {
 180:D:/Workspace/Development/my/DAVE/Infineon_CANopen/Libraries/XMCLib/inc\xmc_posif.h ****   XMC_POSIF_INPUT_ACTIVE_LEVEL_HIGH  = 0U, /**< Input - Active High */
 181:D:/Workspace/Development/my/DAVE/Infineon_CANopen/Libraries/XMCLib/inc\xmc_posif.h ****   XMC_POSIF_INPUT_ACTIVE_LEVEL_LOW         /**< Input - Active Low */
 182:D:/Workspace/Development/my/DAVE/Infineon_CANopen/Libraries/XMCLib/inc\xmc_posif.h **** } XMC_POSIF_INPUT_ACTIVE_LEVEL_t;
 183:D:/Workspace/Development/my/DAVE/Infineon_CANopen/Libraries/XMCLib/inc\xmc_posif.h **** 
 184:D:/Workspace/Development/my/DAVE/Infineon_CANopen/Libraries/XMCLib/inc\xmc_posif.h **** /**
 185:D:/Workspace/Development/my/DAVE/Infineon_CANopen/Libraries/XMCLib/inc\xmc_posif.h ****  * Defines POSIF input debounce filter configuration.POSIF inputs are connected to low pass filter 
 186:D:/Workspace/Development/my/DAVE/Infineon_CANopen/Libraries/XMCLib/inc\xmc_posif.h ****  * this enum is used to configure low pass filters cut off frequency.
 187:D:/Workspace/Development/my/DAVE/Infineon_CANopen/Libraries/XMCLib/inc\xmc_posif.h ****  * Use type @ref XMC_POSIF_FILTER_t for this enum.
 188:D:/Workspace/Development/my/DAVE/Infineon_CANopen/Libraries/XMCLib/inc\xmc_posif.h ****  * The member defines the low pass filter configuration(LPC) bitfield of \a PCONF register.
 189:D:/Workspace/Development/my/DAVE/Infineon_CANopen/Libraries/XMCLib/inc\xmc_posif.h ****  */
 190:D:/Workspace/Development/my/DAVE/Infineon_CANopen/Libraries/XMCLib/inc\xmc_posif.h **** typedef enum XMC_POSIF_FILTER
 191:D:/Workspace/Development/my/DAVE/Infineon_CANopen/Libraries/XMCLib/inc\xmc_posif.h **** {
 192:D:/Workspace/Development/my/DAVE/Infineon_CANopen/Libraries/XMCLib/inc\xmc_posif.h ****   XMC_POSIF_FILTER_DISABLED     = 0U, /**< No filtering */
 193:D:/Workspace/Development/my/DAVE/Infineon_CANopen/Libraries/XMCLib/inc\xmc_posif.h ****   XMC_POSIF_FILTER_1_CLOCK_CYCLE,     /**< Filter of 1 Clock Cycle */
 194:D:/Workspace/Development/my/DAVE/Infineon_CANopen/Libraries/XMCLib/inc\xmc_posif.h ****   XMC_POSIF_FILTER_2_CLOCK_CYCLE,     /**< Filter of 2 Clock Cycles */
 195:D:/Workspace/Development/my/DAVE/Infineon_CANopen/Libraries/XMCLib/inc\xmc_posif.h ****   XMC_POSIF_FILTER_4_CLOCK_CYCLE,     /**< Filter of 4 Clock Cycles */
 196:D:/Workspace/Development/my/DAVE/Infineon_CANopen/Libraries/XMCLib/inc\xmc_posif.h ****   XMC_POSIF_FILTER_8_CLOCK_CYCLE,     /**< Filter of 8 Clock Cycles */
 197:D:/Workspace/Development/my/DAVE/Infineon_CANopen/Libraries/XMCLib/inc\xmc_posif.h ****   XMC_POSIF_FILTER_16_CLOCK_CYCLE,    /**< Filter of 16 Clock Cycles */
 198:D:/Workspace/Development/my/DAVE/Infineon_CANopen/Libraries/XMCLib/inc\xmc_posif.h ****   XMC_POSIF_FILTER_32_CLOCK_CYCLE,    /**< Filter of 32 Clock Cycles */
 199:D:/Workspace/Development/my/DAVE/Infineon_CANopen/Libraries/XMCLib/inc\xmc_posif.h ****   XMC_POSIF_FILTER_64_CLOCK_CYCLE     /**< Filter of 64 Clock Cycles */
 200:D:/Workspace/Development/my/DAVE/Infineon_CANopen/Libraries/XMCLib/inc\xmc_posif.h **** } XMC_POSIF_FILTER_t;
 201:D:/Workspace/Development/my/DAVE/Infineon_CANopen/Libraries/XMCLib/inc\xmc_posif.h **** 
 202:D:/Workspace/Development/my/DAVE/Infineon_CANopen/Libraries/XMCLib/inc\xmc_posif.h **** /**
 203:D:/Workspace/Development/my/DAVE/Infineon_CANopen/Libraries/XMCLib/inc\xmc_posif.h ****  * Defines POSIF events.Use type @ref XMC_POSIF_IRQ_EVENT_t for this enum.
 204:D:/Workspace/Development/my/DAVE/Infineon_CANopen/Libraries/XMCLib/inc\xmc_posif.h ****  * The member defines available event sources.It is used to configure which event to be used for
 205:D:/Workspace/Development/my/DAVE/Infineon_CANopen/Libraries/XMCLib/inc\xmc_posif.h ****  * interrupt generation using \a PFLGE register. [ PFLG,SPFLG,RPFLG]
 206:D:/Workspace/Development/my/DAVE/Infineon_CANopen/Libraries/XMCLib/inc\xmc_posif.h ****  */
 207:D:/Workspace/Development/my/DAVE/Infineon_CANopen/Libraries/XMCLib/inc\xmc_posif.h **** typedef enum XMC_POSIF_IRQ_EVENT
 208:D:/Workspace/Development/my/DAVE/Infineon_CANopen/Libraries/XMCLib/inc\xmc_posif.h **** {
 209:D:/Workspace/Development/my/DAVE/Infineon_CANopen/Libraries/XMCLib/inc\xmc_posif.h ****   XMC_POSIF_IRQ_EVENT_CHE                  = 0U, /**< Hall Mode : Correct Hall Event */
 210:D:/Workspace/Development/my/DAVE/Infineon_CANopen/Libraries/XMCLib/inc\xmc_posif.h ****   XMC_POSIF_IRQ_EVENT_WHE                  = 1U, /**< Hall Mode : Wrong Hall Event */
 211:D:/Workspace/Development/my/DAVE/Infineon_CANopen/Libraries/XMCLib/inc\xmc_posif.h ****   XMC_POSIF_IRQ_EVENT_HALL_INPUT           = 2U, /**< Hall Mode : Hall Input update */
 212:D:/Workspace/Development/my/DAVE/Infineon_CANopen/Libraries/XMCLib/inc\xmc_posif.h ****   XMC_POSIF_IRQ_EVENT_MCP_SHADOW_TRANSFER  = 4U, /**< Hall Mode + MCM Mode : MC Pattern shadow tran
 213:D:/Workspace/Development/my/DAVE/Infineon_CANopen/Libraries/XMCLib/inc\xmc_posif.h ****   XMC_POSIF_IRQ_EVENT_INDX                 = 8U, /**< Quadrature Mode : Index event detection */
 214:D:/Workspace/Development/my/DAVE/Infineon_CANopen/Libraries/XMCLib/inc\xmc_posif.h ****   XMC_POSIF_IRQ_EVENT_ERR                  = 9U, /**< Quadrature Mode : Quadrature Phase Error */
 215:D:/Workspace/Development/my/DAVE/Infineon_CANopen/Libraries/XMCLib/inc\xmc_posif.h ****   XMC_POSIF_IRQ_EVENT_CNT                  = 10U, /**< Quadrature Mode : Quadrature Clock event */
 216:D:/Workspace/Development/my/DAVE/Infineon_CANopen/Libraries/XMCLib/inc\xmc_posif.h ****   XMC_POSIF_IRQ_EVENT_DIR                  = 11U, /**< Quadrature Mode : Quadrature Direction chang
 217:D:/Workspace/Development/my/DAVE/Infineon_CANopen/Libraries/XMCLib/inc\xmc_posif.h ****   XMC_POSIF_IRQ_EVENT_PCLK                 = 12U  /**< Quadrature Mode : Quadrature period clock ge
 218:D:/Workspace/Development/my/DAVE/Infineon_CANopen/Libraries/XMCLib/inc\xmc_posif.h **** } XMC_POSIF_IRQ_EVENT_t;
 219:D:/Workspace/Development/my/DAVE/Infineon_CANopen/Libraries/XMCLib/inc\xmc_posif.h **** 
 220:D:/Workspace/Development/my/DAVE/Infineon_CANopen/Libraries/XMCLib/inc\xmc_posif.h **** /**
 221:D:/Workspace/Development/my/DAVE/Infineon_CANopen/Libraries/XMCLib/inc\xmc_posif.h ****  * Defines POSIF service request lines.Use type @ref XMC_POSIF_SR_ID_t for this enum.
 222:D:/Workspace/Development/my/DAVE/Infineon_CANopen/Libraries/XMCLib/inc\xmc_posif.h ****  * It used to connect POSIF event to required service request line.
 223:D:/Workspace/Development/my/DAVE/Infineon_CANopen/Libraries/XMCLib/inc\xmc_posif.h ****  * in \a PFLGE register for interrupt generation.
 224:D:/Workspace/Development/my/DAVE/Infineon_CANopen/Libraries/XMCLib/inc\xmc_posif.h ****  */
 225:D:/Workspace/Development/my/DAVE/Infineon_CANopen/Libraries/XMCLib/inc\xmc_posif.h **** typedef enum XMC_POSIF_SR_ID
 226:D:/Workspace/Development/my/DAVE/Infineon_CANopen/Libraries/XMCLib/inc\xmc_posif.h **** {
 227:D:/Workspace/Development/my/DAVE/Infineon_CANopen/Libraries/XMCLib/inc\xmc_posif.h ****   XMC_POSIF_SR_ID_0 = 0U, /**< SR-0 */
 228:D:/Workspace/Development/my/DAVE/Infineon_CANopen/Libraries/XMCLib/inc\xmc_posif.h ****   XMC_POSIF_SR_ID_1      /**< SR-1 */
 229:D:/Workspace/Development/my/DAVE/Infineon_CANopen/Libraries/XMCLib/inc\xmc_posif.h **** } XMC_POSIF_SR_ID_t;
 230:D:/Workspace/Development/my/DAVE/Infineon_CANopen/Libraries/XMCLib/inc\xmc_posif.h **** 
 231:D:/Workspace/Development/my/DAVE/Infineon_CANopen/Libraries/XMCLib/inc\xmc_posif.h **** /**
 232:D:/Workspace/Development/my/DAVE/Infineon_CANopen/Libraries/XMCLib/inc\xmc_posif.h ****  * Defines position decoder mode selection.Use type @ref XMC_POSIF_QD_MODE_t for this enum.
 233:D:/Workspace/Development/my/DAVE/Infineon_CANopen/Libraries/XMCLib/inc\xmc_posif.h ****  * The member defines configuration for the operation of the quadrature decoder mode.
 234:D:/Workspace/Development/my/DAVE/Infineon_CANopen/Libraries/XMCLib/inc\xmc_posif.h ****  * It used to configure \a QDC register.
 235:D:/Workspace/Development/my/DAVE/Infineon_CANopen/Libraries/XMCLib/inc\xmc_posif.h ****  */
 236:D:/Workspace/Development/my/DAVE/Infineon_CANopen/Libraries/XMCLib/inc\xmc_posif.h **** typedef enum XMC_POSIF_QD_MODE
 237:D:/Workspace/Development/my/DAVE/Infineon_CANopen/Libraries/XMCLib/inc\xmc_posif.h **** {
 238:D:/Workspace/Development/my/DAVE/Infineon_CANopen/Libraries/XMCLib/inc\xmc_posif.h ****   XMC_POSIF_QD_MODE_QUADRATURE       = 0U, /**< Standard Quadrature Mode */
 239:D:/Workspace/Development/my/DAVE/Infineon_CANopen/Libraries/XMCLib/inc\xmc_posif.h ****   XMC_POSIF_QD_MODE_DIRECTION_COUNT       /**< Direction Count Mode */
 240:D:/Workspace/Development/my/DAVE/Infineon_CANopen/Libraries/XMCLib/inc\xmc_posif.h **** } XMC_POSIF_QD_MODE_t;
 241:D:/Workspace/Development/my/DAVE/Infineon_CANopen/Libraries/XMCLib/inc\xmc_posif.h **** 
 242:D:/Workspace/Development/my/DAVE/Infineon_CANopen/Libraries/XMCLib/inc\xmc_posif.h **** /**
 243:D:/Workspace/Development/my/DAVE/Infineon_CANopen/Libraries/XMCLib/inc\xmc_posif.h ****  * Defines motor rotation direction.Use type @ref XMC_POSIF_QD_DIR_t for this enum.
 244:D:/Workspace/Development/my/DAVE/Infineon_CANopen/Libraries/XMCLib/inc\xmc_posif.h ****  * The member defines the direction in quadrature mode.
 245:D:/Workspace/Development/my/DAVE/Infineon_CANopen/Libraries/XMCLib/inc\xmc_posif.h ****  */
 246:D:/Workspace/Development/my/DAVE/Infineon_CANopen/Libraries/XMCLib/inc\xmc_posif.h **** typedef enum XMC_POSIF_QD_DIR
 247:D:/Workspace/Development/my/DAVE/Infineon_CANopen/Libraries/XMCLib/inc\xmc_posif.h **** {
 248:D:/Workspace/Development/my/DAVE/Infineon_CANopen/Libraries/XMCLib/inc\xmc_posif.h ****   XMC_POSIF_QD_DIR_COUNTERCLOCKWISE  = 0U, /**< Counter Clockwise */
 249:D:/Workspace/Development/my/DAVE/Infineon_CANopen/Libraries/XMCLib/inc\xmc_posif.h ****   XMC_POSIF_QD_DIR_CLOCKWISE              /**< Clockwise */
 250:D:/Workspace/Development/my/DAVE/Infineon_CANopen/Libraries/XMCLib/inc\xmc_posif.h **** } XMC_POSIF_QD_DIR_t;
 251:D:/Workspace/Development/my/DAVE/Infineon_CANopen/Libraries/XMCLib/inc\xmc_posif.h **** 
 252:D:/Workspace/Development/my/DAVE/Infineon_CANopen/Libraries/XMCLib/inc\xmc_posif.h **** /**
 253:D:/Workspace/Development/my/DAVE/Infineon_CANopen/Libraries/XMCLib/inc\xmc_posif.h ****  * Defines frequency of index signal generation.Use type @ref XMC_POSIF_QD_INDEX_GENERATION_t for t
 254:D:/Workspace/Development/my/DAVE/Infineon_CANopen/Libraries/XMCLib/inc\xmc_posif.h ****  * Member represents available configuration for index marker generation using \a ICM  bit field in
 255:D:/Workspace/Development/my/DAVE/Infineon_CANopen/Libraries/XMCLib/inc\xmc_posif.h ****  */
 256:D:/Workspace/Development/my/DAVE/Infineon_CANopen/Libraries/XMCLib/inc\xmc_posif.h **** typedef enum XMC_POSIF_QD_INDEX_GENERATION
 257:D:/Workspace/Development/my/DAVE/Infineon_CANopen/Libraries/XMCLib/inc\xmc_posif.h **** {
 258:D:/Workspace/Development/my/DAVE/Infineon_CANopen/Libraries/XMCLib/inc\xmc_posif.h ****   XMC_POSIF_QD_INDEX_GENERATION_NEVER  = 0U, /**< Never generate the index marker signal */
 259:D:/Workspace/Development/my/DAVE/Infineon_CANopen/Libraries/XMCLib/inc\xmc_posif.h ****   XMC_POSIF_QD_INDEX_GENERATION_ONCE,       /**< Generate only once after the first revolution */
 260:D:/Workspace/Development/my/DAVE/Infineon_CANopen/Libraries/XMCLib/inc\xmc_posif.h ****   XMC_POSIF_QD_INDEX_GENERATION_ALWAYS      /**< Index marker generated upon every revolution */
 261:D:/Workspace/Development/my/DAVE/Infineon_CANopen/Libraries/XMCLib/inc\xmc_posif.h **** } XMC_POSIF_QD_INDEX_GENERATION_t;
 262:D:/Workspace/Development/my/DAVE/Infineon_CANopen/Libraries/XMCLib/inc\xmc_posif.h **** 
 263:D:/Workspace/Development/my/DAVE/Infineon_CANopen/Libraries/XMCLib/inc\xmc_posif.h **** /**
 264:D:/Workspace/Development/my/DAVE/Infineon_CANopen/Libraries/XMCLib/inc\xmc_posif.h ****  *  Defines trigger edge in hall sensor mode.Use type @ref XMC_POSIF_HSC_TRIGGER_EDGE_t for this en
 265:D:/Workspace/Development/my/DAVE/Infineon_CANopen/Libraries/XMCLib/inc\xmc_posif.h ****  *  It can be used to configure \a PCONF register's \a SPES and \a MSES bit fields.
 266:D:/Workspace/Development/my/DAVE/Infineon_CANopen/Libraries/XMCLib/inc\xmc_posif.h ****  */
 267:D:/Workspace/Development/my/DAVE/Infineon_CANopen/Libraries/XMCLib/inc\xmc_posif.h **** typedef enum XMC_POSIF_HSC_TRIGGER_EDGE
 268:D:/Workspace/Development/my/DAVE/Infineon_CANopen/Libraries/XMCLib/inc\xmc_posif.h **** {
 269:D:/Workspace/Development/my/DAVE/Infineon_CANopen/Libraries/XMCLib/inc\xmc_posif.h ****   XMC_POSIF_HSC_TRIGGER_EDGE_RISING  = 0U, /**< Rising edge */
 270:D:/Workspace/Development/my/DAVE/Infineon_CANopen/Libraries/XMCLib/inc\xmc_posif.h ****   XMC_POSIF_HSC_TRIGGER_EDGE_FALLING      /**< Falling edge */
 271:D:/Workspace/Development/my/DAVE/Infineon_CANopen/Libraries/XMCLib/inc\xmc_posif.h **** } XMC_POSIF_HSC_TRIGGER_EDGE_t;
 272:D:/Workspace/Development/my/DAVE/Infineon_CANopen/Libraries/XMCLib/inc\xmc_posif.h **** 
 273:D:/Workspace/Development/my/DAVE/Infineon_CANopen/Libraries/XMCLib/inc\xmc_posif.h **** /**************************************************************************************************
 274:D:/Workspace/Development/my/DAVE/Infineon_CANopen/Libraries/XMCLib/inc\xmc_posif.h ****  * DATA STRUCTURES
 275:D:/Workspace/Development/my/DAVE/Infineon_CANopen/Libraries/XMCLib/inc\xmc_posif.h ****  **************************************************************************************************
 276:D:/Workspace/Development/my/DAVE/Infineon_CANopen/Libraries/XMCLib/inc\xmc_posif.h **** 
 277:D:/Workspace/Development/my/DAVE/Infineon_CANopen/Libraries/XMCLib/inc\xmc_posif.h **** /*Anonymous structure/union guard start*/
 278:D:/Workspace/Development/my/DAVE/Infineon_CANopen/Libraries/XMCLib/inc\xmc_posif.h **** #if defined(__CC_ARM)
 279:D:/Workspace/Development/my/DAVE/Infineon_CANopen/Libraries/XMCLib/inc\xmc_posif.h **** #pragma push
 280:D:/Workspace/Development/my/DAVE/Infineon_CANopen/Libraries/XMCLib/inc\xmc_posif.h **** #pragma anon_unions
 281:D:/Workspace/Development/my/DAVE/Infineon_CANopen/Libraries/XMCLib/inc\xmc_posif.h **** #elif defined(__TASKING__)
 282:D:/Workspace/Development/my/DAVE/Infineon_CANopen/Libraries/XMCLib/inc\xmc_posif.h **** #pragma warning 586
 283:D:/Workspace/Development/my/DAVE/Infineon_CANopen/Libraries/XMCLib/inc\xmc_posif.h **** #endif
 284:D:/Workspace/Development/my/DAVE/Infineon_CANopen/Libraries/XMCLib/inc\xmc_posif.h **** 
 285:D:/Workspace/Development/my/DAVE/Infineon_CANopen/Libraries/XMCLib/inc\xmc_posif.h **** /**
 286:D:/Workspace/Development/my/DAVE/Infineon_CANopen/Libraries/XMCLib/inc\xmc_posif.h ****  *
 287:D:/Workspace/Development/my/DAVE/Infineon_CANopen/Libraries/XMCLib/inc\xmc_posif.h ****  * Defines POSIF peripheral register structure.Use type @ref XMC_POSIF_t for this data structure.
 288:D:/Workspace/Development/my/DAVE/Infineon_CANopen/Libraries/XMCLib/inc\xmc_posif.h ****  */
 289:D:/Workspace/Development/my/DAVE/Infineon_CANopen/Libraries/XMCLib/inc\xmc_posif.h **** typedef POSIF_GLOBAL_TypeDef XMC_POSIF_t;
 290:D:/Workspace/Development/my/DAVE/Infineon_CANopen/Libraries/XMCLib/inc\xmc_posif.h **** 
 291:D:/Workspace/Development/my/DAVE/Infineon_CANopen/Libraries/XMCLib/inc\xmc_posif.h **** /**
 292:D:/Workspace/Development/my/DAVE/Infineon_CANopen/Libraries/XMCLib/inc\xmc_posif.h ****  *  Defines POSIF quadrature decoder initialization data structure.
 293:D:/Workspace/Development/my/DAVE/Infineon_CANopen/Libraries/XMCLib/inc\xmc_posif.h ****  *  Use type @ref XMC_POSIF_QD_CONFIG_t for this data structure.
 294:D:/Workspace/Development/my/DAVE/Infineon_CANopen/Libraries/XMCLib/inc\xmc_posif.h ****  *  It used to configure Quadrature mode using \a QDC register.
 295:D:/Workspace/Development/my/DAVE/Infineon_CANopen/Libraries/XMCLib/inc\xmc_posif.h ****  */
 296:D:/Workspace/Development/my/DAVE/Infineon_CANopen/Libraries/XMCLib/inc\xmc_posif.h **** typedef struct XMC_POSIF_QD_CONFIG
 297:D:/Workspace/Development/my/DAVE/Infineon_CANopen/Libraries/XMCLib/inc\xmc_posif.h **** {
 298:D:/Workspace/Development/my/DAVE/Infineon_CANopen/Libraries/XMCLib/inc\xmc_posif.h ****   XMC_POSIF_QD_MODE_t mode;      /**< Operational Mode of the quadrature encoder and decoder */
 299:D:/Workspace/Development/my/DAVE/Infineon_CANopen/Libraries/XMCLib/inc\xmc_posif.h ****   union
 300:D:/Workspace/Development/my/DAVE/Infineon_CANopen/Libraries/XMCLib/inc\xmc_posif.h ****   {
 301:D:/Workspace/Development/my/DAVE/Infineon_CANopen/Libraries/XMCLib/inc\xmc_posif.h ****     struct
 302:D:/Workspace/Development/my/DAVE/Infineon_CANopen/Libraries/XMCLib/inc\xmc_posif.h ****     {
 303:D:/Workspace/Development/my/DAVE/Infineon_CANopen/Libraries/XMCLib/inc\xmc_posif.h ****       uint32_t phase_a: 1;       /**< Phase-A active level configuration */
 304:D:/Workspace/Development/my/DAVE/Infineon_CANopen/Libraries/XMCLib/inc\xmc_posif.h ****       uint32_t phase_b: 1;       /**< Phase-B active level configuration */
 305:D:/Workspace/Development/my/DAVE/Infineon_CANopen/Libraries/XMCLib/inc\xmc_posif.h ****       uint32_t phase_leader: 1;  /**< Which of the two phase signals[Phase A or Phase B] leads the 
 306:D:/Workspace/Development/my/DAVE/Infineon_CANopen/Libraries/XMCLib/inc\xmc_posif.h ****       uint32_t : 1;
 307:D:/Workspace/Development/my/DAVE/Infineon_CANopen/Libraries/XMCLib/inc\xmc_posif.h ****       uint32_t index: 2;        /**< Index signal generation control. Use @ref XMC_POSIF_QD_INDEX_G
 308:D:/Workspace/Development/my/DAVE/Infineon_CANopen/Libraries/XMCLib/inc\xmc_posif.h ****       uint32_t : 26;
 309:D:/Workspace/Development/my/DAVE/Infineon_CANopen/Libraries/XMCLib/inc\xmc_posif.h ****     };
 310:D:/Workspace/Development/my/DAVE/Infineon_CANopen/Libraries/XMCLib/inc\xmc_posif.h ****     uint32_t qdc;
 311:D:/Workspace/Development/my/DAVE/Infineon_CANopen/Libraries/XMCLib/inc\xmc_posif.h ****   };
 312:D:/Workspace/Development/my/DAVE/Infineon_CANopen/Libraries/XMCLib/inc\xmc_posif.h **** } XMC_POSIF_QD_CONFIG_t;
 313:D:/Workspace/Development/my/DAVE/Infineon_CANopen/Libraries/XMCLib/inc\xmc_posif.h **** 
 314:D:/Workspace/Development/my/DAVE/Infineon_CANopen/Libraries/XMCLib/inc\xmc_posif.h **** /**
 315:D:/Workspace/Development/my/DAVE/Infineon_CANopen/Libraries/XMCLib/inc\xmc_posif.h ****  * Defines POSIF hall sensor control initialization data structure.
 316:D:/Workspace/Development/my/DAVE/Infineon_CANopen/Libraries/XMCLib/inc\xmc_posif.h ****  * Use type @ref XMC_POSIF_HSC_CONFIG_t for this data structure.
 317:D:/Workspace/Development/my/DAVE/Infineon_CANopen/Libraries/XMCLib/inc\xmc_posif.h ****  * It used to initialize hall sensor mode configuration using \a PCONF register.
 318:D:/Workspace/Development/my/DAVE/Infineon_CANopen/Libraries/XMCLib/inc\xmc_posif.h ****  */
 319:D:/Workspace/Development/my/DAVE/Infineon_CANopen/Libraries/XMCLib/inc\xmc_posif.h **** typedef struct XMC_POSIF_HSC_CONFIG
 320:D:/Workspace/Development/my/DAVE/Infineon_CANopen/Libraries/XMCLib/inc\xmc_posif.h **** {
 321:D:/Workspace/Development/my/DAVE/Infineon_CANopen/Libraries/XMCLib/inc\xmc_posif.h ****   union
 322:D:/Workspace/Development/my/DAVE/Infineon_CANopen/Libraries/XMCLib/inc\xmc_posif.h ****   {
 323:D:/Workspace/Development/my/DAVE/Infineon_CANopen/Libraries/XMCLib/inc\xmc_posif.h ****     struct
 324:D:/Workspace/Development/my/DAVE/Infineon_CANopen/Libraries/XMCLib/inc\xmc_posif.h ****     {
 325:D:/Workspace/Development/my/DAVE/Infineon_CANopen/Libraries/XMCLib/inc\xmc_posif.h ****       uint32_t : 4;
 326:D:/Workspace/Development/my/DAVE/Infineon_CANopen/Libraries/XMCLib/inc\xmc_posif.h ****       uint32_t disable_idle_signal: 1;   /**< Should idle signal be disabled upon wrong hall event?
 327:D:/Workspace/Development/my/DAVE/Infineon_CANopen/Libraries/XMCLib/inc\xmc_posif.h ****       uint32_t : 11;
 328:D:/Workspace/Development/my/DAVE/Infineon_CANopen/Libraries/XMCLib/inc\xmc_posif.h ****       uint32_t sampling_trigger: 1;      /**< Of HSDA and HSDB, which one is to be used to trigger 
 329:D:/Workspace/Development/my/DAVE/Infineon_CANopen/Libraries/XMCLib/inc\xmc_posif.h ****       uint32_t sampling_trigger_edge: 1; /**< Which edge of the sampling trigger signal is to be co
 330:D:/Workspace/Development/my/DAVE/Infineon_CANopen/Libraries/XMCLib/inc\xmc_posif.h ****       uint32_t : 6;
 331:D:/Workspace/Development/my/DAVE/Infineon_CANopen/Libraries/XMCLib/inc\xmc_posif.h ****       uint32_t external_error_port: 2;    /**< Of the 4 external error ports, which one is to be co
 332:D:/Workspace/Development/my/DAVE/Infineon_CANopen/Libraries/XMCLib/inc\xmc_posif.h ****       uint32_t external_error_enable: 1;  /**< Should external errors lead to Wrong Hall event? */
 333:D:/Workspace/Development/my/DAVE/Infineon_CANopen/Libraries/XMCLib/inc\xmc_posif.h ****       uint32_t external_error_level: 1;   /**< What should be the active level of external error si
 334:D:/Workspace/Development/my/DAVE/Infineon_CANopen/Libraries/XMCLib/inc\xmc_posif.h ****       uint32_t: 4;
 335:D:/Workspace/Development/my/DAVE/Infineon_CANopen/Libraries/XMCLib/inc\xmc_posif.h ****     };
 336:D:/Workspace/Development/my/DAVE/Infineon_CANopen/Libraries/XMCLib/inc\xmc_posif.h ****     uint32_t hall_config;
 337:D:/Workspace/Development/my/DAVE/Infineon_CANopen/Libraries/XMCLib/inc\xmc_posif.h ****   };
 338:D:/Workspace/Development/my/DAVE/Infineon_CANopen/Libraries/XMCLib/inc\xmc_posif.h **** } XMC_POSIF_HSC_CONFIG_t;
 339:D:/Workspace/Development/my/DAVE/Infineon_CANopen/Libraries/XMCLib/inc\xmc_posif.h **** 
 340:D:/Workspace/Development/my/DAVE/Infineon_CANopen/Libraries/XMCLib/inc\xmc_posif.h **** /**
 341:D:/Workspace/Development/my/DAVE/Infineon_CANopen/Libraries/XMCLib/inc\xmc_posif.h ****  * Defines POSIF multi-channel mode initialization data structure.
 342:D:/Workspace/Development/my/DAVE/Infineon_CANopen/Libraries/XMCLib/inc\xmc_posif.h ****  * Use type @ref XMC_POSIF_MCM_CONFIG_t for this data structure.
 343:D:/Workspace/Development/my/DAVE/Infineon_CANopen/Libraries/XMCLib/inc\xmc_posif.h ****  * It used to initialize multi channel mode configuration using \a PCONF register.
 344:D:/Workspace/Development/my/DAVE/Infineon_CANopen/Libraries/XMCLib/inc\xmc_posif.h ****  */
 345:D:/Workspace/Development/my/DAVE/Infineon_CANopen/Libraries/XMCLib/inc\xmc_posif.h **** typedef struct XMC_POSIF_MCM_CONFIG
 346:D:/Workspace/Development/my/DAVE/Infineon_CANopen/Libraries/XMCLib/inc\xmc_posif.h **** {
 347:D:/Workspace/Development/my/DAVE/Infineon_CANopen/Libraries/XMCLib/inc\xmc_posif.h ****   union
 348:D:/Workspace/Development/my/DAVE/Infineon_CANopen/Libraries/XMCLib/inc\xmc_posif.h ****   {
 349:D:/Workspace/Development/my/DAVE/Infineon_CANopen/Libraries/XMCLib/inc\xmc_posif.h ****     struct
 350:D:/Workspace/Development/my/DAVE/Infineon_CANopen/Libraries/XMCLib/inc\xmc_posif.h ****     {
 351:D:/Workspace/Development/my/DAVE/Infineon_CANopen/Libraries/XMCLib/inc\xmc_posif.h ****       uint32_t : 5;
 352:D:/Workspace/Development/my/DAVE/Infineon_CANopen/Libraries/XMCLib/inc\xmc_posif.h ****       uint32_t pattern_sw_update: 1; /**< should multi channel pattern updated by SW ? */
 353:D:/Workspace/Development/my/DAVE/Infineon_CANopen/Libraries/XMCLib/inc\xmc_posif.h ****       uint32_t : 12;
 354:D:/Workspace/Development/my/DAVE/Infineon_CANopen/Libraries/XMCLib/inc\xmc_posif.h ****       uint32_t pattern_update_trigger: 3; /**< Of the 8 update triggers, which one is to be conside
 355:D:/Workspace/Development/my/DAVE/Infineon_CANopen/Libraries/XMCLib/inc\xmc_posif.h ****       uint32_t pattern_trigger_edge: 1;  /**< Which edge of the pattern update trigger is to be con
 356:D:/Workspace/Development/my/DAVE/Infineon_CANopen/Libraries/XMCLib/inc\xmc_posif.h ****       uint32_t pwm_sync: 2;         /**< Of the 4 pwm sync inputs, which one is to be considered? *
 357:D:/Workspace/Development/my/DAVE/Infineon_CANopen/Libraries/XMCLib/inc\xmc_posif.h ****       uint32_t : 8;
 358:D:/Workspace/Development/my/DAVE/Infineon_CANopen/Libraries/XMCLib/inc\xmc_posif.h ****     };
 359:D:/Workspace/Development/my/DAVE/Infineon_CANopen/Libraries/XMCLib/inc\xmc_posif.h ****     uint32_t mcm_config;
 360:D:/Workspace/Development/my/DAVE/Infineon_CANopen/Libraries/XMCLib/inc\xmc_posif.h ****   };
 361:D:/Workspace/Development/my/DAVE/Infineon_CANopen/Libraries/XMCLib/inc\xmc_posif.h **** } XMC_POSIF_MCM_CONFIG_t;
 362:D:/Workspace/Development/my/DAVE/Infineon_CANopen/Libraries/XMCLib/inc\xmc_posif.h **** 
 363:D:/Workspace/Development/my/DAVE/Infineon_CANopen/Libraries/XMCLib/inc\xmc_posif.h **** /**
 364:D:/Workspace/Development/my/DAVE/Infineon_CANopen/Libraries/XMCLib/inc\xmc_posif.h ****  *  Defines POSIF module initialization data structure.
 365:D:/Workspace/Development/my/DAVE/Infineon_CANopen/Libraries/XMCLib/inc\xmc_posif.h ****  *  Use type @ref XMC_POSIF_CONFIG_t for this data structure.
 366:D:/Workspace/Development/my/DAVE/Infineon_CANopen/Libraries/XMCLib/inc\xmc_posif.h ****  *  It is used to initialize POSIF module using \a PCONF register.
 367:D:/Workspace/Development/my/DAVE/Infineon_CANopen/Libraries/XMCLib/inc\xmc_posif.h ****  */
 368:D:/Workspace/Development/my/DAVE/Infineon_CANopen/Libraries/XMCLib/inc\xmc_posif.h **** typedef struct XMC_POSIF_CONFIG
 369:D:/Workspace/Development/my/DAVE/Infineon_CANopen/Libraries/XMCLib/inc\xmc_posif.h **** {
 370:D:/Workspace/Development/my/DAVE/Infineon_CANopen/Libraries/XMCLib/inc\xmc_posif.h ****   union
 371:D:/Workspace/Development/my/DAVE/Infineon_CANopen/Libraries/XMCLib/inc\xmc_posif.h ****   {
 372:D:/Workspace/Development/my/DAVE/Infineon_CANopen/Libraries/XMCLib/inc\xmc_posif.h ****     struct
 373:D:/Workspace/Development/my/DAVE/Infineon_CANopen/Libraries/XMCLib/inc\xmc_posif.h ****     {
 374:D:/Workspace/Development/my/DAVE/Infineon_CANopen/Libraries/XMCLib/inc\xmc_posif.h ****       uint32_t mode: 2;    /**< POSIF Operational mode. Use @ref XMC_POSIF_MODE_t to configure */
 375:D:/Workspace/Development/my/DAVE/Infineon_CANopen/Libraries/XMCLib/inc\xmc_posif.h ****       uint32_t : 6;
 376:D:/Workspace/Development/my/DAVE/Infineon_CANopen/Libraries/XMCLib/inc\xmc_posif.h ****       uint32_t input0: 2; /**< Choice of input for Input-1 */
 377:D:/Workspace/Development/my/DAVE/Infineon_CANopen/Libraries/XMCLib/inc\xmc_posif.h ****       uint32_t input1: 2; /**< Choice of input for Input-2 */
 378:D:/Workspace/Development/my/DAVE/Infineon_CANopen/Libraries/XMCLib/inc\xmc_posif.h ****       uint32_t input2: 2; /**< Choice of input for Input-3 */
 379:D:/Workspace/Development/my/DAVE/Infineon_CANopen/Libraries/XMCLib/inc\xmc_posif.h ****       uint32_t : 14;
 380:D:/Workspace/Development/my/DAVE/Infineon_CANopen/Libraries/XMCLib/inc\xmc_posif.h ****       uint32_t filter: 3; /**< Input filter configuration */
 381:D:/Workspace/Development/my/DAVE/Infineon_CANopen/Libraries/XMCLib/inc\xmc_posif.h ****       uint32_t: 1;
 382:D:/Workspace/Development/my/DAVE/Infineon_CANopen/Libraries/XMCLib/inc\xmc_posif.h ****     };
 383:D:/Workspace/Development/my/DAVE/Infineon_CANopen/Libraries/XMCLib/inc\xmc_posif.h ****     uint32_t pconf;
 384:D:/Workspace/Development/my/DAVE/Infineon_CANopen/Libraries/XMCLib/inc\xmc_posif.h ****   };
 385:D:/Workspace/Development/my/DAVE/Infineon_CANopen/Libraries/XMCLib/inc\xmc_posif.h **** } XMC_POSIF_CONFIG_t;
 386:D:/Workspace/Development/my/DAVE/Infineon_CANopen/Libraries/XMCLib/inc\xmc_posif.h **** 
 387:D:/Workspace/Development/my/DAVE/Infineon_CANopen/Libraries/XMCLib/inc\xmc_posif.h **** /*Anonymous structure/union guard end*/
 388:D:/Workspace/Development/my/DAVE/Infineon_CANopen/Libraries/XMCLib/inc\xmc_posif.h **** #if defined(__CC_ARM)
 389:D:/Workspace/Development/my/DAVE/Infineon_CANopen/Libraries/XMCLib/inc\xmc_posif.h **** #pragma pop
 390:D:/Workspace/Development/my/DAVE/Infineon_CANopen/Libraries/XMCLib/inc\xmc_posif.h **** #elif defined(__TASKING__)
 391:D:/Workspace/Development/my/DAVE/Infineon_CANopen/Libraries/XMCLib/inc\xmc_posif.h **** #pragma warning restore
 392:D:/Workspace/Development/my/DAVE/Infineon_CANopen/Libraries/XMCLib/inc\xmc_posif.h **** #endif
 393:D:/Workspace/Development/my/DAVE/Infineon_CANopen/Libraries/XMCLib/inc\xmc_posif.h **** 
 394:D:/Workspace/Development/my/DAVE/Infineon_CANopen/Libraries/XMCLib/inc\xmc_posif.h **** /**************************************************************************************************
 395:D:/Workspace/Development/my/DAVE/Infineon_CANopen/Libraries/XMCLib/inc\xmc_posif.h ****  * API Prototypes
 396:D:/Workspace/Development/my/DAVE/Infineon_CANopen/Libraries/XMCLib/inc\xmc_posif.h ****  **************************************************************************************************
 397:D:/Workspace/Development/my/DAVE/Infineon_CANopen/Libraries/XMCLib/inc\xmc_posif.h **** #ifdef __cplusplus
 398:D:/Workspace/Development/my/DAVE/Infineon_CANopen/Libraries/XMCLib/inc\xmc_posif.h **** extern "C" {
 399:D:/Workspace/Development/my/DAVE/Infineon_CANopen/Libraries/XMCLib/inc\xmc_posif.h **** #endif
 400:D:/Workspace/Development/my/DAVE/Infineon_CANopen/Libraries/XMCLib/inc\xmc_posif.h **** 
 401:D:/Workspace/Development/my/DAVE/Infineon_CANopen/Libraries/XMCLib/inc\xmc_posif.h **** /**
 402:D:/Workspace/Development/my/DAVE/Infineon_CANopen/Libraries/XMCLib/inc\xmc_posif.h ****  * @param peripheral Pointer to an instance of POSIF module of type @ref XMC_POSIF_t
 403:D:/Workspace/Development/my/DAVE/Infineon_CANopen/Libraries/XMCLib/inc\xmc_posif.h ****  * @retval None
 404:D:/Workspace/Development/my/DAVE/Infineon_CANopen/Libraries/XMCLib/inc\xmc_posif.h ****  *
 405:D:/Workspace/Development/my/DAVE/Infineon_CANopen/Libraries/XMCLib/inc\xmc_posif.h ****  * \par<b>Description</b><br>
 406:D:/Workspace/Development/my/DAVE/Infineon_CANopen/Libraries/XMCLib/inc\xmc_posif.h ****  * De-asserts the POSIF module from reset and enables the clock.\n
 407:D:/Workspace/Development/my/DAVE/Infineon_CANopen/Libraries/XMCLib/inc\xmc_posif.h ****  * Configures \a PRCLR0 register's \a POSIF0RS or \a POSIF1RS bit field depends upon \a peripheral.
 408:D:/Workspace/Development/my/DAVE/Infineon_CANopen/Libraries/XMCLib/inc\xmc_posif.h ****  * If running on other than XMC45 device then it will ungate the peripheral clock.
 409:D:/Workspace/Development/my/DAVE/Infineon_CANopen/Libraries/XMCLib/inc\xmc_posif.h ****  *
 410:D:/Workspace/Development/my/DAVE/Infineon_CANopen/Libraries/XMCLib/inc\xmc_posif.h ****  * \par<b>Note</b><br>
 411:D:/Workspace/Development/my/DAVE/Infineon_CANopen/Libraries/XMCLib/inc\xmc_posif.h ****  * This is the first API which application must invoke to configure POSIF.
 412:D:/Workspace/Development/my/DAVE/Infineon_CANopen/Libraries/XMCLib/inc\xmc_posif.h ****  * It is internally called by XMC_POSIF_Init().
 413:D:/Workspace/Development/my/DAVE/Infineon_CANopen/Libraries/XMCLib/inc\xmc_posif.h ****  *
 414:D:/Workspace/Development/my/DAVE/Infineon_CANopen/Libraries/XMCLib/inc\xmc_posif.h ****  * \par<b>Related APIs:</b><BR>
 415:D:/Workspace/Development/my/DAVE/Infineon_CANopen/Libraries/XMCLib/inc\xmc_posif.h ****  * XMC_POSIF_Disable(),XMC_POSIF_Init() \n\n\n
 416:D:/Workspace/Development/my/DAVE/Infineon_CANopen/Libraries/XMCLib/inc\xmc_posif.h ****  */
 417:D:/Workspace/Development/my/DAVE/Infineon_CANopen/Libraries/XMCLib/inc\xmc_posif.h **** void XMC_POSIF_Enable(XMC_POSIF_t *const peripheral);
 418:D:/Workspace/Development/my/DAVE/Infineon_CANopen/Libraries/XMCLib/inc\xmc_posif.h **** 
 419:D:/Workspace/Development/my/DAVE/Infineon_CANopen/Libraries/XMCLib/inc\xmc_posif.h **** /**
 420:D:/Workspace/Development/my/DAVE/Infineon_CANopen/Libraries/XMCLib/inc\xmc_posif.h ****  * @param peripheral Pointer to an instance of POSIF module of type @ref XMC_POSIF_t
 421:D:/Workspace/Development/my/DAVE/Infineon_CANopen/Libraries/XMCLib/inc\xmc_posif.h ****  * @retval None
 422:D:/Workspace/Development/my/DAVE/Infineon_CANopen/Libraries/XMCLib/inc\xmc_posif.h ****  *
 423:D:/Workspace/Development/my/DAVE/Infineon_CANopen/Libraries/XMCLib/inc\xmc_posif.h ****  * \par<b>Description</b><br>
 424:D:/Workspace/Development/my/DAVE/Infineon_CANopen/Libraries/XMCLib/inc\xmc_posif.h ****  * Asserts the POSIF module into reset and disables the clock.\n
 425:D:/Workspace/Development/my/DAVE/Infineon_CANopen/Libraries/XMCLib/inc\xmc_posif.h ****  * If running on other than XMC45 device then in addition it will gate the peripheral clock.
 426:D:/Workspace/Development/my/DAVE/Infineon_CANopen/Libraries/XMCLib/inc\xmc_posif.h ****  * Configures \a PRCLR0 register's \a POSIF0RS or \a POSIF1RS bitfield depends upon \a peripheral.
 427:D:/Workspace/Development/my/DAVE/Infineon_CANopen/Libraries/XMCLib/inc\xmc_posif.h ****  *
 428:D:/Workspace/Development/my/DAVE/Infineon_CANopen/Libraries/XMCLib/inc\xmc_posif.h ****  * \par<b>Related APIs:</b><BR>
 429:D:/Workspace/Development/my/DAVE/Infineon_CANopen/Libraries/XMCLib/inc\xmc_posif.h ****  * XMC_POSIF_Enable()\n\n\n
 430:D:/Workspace/Development/my/DAVE/Infineon_CANopen/Libraries/XMCLib/inc\xmc_posif.h ****  */
 431:D:/Workspace/Development/my/DAVE/Infineon_CANopen/Libraries/XMCLib/inc\xmc_posif.h **** void XMC_POSIF_Disable(XMC_POSIF_t *const peripheral);
 432:D:/Workspace/Development/my/DAVE/Infineon_CANopen/Libraries/XMCLib/inc\xmc_posif.h **** 
 433:D:/Workspace/Development/my/DAVE/Infineon_CANopen/Libraries/XMCLib/inc\xmc_posif.h **** /**
 434:D:/Workspace/Development/my/DAVE/Infineon_CANopen/Libraries/XMCLib/inc\xmc_posif.h ****  * @param peripheral Pointer to an instance of POSIF module of type @ref XMC_POSIF_t
 435:D:/Workspace/Development/my/DAVE/Infineon_CANopen/Libraries/XMCLib/inc\xmc_posif.h ****  * @param config Pointer to POSIF configuration data(operation mode,input selection and filter conf
 436:D:/Workspace/Development/my/DAVE/Infineon_CANopen/Libraries/XMCLib/inc\xmc_posif.h ****  * @retval None
 437:D:/Workspace/Development/my/DAVE/Infineon_CANopen/Libraries/XMCLib/inc\xmc_posif.h ****  *
 438:D:/Workspace/Development/my/DAVE/Infineon_CANopen/Libraries/XMCLib/inc\xmc_posif.h ****  * \par<b>Description</b><br>
 439:D:/Workspace/Development/my/DAVE/Infineon_CANopen/Libraries/XMCLib/inc\xmc_posif.h ****  * Initialize POSIF module with \a config.\n
 440:D:/Workspace/Development/my/DAVE/Infineon_CANopen/Libraries/XMCLib/inc\xmc_posif.h ****  * Configures POSIF global registers.This is the first API which application must invoke to configu
 441:D:/Workspace/Development/my/DAVE/Infineon_CANopen/Libraries/XMCLib/inc\xmc_posif.h ****  * It sets up parameters common to all the POSIF modes - hall sensor,quadrature decoder and multi-c
 442:D:/Workspace/Development/my/DAVE/Infineon_CANopen/Libraries/XMCLib/inc\xmc_posif.h ****  * Configures \a PCONF register with mode of operation,input selection and filter configuration.
 443:D:/Workspace/Development/my/DAVE/Infineon_CANopen/Libraries/XMCLib/inc\xmc_posif.h ****  *
 444:D:/Workspace/Development/my/DAVE/Infineon_CANopen/Libraries/XMCLib/inc\xmc_posif.h ****  * \par<b>Related APIs:</b><BR>
 445:D:/Workspace/Development/my/DAVE/Infineon_CANopen/Libraries/XMCLib/inc\xmc_posif.h ****  * XMC_POSIF_HSC_Init(),XMC_POSIF_QD_Init(),XMC_POSIF_MCM_Init() \n\n\n
 446:D:/Workspace/Development/my/DAVE/Infineon_CANopen/Libraries/XMCLib/inc\xmc_posif.h **** */
 447:D:/Workspace/Development/my/DAVE/Infineon_CANopen/Libraries/XMCLib/inc\xmc_posif.h **** void XMC_POSIF_Init(XMC_POSIF_t *const peripheral, const XMC_POSIF_CONFIG_t *const config);
 448:D:/Workspace/Development/my/DAVE/Infineon_CANopen/Libraries/XMCLib/inc\xmc_posif.h **** 
 449:D:/Workspace/Development/my/DAVE/Infineon_CANopen/Libraries/XMCLib/inc\xmc_posif.h **** /**
 450:D:/Workspace/Development/my/DAVE/Infineon_CANopen/Libraries/XMCLib/inc\xmc_posif.h ****  * @param peripheral Pointer to an instance of POSIF module
 451:D:/Workspace/Development/my/DAVE/Infineon_CANopen/Libraries/XMCLib/inc\xmc_posif.h ****  * @param config Pointer to hall sensor control initialization data of type @ref XMC_POSIF_HSC_CONF
 452:D:/Workspace/Development/my/DAVE/Infineon_CANopen/Libraries/XMCLib/inc\xmc_posif.h ****  * @retval XMC_POSIF_STATUS_t  Returns @ref XMC_POSIF_STATUS_OK if configured in Hall Sensor Mode
 453:D:/Workspace/Development/my/DAVE/Infineon_CANopen/Libraries/XMCLib/inc\xmc_posif.h ****  *                             else return @ref XMC_POSIF_STATUS_ERROR.
 454:D:/Workspace/Development/my/DAVE/Infineon_CANopen/Libraries/XMCLib/inc\xmc_posif.h ****  *
 455:D:/Workspace/Development/my/DAVE/Infineon_CANopen/Libraries/XMCLib/inc\xmc_posif.h ****  * \par<b>Description</b><br>
 456:D:/Workspace/Development/my/DAVE/Infineon_CANopen/Libraries/XMCLib/inc\xmc_posif.h ****  * Initializes hall sensor control mode.\n
 457:D:/Workspace/Development/my/DAVE/Infineon_CANopen/Libraries/XMCLib/inc\xmc_posif.h ****  * Configures \a PCONF register with which POSIF input trigger to be used for
 458:D:/Workspace/Development/my/DAVE/Infineon_CANopen/Libraries/XMCLib/inc\xmc_posif.h ****  * sampling hall pattern.Configures \a PCONF register for idle signal generation for wrong hall eve
 459:D:/Workspace/Development/my/DAVE/Infineon_CANopen/Libraries/XMCLib/inc\xmc_posif.h ****  *
 460:D:/Workspace/Development/my/DAVE/Infineon_CANopen/Libraries/XMCLib/inc\xmc_posif.h ****  * \par<b>Note</b><br>
 461:D:/Workspace/Development/my/DAVE/Infineon_CANopen/Libraries/XMCLib/inc\xmc_posif.h ****  * It is necessary to have called XMC_POSIF_Init first with Hall sensor mode before invocation of t
 462:D:/Workspace/Development/my/DAVE/Infineon_CANopen/Libraries/XMCLib/inc\xmc_posif.h ****  *
 463:D:/Workspace/Development/my/DAVE/Infineon_CANopen/Libraries/XMCLib/inc\xmc_posif.h ****  * \par<b>Related APIs:</b><BR>
 464:D:/Workspace/Development/my/DAVE/Infineon_CANopen/Libraries/XMCLib/inc\xmc_posif.h ****  * XMC_POSIF_Init() \n\n\n
 465:D:/Workspace/Development/my/DAVE/Infineon_CANopen/Libraries/XMCLib/inc\xmc_posif.h ****  */
 466:D:/Workspace/Development/my/DAVE/Infineon_CANopen/Libraries/XMCLib/inc\xmc_posif.h **** XMC_POSIF_STATUS_t XMC_POSIF_HSC_Init(XMC_POSIF_t *const peripheral, const XMC_POSIF_HSC_CONFIG_t *
 467:D:/Workspace/Development/my/DAVE/Infineon_CANopen/Libraries/XMCLib/inc\xmc_posif.h **** 
 468:D:/Workspace/Development/my/DAVE/Infineon_CANopen/Libraries/XMCLib/inc\xmc_posif.h **** /**
 469:D:/Workspace/Development/my/DAVE/Infineon_CANopen/Libraries/XMCLib/inc\xmc_posif.h ****  * @param peripheral Pointer to an instance of POSIF module
 470:D:/Workspace/Development/my/DAVE/Infineon_CANopen/Libraries/XMCLib/inc\xmc_posif.h ****  * @param config Pointer to quadrature decoder initialization data
 471:D:/Workspace/Development/my/DAVE/Infineon_CANopen/Libraries/XMCLib/inc\xmc_posif.h ****  * @retval XMC_POSIF_STATUS_t Returns quadrature mode initialization status of type @ref XMC_POSIF_
 472:D:/Workspace/Development/my/DAVE/Infineon_CANopen/Libraries/XMCLib/inc\xmc_posif.h ****  *
 473:D:/Workspace/Development/my/DAVE/Infineon_CANopen/Libraries/XMCLib/inc\xmc_posif.h ****  * \par<b>Description</b><br>
 474:D:/Workspace/Development/my/DAVE/Infineon_CANopen/Libraries/XMCLib/inc\xmc_posif.h ****  * Initializes quadrature decoder control mode.\n
 475:D:/Workspace/Development/my/DAVE/Infineon_CANopen/Libraries/XMCLib/inc\xmc_posif.h ****  * Configures \a PCONF register with quadrature mode using @ref XMC_POSIF_QD_MODE_t data structure.
 476:D:/Workspace/Development/my/DAVE/Infineon_CANopen/Libraries/XMCLib/inc\xmc_posif.h ****  * Initializes \a QDC register with quadrature mode configuration using @ref XMC_POSIF_QD_CONFIG_t 
 477:D:/Workspace/Development/my/DAVE/Infineon_CANopen/Libraries/XMCLib/inc\xmc_posif.h ****  *
 478:D:/Workspace/Development/my/DAVE/Infineon_CANopen/Libraries/XMCLib/inc\xmc_posif.h ****  * \par<b>Note</b><br>
 479:D:/Workspace/Development/my/DAVE/Infineon_CANopen/Libraries/XMCLib/inc\xmc_posif.h ****  * It is necessary to have called XMC_POSIF_Init first with Quadrature decoder mode before invocati
 480:D:/Workspace/Development/my/DAVE/Infineon_CANopen/Libraries/XMCLib/inc\xmc_posif.h ****  *
 481:D:/Workspace/Development/my/DAVE/Infineon_CANopen/Libraries/XMCLib/inc\xmc_posif.h ****  * \par<b>Related APIs:</b><BR>
 482:D:/Workspace/Development/my/DAVE/Infineon_CANopen/Libraries/XMCLib/inc\xmc_posif.h ****  * XMC_POSIF_Init() \n\n\n
 483:D:/Workspace/Development/my/DAVE/Infineon_CANopen/Libraries/XMCLib/inc\xmc_posif.h ****  */
 484:D:/Workspace/Development/my/DAVE/Infineon_CANopen/Libraries/XMCLib/inc\xmc_posif.h **** XMC_POSIF_STATUS_t XMC_POSIF_QD_Init(XMC_POSIF_t *const peripheral, const XMC_POSIF_QD_CONFIG_t *co
 485:D:/Workspace/Development/my/DAVE/Infineon_CANopen/Libraries/XMCLib/inc\xmc_posif.h **** 
 486:D:/Workspace/Development/my/DAVE/Infineon_CANopen/Libraries/XMCLib/inc\xmc_posif.h **** /**
 487:D:/Workspace/Development/my/DAVE/Infineon_CANopen/Libraries/XMCLib/inc\xmc_posif.h ****  * @param peripheral Pointer to an instance of POSIF module
 488:D:/Workspace/Development/my/DAVE/Infineon_CANopen/Libraries/XMCLib/inc\xmc_posif.h ****  * @param config Pointer to quadrature decoder initialization data
 489:D:/Workspace/Development/my/DAVE/Infineon_CANopen/Libraries/XMCLib/inc\xmc_posif.h ****  * @retval XMC_POSIF_STATUS_t Returns multi channel pattern initialization status of type @ref XMC_
 490:D:/Workspace/Development/my/DAVE/Infineon_CANopen/Libraries/XMCLib/inc\xmc_posif.h ****  *
 491:D:/Workspace/Development/my/DAVE/Infineon_CANopen/Libraries/XMCLib/inc\xmc_posif.h ****  * \par<b>Description</b><br>
 492:D:/Workspace/Development/my/DAVE/Infineon_CANopen/Libraries/XMCLib/inc\xmc_posif.h ****  * Initializes multi channel mode in Hall mode, standalone multi-channel mode and quadrature with m
 493:D:/Workspace/Development/my/DAVE/Infineon_CANopen/Libraries/XMCLib/inc\xmc_posif.h ****  * Configures \a PCONF register with multi channel mode using @ref XMC_POSIF_MCM_CONFIG_t data stru
 494:D:/Workspace/Development/my/DAVE/Infineon_CANopen/Libraries/XMCLib/inc\xmc_posif.h ****  *
 495:D:/Workspace/Development/my/DAVE/Infineon_CANopen/Libraries/XMCLib/inc\xmc_posif.h ****  * \par<b>Note</b><br>
 496:D:/Workspace/Development/my/DAVE/Infineon_CANopen/Libraries/XMCLib/inc\xmc_posif.h ****  * It is necessary to call XMC_POSIF_Init first before invocation of this API.
 497:D:/Workspace/Development/my/DAVE/Infineon_CANopen/Libraries/XMCLib/inc\xmc_posif.h ****  * For XMC_POSIF_MODE_HALL_SENSOR, it is necessary to have called XMC_POSIF_HSC_Init before invocat
 498:D:/Workspace/Development/my/DAVE/Infineon_CANopen/Libraries/XMCLib/inc\xmc_posif.h ****  * For XMC_POSIF_MODE_MCM_QD, it is necessary to have called XMC_POSIF_QD_Init before invocation of
 499:D:/Workspace/Development/my/DAVE/Infineon_CANopen/Libraries/XMCLib/inc\xmc_posif.h ****  *
 500:D:/Workspace/Development/my/DAVE/Infineon_CANopen/Libraries/XMCLib/inc\xmc_posif.h ****  * \par<b>Related APIs:</b><BR>
 501:D:/Workspace/Development/my/DAVE/Infineon_CANopen/Libraries/XMCLib/inc\xmc_posif.h ****  * XMC_POSIF_Init(),XMC_POSIF_HSC_Init(),XMC_POSIF_QD_Init() \n\n\n
 502:D:/Workspace/Development/my/DAVE/Infineon_CANopen/Libraries/XMCLib/inc\xmc_posif.h ****  */
 503:D:/Workspace/Development/my/DAVE/Infineon_CANopen/Libraries/XMCLib/inc\xmc_posif.h **** XMC_POSIF_STATUS_t XMC_POSIF_MCM_Init(XMC_POSIF_t *const peripheral, const XMC_POSIF_MCM_CONFIG_t *
 504:D:/Workspace/Development/my/DAVE/Infineon_CANopen/Libraries/XMCLib/inc\xmc_posif.h **** 
 505:D:/Workspace/Development/my/DAVE/Infineon_CANopen/Libraries/XMCLib/inc\xmc_posif.h **** /**
 506:D:/Workspace/Development/my/DAVE/Infineon_CANopen/Libraries/XMCLib/inc\xmc_posif.h ****  * @param peripheral Pointer to an instance of POSIF module
 507:D:/Workspace/Development/my/DAVE/Infineon_CANopen/Libraries/XMCLib/inc\xmc_posif.h ****  * @param mode POSIF operating mode of type @ref XMC_POSIF_MODE_t
 508:D:/Workspace/Development/my/DAVE/Infineon_CANopen/Libraries/XMCLib/inc\xmc_posif.h ****  * @retval None
 509:D:/Workspace/Development/my/DAVE/Infineon_CANopen/Libraries/XMCLib/inc\xmc_posif.h ****  *
 510:D:/Workspace/Development/my/DAVE/Infineon_CANopen/Libraries/XMCLib/inc\xmc_posif.h ****  * \par<b>Description</b><br>
 511:D:/Workspace/Development/my/DAVE/Infineon_CANopen/Libraries/XMCLib/inc\xmc_posif.h ****  * Configures POSIF module for \a mode.\n
 512:D:/Workspace/Development/my/DAVE/Infineon_CANopen/Libraries/XMCLib/inc\xmc_posif.h ****  * Configures \a PCONF register's a\ FSEL bitfield with \a mode.
 513:D:/Workspace/Development/my/DAVE/Infineon_CANopen/Libraries/XMCLib/inc\xmc_posif.h ****  * Refer @ref XMC_POSIF_MODE_t for available options.
 514:D:/Workspace/Development/my/DAVE/Infineon_CANopen/Libraries/XMCLib/inc\xmc_posif.h ****  *
 515:D:/Workspace/Development/my/DAVE/Infineon_CANopen/Libraries/XMCLib/inc\xmc_posif.h ****  * \par<b>Note</b><br>
 516:D:/Workspace/Development/my/DAVE/Infineon_CANopen/Libraries/XMCLib/inc\xmc_posif.h ****  * POSIF module should be in stopped state while changing the operating mode.
 517:D:/Workspace/Development/my/DAVE/Infineon_CANopen/Libraries/XMCLib/inc\xmc_posif.h ****  *
 518:D:/Workspace/Development/my/DAVE/Infineon_CANopen/Libraries/XMCLib/inc\xmc_posif.h ****  * \par<b>Related APIs:</b><BR>
 519:D:/Workspace/Development/my/DAVE/Infineon_CANopen/Libraries/XMCLib/inc\xmc_posif.h ****  * XMC_POSIF_Stop() \n\n\n
 520:D:/Workspace/Development/my/DAVE/Infineon_CANopen/Libraries/XMCLib/inc\xmc_posif.h ****  */
 521:D:/Workspace/Development/my/DAVE/Infineon_CANopen/Libraries/XMCLib/inc\xmc_posif.h **** __STATIC_INLINE void XMC_POSIF_SetMode(XMC_POSIF_t *const peripheral, const XMC_POSIF_MODE_t mode)
 522:D:/Workspace/Development/my/DAVE/Infineon_CANopen/Libraries/XMCLib/inc\xmc_posif.h **** {
 523:D:/Workspace/Development/my/DAVE/Infineon_CANopen/Libraries/XMCLib/inc\xmc_posif.h ****   peripheral->PCONF = ((peripheral->PCONF & ~(uint32_t)(POSIF_PCONF_FSEL_Msk)) |
 524:D:/Workspace/Development/my/DAVE/Infineon_CANopen/Libraries/XMCLib/inc\xmc_posif.h ****                        (((uint32_t)mode << POSIF_PCONF_FSEL_Pos) & (uint32_t)POSIF_PCONF_FSEL_Msk))
 525:D:/Workspace/Development/my/DAVE/Infineon_CANopen/Libraries/XMCLib/inc\xmc_posif.h **** }
 526:D:/Workspace/Development/my/DAVE/Infineon_CANopen/Libraries/XMCLib/inc\xmc_posif.h **** 
 527:D:/Workspace/Development/my/DAVE/Infineon_CANopen/Libraries/XMCLib/inc\xmc_posif.h **** /**
 528:D:/Workspace/Development/my/DAVE/Infineon_CANopen/Libraries/XMCLib/inc\xmc_posif.h ****  * @param peripheral Pointer to an instance of POSIF module
 529:D:/Workspace/Development/my/DAVE/Infineon_CANopen/Libraries/XMCLib/inc\xmc_posif.h ****  * @param input0 Choice of input for input 0 [0-3]
 530:D:/Workspace/Development/my/DAVE/Infineon_CANopen/Libraries/XMCLib/inc\xmc_posif.h ****  * @param input1 Choice of input for input 1 [0-3]
 531:D:/Workspace/Development/my/DAVE/Infineon_CANopen/Libraries/XMCLib/inc\xmc_posif.h ****  * @param input2 Choice of input for input 2 [0-3]
 532:D:/Workspace/Development/my/DAVE/Infineon_CANopen/Libraries/XMCLib/inc\xmc_posif.h ****  * @retval None
 533:D:/Workspace/Development/my/DAVE/Infineon_CANopen/Libraries/XMCLib/inc\xmc_posif.h ****  *
 534:D:/Workspace/Development/my/DAVE/Infineon_CANopen/Libraries/XMCLib/inc\xmc_posif.h ****  * \par<b>Description</b><br>
 535:D:/Workspace/Development/my/DAVE/Infineon_CANopen/Libraries/XMCLib/inc\xmc_posif.h ****  * Configures which input to be connected to POSIF module. \n
 536:D:/Workspace/Development/my/DAVE/Infineon_CANopen/Libraries/XMCLib/inc\xmc_posif.h ****  * Configures \a PCONF register's INSEL0,INSEL1,INSEL2 bit fields with source for the input connect
 537:D:/Workspace/Development/my/DAVE/Infineon_CANopen/Libraries/XMCLib/inc\xmc_posif.h ****  * \a input1, \a input2 respectively.
 538:D:/Workspace/Development/my/DAVE/Infineon_CANopen/Libraries/XMCLib/inc\xmc_posif.h ****  *
 539:D:/Workspace/Development/my/DAVE/Infineon_CANopen/Libraries/XMCLib/inc\xmc_posif.h ****  * \par<b>Note</b><br>
 540:D:/Workspace/Development/my/DAVE/Infineon_CANopen/Libraries/XMCLib/inc\xmc_posif.h ****  * Configures which input is used for the Phase X or Hall input X function depending upon the modul
 541:D:/Workspace/Development/my/DAVE/Infineon_CANopen/Libraries/XMCLib/inc\xmc_posif.h ****  * set for Quadrature Decoder or Hall Sensor Mode.
 542:D:/Workspace/Development/my/DAVE/Infineon_CANopen/Libraries/XMCLib/inc\xmc_posif.h ****  *
 543:D:/Workspace/Development/my/DAVE/Infineon_CANopen/Libraries/XMCLib/inc\xmc_posif.h ****  * \par<b>Related APIs:</b><BR>
 544:D:/Workspace/Development/my/DAVE/Infineon_CANopen/Libraries/XMCLib/inc\xmc_posif.h ****  * XMC_POSIF_Init() \n\n\n
 545:D:/Workspace/Development/my/DAVE/Infineon_CANopen/Libraries/XMCLib/inc\xmc_posif.h ****  */
 546:D:/Workspace/Development/my/DAVE/Infineon_CANopen/Libraries/XMCLib/inc\xmc_posif.h **** void XMC_POSIF_SelectInputSource(XMC_POSIF_t *const peripheral, const XMC_POSIF_INPUT_PORT_t input0
 547:D:/Workspace/Development/my/DAVE/Infineon_CANopen/Libraries/XMCLib/inc\xmc_posif.h ****                                  const XMC_POSIF_INPUT_PORT_t input1, const XMC_POSIF_INPUT_PORT_t 
 548:D:/Workspace/Development/my/DAVE/Infineon_CANopen/Libraries/XMCLib/inc\xmc_posif.h **** 
 549:D:/Workspace/Development/my/DAVE/Infineon_CANopen/Libraries/XMCLib/inc\xmc_posif.h **** 
 550:D:/Workspace/Development/my/DAVE/Infineon_CANopen/Libraries/XMCLib/inc\xmc_posif.h **** /**
 551:D:/Workspace/Development/my/DAVE/Infineon_CANopen/Libraries/XMCLib/inc\xmc_posif.h ****  * @param peripheral Pointer to an instance of POSIF module
 552:D:/Workspace/Development/my/DAVE/Infineon_CANopen/Libraries/XMCLib/inc\xmc_posif.h ****  * @retval None
 553:D:/Workspace/Development/my/DAVE/Infineon_CANopen/Libraries/XMCLib/inc\xmc_posif.h ****  *
 554:D:/Workspace/Development/my/DAVE/Infineon_CANopen/Libraries/XMCLib/inc\xmc_posif.h ****  * \par<b>Description</b><br>
 555:D:/Workspace/Development/my/DAVE/Infineon_CANopen/Libraries/XMCLib/inc\xmc_posif.h ****  * Starts POSIF \a peripheral functional state machine.\n
 556:D:/Workspace/Development/my/DAVE/Infineon_CANopen/Libraries/XMCLib/inc\xmc_posif.h ****  * Starts POSIF state machine for \a peripheral.Configures \a PRUNS register's \a SRB bit field wit
 557:D:/Workspace/Development/my/DAVE/Infineon_CANopen/Libraries/XMCLib/inc\xmc_posif.h ****  *
 558:D:/Workspace/Development/my/DAVE/Infineon_CANopen/Libraries/XMCLib/inc\xmc_posif.h ****  * \par<b>Note</b><br>
 559:D:/Workspace/Development/my/DAVE/Infineon_CANopen/Libraries/XMCLib/inc\xmc_posif.h ****  * Global properties of POSIF along with mode specific properties should have been initialized befo
 560:D:/Workspace/Development/my/DAVE/Infineon_CANopen/Libraries/XMCLib/inc\xmc_posif.h ****  * FSM.
 561:D:/Workspace/Development/my/DAVE/Infineon_CANopen/Libraries/XMCLib/inc\xmc_posif.h ****  *
 562:D:/Workspace/Development/my/DAVE/Infineon_CANopen/Libraries/XMCLib/inc\xmc_posif.h ****  * \par<b>Related APIs:</b><BR>
 563:D:/Workspace/Development/my/DAVE/Infineon_CANopen/Libraries/XMCLib/inc\xmc_posif.h ****  * XMC_POSIF_Stop(),XMC_POSIF_IsRunning() \n\n\n
 564:D:/Workspace/Development/my/DAVE/Infineon_CANopen/Libraries/XMCLib/inc\xmc_posif.h ****  */
 565:D:/Workspace/Development/my/DAVE/Infineon_CANopen/Libraries/XMCLib/inc\xmc_posif.h **** __STATIC_INLINE void XMC_POSIF_Start(XMC_POSIF_t *const peripheral)
 566:D:/Workspace/Development/my/DAVE/Infineon_CANopen/Libraries/XMCLib/inc\xmc_posif.h **** {
 567:D:/Workspace/Development/my/DAVE/Infineon_CANopen/Libraries/XMCLib/inc\xmc_posif.h ****   peripheral->PRUNS = (uint32_t)POSIF_PRUNS_SRB_Msk;
 568:D:/Workspace/Development/my/DAVE/Infineon_CANopen/Libraries/XMCLib/inc\xmc_posif.h **** }
 569:D:/Workspace/Development/my/DAVE/Infineon_CANopen/Libraries/XMCLib/inc\xmc_posif.h **** 
 570:D:/Workspace/Development/my/DAVE/Infineon_CANopen/Libraries/XMCLib/inc\xmc_posif.h **** /**
 571:D:/Workspace/Development/my/DAVE/Infineon_CANopen/Libraries/XMCLib/inc\xmc_posif.h ****  * @param peripheral Pointer to an instance of POSIF module
 572:D:/Workspace/Development/my/DAVE/Infineon_CANopen/Libraries/XMCLib/inc\xmc_posif.h ****  * @retval None
 573:D:/Workspace/Development/my/DAVE/Infineon_CANopen/Libraries/XMCLib/inc\xmc_posif.h ****  *
 574:D:/Workspace/Development/my/DAVE/Infineon_CANopen/Libraries/XMCLib/inc\xmc_posif.h ****  * \par<b>Description</b><br>
 575:D:/Workspace/Development/my/DAVE/Infineon_CANopen/Libraries/XMCLib/inc\xmc_posif.h ****  * Stops POSIF \a peripheral functional state machine.\n
 576:D:/Workspace/Development/my/DAVE/Infineon_CANopen/Libraries/XMCLib/inc\xmc_posif.h ****  * Stop POSIF functional state machine and clears current internal status of the \a peripheral.
 577:D:/Workspace/Development/my/DAVE/Infineon_CANopen/Libraries/XMCLib/inc\xmc_posif.h ****  * Configures \a PRUNC register's \a CRB bit field with 1.
 578:D:/Workspace/Development/my/DAVE/Infineon_CANopen/Libraries/XMCLib/inc\xmc_posif.h ****  *
 579:D:/Workspace/Development/my/DAVE/Infineon_CANopen/Libraries/XMCLib/inc\xmc_posif.h ****  * \par<b>Related APIs:</b><BR>
 580:D:/Workspace/Development/my/DAVE/Infineon_CANopen/Libraries/XMCLib/inc\xmc_posif.h ****  * XMC_POSIF_Start(),XMC_POSIF_IsRunning() \n\n\n
 581:D:/Workspace/Development/my/DAVE/Infineon_CANopen/Libraries/XMCLib/inc\xmc_posif.h ****  */
 582:D:/Workspace/Development/my/DAVE/Infineon_CANopen/Libraries/XMCLib/inc\xmc_posif.h **** __STATIC_INLINE void XMC_POSIF_Stop(XMC_POSIF_t *const peripheral)
 583:D:/Workspace/Development/my/DAVE/Infineon_CANopen/Libraries/XMCLib/inc\xmc_posif.h **** {
  27              	 .loc 1 583 0
  28              	 .cfi_startproc
  29              	 
  30              	 
  31              	 
  32 0000 80B4     	 push {r7}
  33              	.LCFI0:
  34              	 .cfi_def_cfa_offset 4
  35              	 .cfi_offset 7,-4
  36 0002 83B0     	 sub sp,sp,#12
  37              	.LCFI1:
  38              	 .cfi_def_cfa_offset 16
  39 0004 00AF     	 add r7,sp,#0
  40              	.LCFI2:
  41              	 .cfi_def_cfa_register 7
  42 0006 7860     	 str r0,[r7,#4]
 584:D:/Workspace/Development/my/DAVE/Infineon_CANopen/Libraries/XMCLib/inc\xmc_posif.h ****   peripheral->PRUNC = (uint32_t)(POSIF_PRUNC_CRB_Msk | POSIF_PRUNC_CSM_Msk);
  43              	 .loc 1 584 0
  44 0008 7B68     	 ldr r3,[r7,#4]
  45 000a 0322     	 movs r2,#3
  46 000c DA60     	 str r2,[r3,#12]
 585:D:/Workspace/Development/my/DAVE/Infineon_CANopen/Libraries/XMCLib/inc\xmc_posif.h **** }
  47              	 .loc 1 585 0
  48 000e 0C37     	 adds r7,r7,#12
  49              	.LCFI3:
  50              	 .cfi_def_cfa_offset 4
  51 0010 BD46     	 mov sp,r7
  52              	.LCFI4:
  53              	 .cfi_def_cfa_register 13
  54              	 
  55 0012 5DF8047B 	 ldr r7,[sp],#4
  56              	.LCFI5:
  57              	 .cfi_restore 7
  58              	 .cfi_def_cfa_offset 0
  59 0016 7047     	 bx lr
  60              	 .cfi_endproc
  61              	.LFE176:
  63              	 .section .text.XMC_POSIF_Enable,"ax",%progbits
  64              	 .align 2
  65              	 .global XMC_POSIF_Enable
  66              	 .thumb
  67              	 .thumb_func
  69              	XMC_POSIF_Enable:
  70              	.LFB199:
  71              	 .file 2 "../Libraries/XMCLib/src/xmc_posif.c"
   1:../Libraries/XMCLib/src/xmc_posif.c **** /**
   2:../Libraries/XMCLib/src/xmc_posif.c ****  * @file xmc_posif.c
   3:../Libraries/XMCLib/src/xmc_posif.c ****  * @date 2019-12-16
   4:../Libraries/XMCLib/src/xmc_posif.c ****  *
   5:../Libraries/XMCLib/src/xmc_posif.c ****  * @cond
   6:../Libraries/XMCLib/src/xmc_posif.c ****  *****************************************************************************
   7:../Libraries/XMCLib/src/xmc_posif.c ****  * XMClib v2.2.0 - XMC Peripheral Driver Library
   8:../Libraries/XMCLib/src/xmc_posif.c ****  *
   9:../Libraries/XMCLib/src/xmc_posif.c ****  * Copyright (c) 2015-2020, Infineon Technologies AG
  10:../Libraries/XMCLib/src/xmc_posif.c ****  * All rights reserved.
  11:../Libraries/XMCLib/src/xmc_posif.c ****  *
  12:../Libraries/XMCLib/src/xmc_posif.c ****  * Boost Software License - Version 1.0 - August 17th, 2003
  13:../Libraries/XMCLib/src/xmc_posif.c ****  *
  14:../Libraries/XMCLib/src/xmc_posif.c ****  * Permission is hereby granted, free of charge, to any person or organization
  15:../Libraries/XMCLib/src/xmc_posif.c ****  * obtaining a copy of the software and accompanying documentation covered by
  16:../Libraries/XMCLib/src/xmc_posif.c ****  * this license (the "Software") to use, reproduce, display, distribute,
  17:../Libraries/XMCLib/src/xmc_posif.c ****  * execute, and transmit the Software, and to prepare derivative works of the
  18:../Libraries/XMCLib/src/xmc_posif.c ****  * Software, and to permit third-parties to whom the Software is furnished to
  19:../Libraries/XMCLib/src/xmc_posif.c ****  * do so, all subject to the following:
  20:../Libraries/XMCLib/src/xmc_posif.c ****  *
  21:../Libraries/XMCLib/src/xmc_posif.c ****  * The copyright notices in the Software and this entire statement, including
  22:../Libraries/XMCLib/src/xmc_posif.c ****  * the above license grant, this restriction and the following disclaimer,
  23:../Libraries/XMCLib/src/xmc_posif.c ****  * must be included in all copies of the Software, in whole or in part, and
  24:../Libraries/XMCLib/src/xmc_posif.c ****  * all derivative works of the Software, unless such copies or derivative
  25:../Libraries/XMCLib/src/xmc_posif.c ****  * works are solely in the form of machine-executable object code generated by
  26:../Libraries/XMCLib/src/xmc_posif.c ****  * a source language processor.
  27:../Libraries/XMCLib/src/xmc_posif.c ****  *
  28:../Libraries/XMCLib/src/xmc_posif.c ****  * THE SOFTWARE IS PROVIDED "AS IS", WITHOUT WARRANTY OF ANY KIND, EXPRESS OR
  29:../Libraries/XMCLib/src/xmc_posif.c ****  * IMPLIED, INCLUDING BUT NOT LIMITED TO THE WARRANTIES OF MERCHANTABILITY,
  30:../Libraries/XMCLib/src/xmc_posif.c ****  * FITNESS FOR A PARTICULAR PURPOSE, TITLE AND NON-INFRINGEMENT. IN NO EVENT
  31:../Libraries/XMCLib/src/xmc_posif.c ****  * SHALL THE COPYRIGHT HOLDERS OR ANYONE DISTRIBUTING THE SOFTWARE BE LIABLE
  32:../Libraries/XMCLib/src/xmc_posif.c ****  * FOR ANY DAMAGES OR OTHER LIABILITY, WHETHER IN CONTRACT, TORT OR OTHERWISE,
  33:../Libraries/XMCLib/src/xmc_posif.c ****  * ARISING FROM, OUT OF OR IN CONNECTION WITH THE SOFTWARE OR THE USE OR OTHER
  34:../Libraries/XMCLib/src/xmc_posif.c ****  * DEALINGS IN THE SOFTWARE.
  35:../Libraries/XMCLib/src/xmc_posif.c ****  *
  36:../Libraries/XMCLib/src/xmc_posif.c ****  * To improve the quality of the software, users are encouraged to share
  37:../Libraries/XMCLib/src/xmc_posif.c ****  * modifications, enhancements or bug fixes with Infineon Technologies AG
  38:../Libraries/XMCLib/src/xmc_posif.c ****  * at XMCSupport@infineon.com.
  39:../Libraries/XMCLib/src/xmc_posif.c ****  *****************************************************************************
  40:../Libraries/XMCLib/src/xmc_posif.c ****  *
  41:../Libraries/XMCLib/src/xmc_posif.c ****  * Change History
  42:../Libraries/XMCLib/src/xmc_posif.c ****  * --------------
  43:../Libraries/XMCLib/src/xmc_posif.c ****  *
  44:../Libraries/XMCLib/src/xmc_posif.c ****  * 2015-02-18:
  45:../Libraries/XMCLib/src/xmc_posif.c ****  *     - Initial version
  46:../Libraries/XMCLib/src/xmc_posif.c ****  *
  47:../Libraries/XMCLib/src/xmc_posif.c ****  * 2015-02-20:
  48:../Libraries/XMCLib/src/xmc_posif.c ****  *     - Driver description added <BR>
  49:../Libraries/XMCLib/src/xmc_posif.c ****  *
  50:../Libraries/XMCLib/src/xmc_posif.c ****  * 2015-04-30:
  51:../Libraries/XMCLib/src/xmc_posif.c ****  *     - XMC_POSIF_Enable and XMC_POSIF_Disable APIs updated for POSIF1 peripheral check <BR>
  52:../Libraries/XMCLib/src/xmc_posif.c ****  *
  53:../Libraries/XMCLib/src/xmc_posif.c ****  * 2015-06-19:
  54:../Libraries/XMCLib/src/xmc_posif.c ****  *     - Removed GetDriverVersion API <BR>
  55:../Libraries/XMCLib/src/xmc_posif.c ****  *
  56:../Libraries/XMCLib/src/xmc_posif.c ****  * 2017-02-25:
  57:../Libraries/XMCLib/src/xmc_posif.c ****  *     - XMC_POSIF_Enable() and XMC_POSIF_Disable() fixed compilation warnings
  58:../Libraries/XMCLib/src/xmc_posif.c ****  *
  59:../Libraries/XMCLib/src/xmc_posif.c ****  * 2019-12-16:
  60:../Libraries/XMCLib/src/xmc_posif.c ****  *     - Fix including files following the convention: angle brackets are used for standard include
  61:../Libraries/XMCLib/src/xmc_posif.c ****  *
  62:../Libraries/XMCLib/src/xmc_posif.c ****  * @endcond
  63:../Libraries/XMCLib/src/xmc_posif.c ****  *
  64:../Libraries/XMCLib/src/xmc_posif.c ****  */
  65:../Libraries/XMCLib/src/xmc_posif.c **** 
  66:../Libraries/XMCLib/src/xmc_posif.c **** /**************************************************************************************************
  67:../Libraries/XMCLib/src/xmc_posif.c ****  * HEADER FILES
  68:../Libraries/XMCLib/src/xmc_posif.c ****  **************************************************************************************************
  69:../Libraries/XMCLib/src/xmc_posif.c **** #include "xmc_posif.h"
  70:../Libraries/XMCLib/src/xmc_posif.c **** 
  71:../Libraries/XMCLib/src/xmc_posif.c **** /* POSIF is not available on XMC1100 and XMC1200 */
  72:../Libraries/XMCLib/src/xmc_posif.c **** #if defined(POSIF0)
  73:../Libraries/XMCLib/src/xmc_posif.c **** #include "xmc_scu.h"
  74:../Libraries/XMCLib/src/xmc_posif.c **** 
  75:../Libraries/XMCLib/src/xmc_posif.c **** /**************************************************************************************************
  76:../Libraries/XMCLib/src/xmc_posif.c ****  * MACROS
  77:../Libraries/XMCLib/src/xmc_posif.c ****  **************************************************************************************************
  78:../Libraries/XMCLib/src/xmc_posif.c **** #define XMC_POSIF_PCONF_INSEL_Msk        (0x3fUL << POSIF_PCONF_INSEL0_Pos) /*< Mask for input pins
  79:../Libraries/XMCLib/src/xmc_posif.c **** #define XMC_POSIF_INSEL_MAX              (4U) /*< Maximum possible input selector */
  80:../Libraries/XMCLib/src/xmc_posif.c **** 
  81:../Libraries/XMCLib/src/xmc_posif.c **** /**************************************************************************************************
  82:../Libraries/XMCLib/src/xmc_posif.c ****  * LOCAL ROUTINES
  83:../Libraries/XMCLib/src/xmc_posif.c ****  **************************************************************************************************
  84:../Libraries/XMCLib/src/xmc_posif.c **** #ifdef XMC_ASSERT_ENABLE
  85:../Libraries/XMCLib/src/xmc_posif.c **** __STATIC_INLINE bool XMC_POSIF_IsPeripheralValid(const XMC_POSIF_t *const peripheral)
  86:../Libraries/XMCLib/src/xmc_posif.c **** {
  87:../Libraries/XMCLib/src/xmc_posif.c ****   bool tmp;
  88:../Libraries/XMCLib/src/xmc_posif.c **** 
  89:../Libraries/XMCLib/src/xmc_posif.c ****   tmp = (peripheral == POSIF0);
  90:../Libraries/XMCLib/src/xmc_posif.c **** #if defined(POSIF1)
  91:../Libraries/XMCLib/src/xmc_posif.c ****   tmp |= (peripheral == POSIF1);
  92:../Libraries/XMCLib/src/xmc_posif.c **** #endif
  93:../Libraries/XMCLib/src/xmc_posif.c **** 
  94:../Libraries/XMCLib/src/xmc_posif.c ****   return tmp;
  95:../Libraries/XMCLib/src/xmc_posif.c **** }
  96:../Libraries/XMCLib/src/xmc_posif.c **** #endif
  97:../Libraries/XMCLib/src/xmc_posif.c **** /**************************************************************************************************
  98:../Libraries/XMCLib/src/xmc_posif.c ****  * API IMPLEMENTATION
  99:../Libraries/XMCLib/src/xmc_posif.c ****  **************************************************************************************************
 100:../Libraries/XMCLib/src/xmc_posif.c **** 
 101:../Libraries/XMCLib/src/xmc_posif.c **** /* API to enable the POSIF module */
 102:../Libraries/XMCLib/src/xmc_posif.c **** void XMC_POSIF_Enable(XMC_POSIF_t *const peripheral)
 103:../Libraries/XMCLib/src/xmc_posif.c **** {
  72              	 .loc 2 103 0
  73              	 .cfi_startproc
  74              	 
  75              	 
  76 0000 80B5     	 push {r7,lr}
  77              	.LCFI6:
  78              	 .cfi_def_cfa_offset 8
  79              	 .cfi_offset 7,-8
  80              	 .cfi_offset 14,-4
  81 0002 82B0     	 sub sp,sp,#8
  82              	.LCFI7:
  83              	 .cfi_def_cfa_offset 16
  84 0004 00AF     	 add r7,sp,#0
  85              	.LCFI8:
  86              	 .cfi_def_cfa_register 7
  87 0006 7860     	 str r0,[r7,#4]
 104:../Libraries/XMCLib/src/xmc_posif.c **** #if UC_FAMILY == XMC4
 105:../Libraries/XMCLib/src/xmc_posif.c ****   XMC_SCU_CLOCK_EnableClock(XMC_SCU_CLOCK_CCU);
  88              	 .loc 2 105 0
  89 0008 1020     	 movs r0,#16
  90 000a FFF7FEFF 	 bl XMC_SCU_CLOCK_EnableClock
 106:../Libraries/XMCLib/src/xmc_posif.c **** #endif
 107:../Libraries/XMCLib/src/xmc_posif.c **** 
 108:../Libraries/XMCLib/src/xmc_posif.c ****   if (peripheral == POSIF0)
  91              	 .loc 2 108 0
  92 000e 7B68     	 ldr r3,[r7,#4]
  93 0010 0D4A     	 ldr r2,.L5
  94 0012 9342     	 cmp r3,r2
  95 0014 08D1     	 bne .L3
 109:../Libraries/XMCLib/src/xmc_posif.c ****   {
 110:../Libraries/XMCLib/src/xmc_posif.c **** #if defined(CLOCK_GATING_SUPPORTED)
 111:../Libraries/XMCLib/src/xmc_posif.c ****     XMC_SCU_CLOCK_UngatePeripheralClock(XMC_SCU_PERIPHERAL_CLOCK_POSIF0);
  96              	 .loc 2 111 0
  97 0016 4FF40070 	 mov r0,#512
  98 001a FFF7FEFF 	 bl XMC_SCU_CLOCK_UngatePeripheralClock
 112:../Libraries/XMCLib/src/xmc_posif.c **** #endif
 113:../Libraries/XMCLib/src/xmc_posif.c **** #if defined(PERIPHERAL_RESET_SUPPORTED)
 114:../Libraries/XMCLib/src/xmc_posif.c ****     XMC_SCU_RESET_DeassertPeripheralReset(XMC_SCU_PERIPHERAL_RESET_POSIF0);
  99              	 .loc 2 114 0
 100 001e 4FF40070 	 mov r0,#512
 101 0022 FFF7FEFF 	 bl XMC_SCU_RESET_DeassertPeripheralReset
 102 0026 0BE0     	 b .L2
 103              	.L3:
 115:../Libraries/XMCLib/src/xmc_posif.c **** #endif
 116:../Libraries/XMCLib/src/xmc_posif.c ****   }
 117:../Libraries/XMCLib/src/xmc_posif.c **** #if defined(POSIF1)
 118:../Libraries/XMCLib/src/xmc_posif.c ****   else if (peripheral == POSIF1)
 104              	 .loc 2 118 0
 105 0028 7B68     	 ldr r3,[r7,#4]
 106 002a 084A     	 ldr r2,.L5+4
 107 002c 9342     	 cmp r3,r2
 108 002e 07D1     	 bne .L2
 119:../Libraries/XMCLib/src/xmc_posif.c ****   {
 120:../Libraries/XMCLib/src/xmc_posif.c **** #if defined(CLOCK_GATING_SUPPORTED)
 121:../Libraries/XMCLib/src/xmc_posif.c ****     XMC_SCU_CLOCK_UngatePeripheralClock(XMC_SCU_PERIPHERAL_CLOCK_POSIF1);
 109              	 .loc 2 121 0
 110 0030 4FF48060 	 mov r0,#1024
 111 0034 FFF7FEFF 	 bl XMC_SCU_CLOCK_UngatePeripheralClock
 122:../Libraries/XMCLib/src/xmc_posif.c **** #endif
 123:../Libraries/XMCLib/src/xmc_posif.c **** #if defined(PERIPHERAL_RESET_SUPPORTED)
 124:../Libraries/XMCLib/src/xmc_posif.c ****     XMC_SCU_RESET_DeassertPeripheralReset(XMC_SCU_PERIPHERAL_RESET_POSIF1);
 112              	 .loc 2 124 0
 113 0038 4FF48060 	 mov r0,#1024
 114 003c FFF7FEFF 	 bl XMC_SCU_RESET_DeassertPeripheralReset
 115              	.L2:
 125:../Libraries/XMCLib/src/xmc_posif.c **** #endif
 126:../Libraries/XMCLib/src/xmc_posif.c ****   }
 127:../Libraries/XMCLib/src/xmc_posif.c **** #endif
 128:../Libraries/XMCLib/src/xmc_posif.c ****   else
 129:../Libraries/XMCLib/src/xmc_posif.c ****   {
 130:../Libraries/XMCLib/src/xmc_posif.c ****     XMC_ASSERT("XMC_POSIF_Disable:Invalid module pointer", 0);
 131:../Libraries/XMCLib/src/xmc_posif.c ****   }
 132:../Libraries/XMCLib/src/xmc_posif.c **** }
 116              	 .loc 2 132 0
 117 0040 0837     	 adds r7,r7,#8
 118              	.LCFI9:
 119              	 .cfi_def_cfa_offset 8
 120 0042 BD46     	 mov sp,r7
 121              	.LCFI10:
 122              	 .cfi_def_cfa_register 13
 123              	 
 124 0044 80BD     	 pop {r7,pc}
 125              	.L6:
 126 0046 00BF     	 .align 2
 127              	.L5:
 128 0048 00800240 	 .word 1073905664
 129 004c 00C00240 	 .word 1073922048
 130              	 .cfi_endproc
 131              	.LFE199:
 133              	 .section .text.XMC_POSIF_Disable,"ax",%progbits
 134              	 .align 2
 135              	 .global XMC_POSIF_Disable
 136              	 .thumb
 137              	 .thumb_func
 139              	XMC_POSIF_Disable:
 140              	.LFB200:
 133:../Libraries/XMCLib/src/xmc_posif.c **** 
 134:../Libraries/XMCLib/src/xmc_posif.c **** /* API to disable the POSIF module */
 135:../Libraries/XMCLib/src/xmc_posif.c **** void XMC_POSIF_Disable(XMC_POSIF_t *const peripheral)
 136:../Libraries/XMCLib/src/xmc_posif.c **** {
 141              	 .loc 2 136 0
 142              	 .cfi_startproc
 143              	 
 144              	 
 145 0000 80B5     	 push {r7,lr}
 146              	.LCFI11:
 147              	 .cfi_def_cfa_offset 8
 148              	 .cfi_offset 7,-8
 149              	 .cfi_offset 14,-4
 150 0002 82B0     	 sub sp,sp,#8
 151              	.LCFI12:
 152              	 .cfi_def_cfa_offset 16
 153 0004 00AF     	 add r7,sp,#0
 154              	.LCFI13:
 155              	 .cfi_def_cfa_register 7
 156 0006 7860     	 str r0,[r7,#4]
 137:../Libraries/XMCLib/src/xmc_posif.c ****   if (peripheral == POSIF0)
 157              	 .loc 2 137 0
 158 0008 7B68     	 ldr r3,[r7,#4]
 159 000a 0D4A     	 ldr r2,.L10
 160 000c 9342     	 cmp r3,r2
 161 000e 08D1     	 bne .L8
 138:../Libraries/XMCLib/src/xmc_posif.c ****   {
 139:../Libraries/XMCLib/src/xmc_posif.c **** #if defined(PERIPHERAL_RESET_SUPPORTED)
 140:../Libraries/XMCLib/src/xmc_posif.c ****     XMC_SCU_RESET_AssertPeripheralReset(XMC_SCU_PERIPHERAL_RESET_POSIF0);
 162              	 .loc 2 140 0
 163 0010 4FF40070 	 mov r0,#512
 164 0014 FFF7FEFF 	 bl XMC_SCU_RESET_AssertPeripheralReset
 141:../Libraries/XMCLib/src/xmc_posif.c **** #endif
 142:../Libraries/XMCLib/src/xmc_posif.c **** #if defined(CLOCK_GATING_SUPPORTED)
 143:../Libraries/XMCLib/src/xmc_posif.c ****     XMC_SCU_CLOCK_GatePeripheralClock(XMC_SCU_PERIPHERAL_CLOCK_POSIF0);
 165              	 .loc 2 143 0
 166 0018 4FF40070 	 mov r0,#512
 167 001c FFF7FEFF 	 bl XMC_SCU_CLOCK_GatePeripheralClock
 168 0020 0BE0     	 b .L7
 169              	.L8:
 144:../Libraries/XMCLib/src/xmc_posif.c **** #endif
 145:../Libraries/XMCLib/src/xmc_posif.c ****   }
 146:../Libraries/XMCLib/src/xmc_posif.c **** #if defined(POSIF1)
 147:../Libraries/XMCLib/src/xmc_posif.c ****   else if (peripheral == POSIF1)
 170              	 .loc 2 147 0
 171 0022 7B68     	 ldr r3,[r7,#4]
 172 0024 074A     	 ldr r2,.L10+4
 173 0026 9342     	 cmp r3,r2
 174 0028 07D1     	 bne .L7
 148:../Libraries/XMCLib/src/xmc_posif.c ****   {
 149:../Libraries/XMCLib/src/xmc_posif.c **** #if defined(PERIPHERAL_RESET_SUPPORTED)
 150:../Libraries/XMCLib/src/xmc_posif.c ****     XMC_SCU_RESET_AssertPeripheralReset(XMC_SCU_PERIPHERAL_RESET_POSIF1);
 175              	 .loc 2 150 0
 176 002a 4FF48060 	 mov r0,#1024
 177 002e FFF7FEFF 	 bl XMC_SCU_RESET_AssertPeripheralReset
 151:../Libraries/XMCLib/src/xmc_posif.c **** #endif
 152:../Libraries/XMCLib/src/xmc_posif.c **** #if defined(CLOCK_GATING_SUPPORTED)
 153:../Libraries/XMCLib/src/xmc_posif.c ****     XMC_SCU_CLOCK_GatePeripheralClock(XMC_SCU_PERIPHERAL_CLOCK_POSIF1);
 178              	 .loc 2 153 0
 179 0032 4FF48060 	 mov r0,#1024
 180 0036 FFF7FEFF 	 bl XMC_SCU_CLOCK_GatePeripheralClock
 181              	.L7:
 154:../Libraries/XMCLib/src/xmc_posif.c **** #endif
 155:../Libraries/XMCLib/src/xmc_posif.c ****   }
 156:../Libraries/XMCLib/src/xmc_posif.c **** #endif
 157:../Libraries/XMCLib/src/xmc_posif.c ****   else
 158:../Libraries/XMCLib/src/xmc_posif.c ****   {
 159:../Libraries/XMCLib/src/xmc_posif.c ****     XMC_ASSERT("XMC_POSIF_Disable:Invalid module pointer", 0);
 160:../Libraries/XMCLib/src/xmc_posif.c ****   }
 161:../Libraries/XMCLib/src/xmc_posif.c **** }
 182              	 .loc 2 161 0
 183 003a 0837     	 adds r7,r7,#8
 184              	.LCFI14:
 185              	 .cfi_def_cfa_offset 8
 186 003c BD46     	 mov sp,r7
 187              	.LCFI15:
 188              	 .cfi_def_cfa_register 13
 189              	 
 190 003e 80BD     	 pop {r7,pc}
 191              	.L11:
 192              	 .align 2
 193              	.L10:
 194 0040 00800240 	 .word 1073905664
 195 0044 00C00240 	 .word 1073922048
 196              	 .cfi_endproc
 197              	.LFE200:
 199              	 .section .text.XMC_POSIF_Init,"ax",%progbits
 200              	 .align 2
 201              	 .global XMC_POSIF_Init
 202              	 .thumb
 203              	 .thumb_func
 205              	XMC_POSIF_Init:
 206              	.LFB201:
 162:../Libraries/XMCLib/src/xmc_posif.c **** 
 163:../Libraries/XMCLib/src/xmc_posif.c **** /* API to initialize POSIF global resources */
 164:../Libraries/XMCLib/src/xmc_posif.c **** void XMC_POSIF_Init(XMC_POSIF_t *const peripheral, const XMC_POSIF_CONFIG_t *const config)
 165:../Libraries/XMCLib/src/xmc_posif.c **** {
 207              	 .loc 2 165 0
 208              	 .cfi_startproc
 209              	 
 210              	 
 211 0000 80B5     	 push {r7,lr}
 212              	.LCFI16:
 213              	 .cfi_def_cfa_offset 8
 214              	 .cfi_offset 7,-8
 215              	 .cfi_offset 14,-4
 216 0002 82B0     	 sub sp,sp,#8
 217              	.LCFI17:
 218              	 .cfi_def_cfa_offset 16
 219 0004 00AF     	 add r7,sp,#0
 220              	.LCFI18:
 221              	 .cfi_def_cfa_register 7
 222 0006 7860     	 str r0,[r7,#4]
 223 0008 3960     	 str r1,[r7]
 166:../Libraries/XMCLib/src/xmc_posif.c ****   XMC_ASSERT("XMC_POSIF_Init:Invalid module pointer", XMC_POSIF_IsPeripheralValid(peripheral));
 167:../Libraries/XMCLib/src/xmc_posif.c ****   XMC_ASSERT("XMC_POSIF_Init:NULL Pointer", (config != (XMC_POSIF_CONFIG_t *)NULL) );
 168:../Libraries/XMCLib/src/xmc_posif.c **** 
 169:../Libraries/XMCLib/src/xmc_posif.c ****   /* Enable the POSIF module */
 170:../Libraries/XMCLib/src/xmc_posif.c ****   XMC_POSIF_Enable(peripheral);
 224              	 .loc 2 170 0
 225 000a 7868     	 ldr r0,[r7,#4]
 226 000c FFF7FEFF 	 bl XMC_POSIF_Enable
 171:../Libraries/XMCLib/src/xmc_posif.c **** 
 172:../Libraries/XMCLib/src/xmc_posif.c ****   /* Stop POSIF */
 173:../Libraries/XMCLib/src/xmc_posif.c ****   XMC_POSIF_Stop(peripheral);
 227              	 .loc 2 173 0
 228 0010 7868     	 ldr r0,[r7,#4]
 229 0012 FFF7FEFF 	 bl XMC_POSIF_Stop
 174:../Libraries/XMCLib/src/xmc_posif.c **** 
 175:../Libraries/XMCLib/src/xmc_posif.c ****   /* Program the operational mode, input selectors and debounce filter */
 176:../Libraries/XMCLib/src/xmc_posif.c ****   peripheral->PCONF = config->pconf;
 230              	 .loc 2 176 0
 231 0016 3B68     	 ldr r3,[r7]
 232 0018 1A68     	 ldr r2,[r3]
 233 001a 7B68     	 ldr r3,[r7,#4]
 234 001c 1A60     	 str r2,[r3]
 177:../Libraries/XMCLib/src/xmc_posif.c **** }
 235              	 .loc 2 177 0
 236 001e 0837     	 adds r7,r7,#8
 237              	.LCFI19:
 238              	 .cfi_def_cfa_offset 8
 239 0020 BD46     	 mov sp,r7
 240              	.LCFI20:
 241              	 .cfi_def_cfa_register 13
 242              	 
 243 0022 80BD     	 pop {r7,pc}
 244              	 .cfi_endproc
 245              	.LFE201:
 247              	 .section .text.XMC_POSIF_HSC_Init,"ax",%progbits
 248              	 .align 2
 249              	 .global XMC_POSIF_HSC_Init
 250              	 .thumb
 251              	 .thumb_func
 253              	XMC_POSIF_HSC_Init:
 254              	.LFB202:
 178:../Libraries/XMCLib/src/xmc_posif.c **** 
 179:../Libraries/XMCLib/src/xmc_posif.c **** /* API to initialize hall sensor interface */
 180:../Libraries/XMCLib/src/xmc_posif.c **** XMC_POSIF_STATUS_t XMC_POSIF_HSC_Init(XMC_POSIF_t *const peripheral, const XMC_POSIF_HSC_CONFIG_t *
 181:../Libraries/XMCLib/src/xmc_posif.c **** {
 255              	 .loc 2 181 0
 256              	 .cfi_startproc
 257              	 
 258              	 
 259              	 
 260 0000 80B4     	 push {r7}
 261              	.LCFI21:
 262              	 .cfi_def_cfa_offset 4
 263              	 .cfi_offset 7,-4
 264 0002 85B0     	 sub sp,sp,#20
 265              	.LCFI22:
 266              	 .cfi_def_cfa_offset 24
 267 0004 00AF     	 add r7,sp,#0
 268              	.LCFI23:
 269              	 .cfi_def_cfa_register 7
 270 0006 7860     	 str r0,[r7,#4]
 271 0008 3960     	 str r1,[r7]
 182:../Libraries/XMCLib/src/xmc_posif.c ****   XMC_POSIF_STATUS_t retval;
 183:../Libraries/XMCLib/src/xmc_posif.c **** 
 184:../Libraries/XMCLib/src/xmc_posif.c ****   XMC_ASSERT("XMC_POSIF_HSC_Init:Invalid module pointer\n", XMC_POSIF_IsPeripheralValid(peripheral)
 185:../Libraries/XMCLib/src/xmc_posif.c ****   XMC_ASSERT("XMC_POSIF_HSC_Init:NULL Pointer\n", (config != (XMC_POSIF_HSC_CONFIG_t *)NULL) );
 186:../Libraries/XMCLib/src/xmc_posif.c **** 
 187:../Libraries/XMCLib/src/xmc_posif.c ****   if (XMC_POSIF_MODE_HALL_SENSOR == (XMC_POSIF_MODE_t)((peripheral->PCONF) & (uint32_t)POSIF_PCONF_
 272              	 .loc 2 187 0
 273 000a 7B68     	 ldr r3,[r7,#4]
 274 000c 1B68     	 ldr r3,[r3]
 275 000e DBB2     	 uxtb r3,r3
 276 0010 03F00303 	 and r3,r3,#3
 277 0014 002B     	 cmp r3,#0
 278 0016 09D1     	 bne .L14
 188:../Libraries/XMCLib/src/xmc_posif.c ****   {
 189:../Libraries/XMCLib/src/xmc_posif.c ****     peripheral->PCONF |= config->hall_config;
 279              	 .loc 2 189 0
 280 0018 7B68     	 ldr r3,[r7,#4]
 281 001a 1A68     	 ldr r2,[r3]
 282 001c 3B68     	 ldr r3,[r7]
 283 001e 1B68     	 ldr r3,[r3]
 284 0020 1A43     	 orrs r2,r2,r3
 285 0022 7B68     	 ldr r3,[r7,#4]
 286 0024 1A60     	 str r2,[r3]
 190:../Libraries/XMCLib/src/xmc_posif.c ****     retval = XMC_POSIF_STATUS_OK;
 287              	 .loc 2 190 0
 288 0026 0023     	 movs r3,#0
 289 0028 FB73     	 strb r3,[r7,#15]
 290 002a 01E0     	 b .L15
 291              	.L14:
 191:../Libraries/XMCLib/src/xmc_posif.c ****   }
 192:../Libraries/XMCLib/src/xmc_posif.c ****   else
 193:../Libraries/XMCLib/src/xmc_posif.c ****   {
 194:../Libraries/XMCLib/src/xmc_posif.c ****     retval = XMC_POSIF_STATUS_ERROR;
 292              	 .loc 2 194 0
 293 002c 0123     	 movs r3,#1
 294 002e FB73     	 strb r3,[r7,#15]
 295              	.L15:
 195:../Libraries/XMCLib/src/xmc_posif.c ****   }
 196:../Libraries/XMCLib/src/xmc_posif.c ****   return retval;
 296              	 .loc 2 196 0
 297 0030 FB7B     	 ldrb r3,[r7,#15]
 197:../Libraries/XMCLib/src/xmc_posif.c **** }
 298              	 .loc 2 197 0
 299 0032 1846     	 mov r0,r3
 300 0034 1437     	 adds r7,r7,#20
 301              	.LCFI24:
 302              	 .cfi_def_cfa_offset 4
 303 0036 BD46     	 mov sp,r7
 304              	.LCFI25:
 305              	 .cfi_def_cfa_register 13
 306              	 
 307 0038 5DF8047B 	 ldr r7,[sp],#4
 308              	.LCFI26:
 309              	 .cfi_restore 7
 310              	 .cfi_def_cfa_offset 0
 311 003c 7047     	 bx lr
 312              	 .cfi_endproc
 313              	.LFE202:
 315 003e 00BF     	 .section .text.XMC_POSIF_QD_Init,"ax",%progbits
 316              	 .align 2
 317              	 .global XMC_POSIF_QD_Init
 318              	 .thumb
 319              	 .thumb_func
 321              	XMC_POSIF_QD_Init:
 322              	.LFB203:
 198:../Libraries/XMCLib/src/xmc_posif.c **** 
 199:../Libraries/XMCLib/src/xmc_posif.c **** /* API to initialize quadrature decoder interface */
 200:../Libraries/XMCLib/src/xmc_posif.c **** XMC_POSIF_STATUS_t XMC_POSIF_QD_Init(XMC_POSIF_t *const peripheral, const XMC_POSIF_QD_CONFIG_t *co
 201:../Libraries/XMCLib/src/xmc_posif.c **** {
 323              	 .loc 2 201 0
 324              	 .cfi_startproc
 325              	 
 326              	 
 327              	 
 328 0000 80B4     	 push {r7}
 329              	.LCFI27:
 330              	 .cfi_def_cfa_offset 4
 331              	 .cfi_offset 7,-4
 332 0002 85B0     	 sub sp,sp,#20
 333              	.LCFI28:
 334              	 .cfi_def_cfa_offset 24
 335 0004 00AF     	 add r7,sp,#0
 336              	.LCFI29:
 337              	 .cfi_def_cfa_register 7
 338 0006 7860     	 str r0,[r7,#4]
 339 0008 3960     	 str r1,[r7]
 202:../Libraries/XMCLib/src/xmc_posif.c ****   uint8_t reg;
 203:../Libraries/XMCLib/src/xmc_posif.c ****   XMC_POSIF_STATUS_t retval;
 204:../Libraries/XMCLib/src/xmc_posif.c **** 
 205:../Libraries/XMCLib/src/xmc_posif.c ****   XMC_ASSERT("XMC_POSIF_QD_Init:Invalid module pointer", XMC_POSIF_IsPeripheralValid(peripheral));
 206:../Libraries/XMCLib/src/xmc_posif.c ****   XMC_ASSERT("XMC_POSIF_QD_Init:NULL Pointer", (config != (XMC_POSIF_QD_CONFIG_t *)NULL) );
 207:../Libraries/XMCLib/src/xmc_posif.c **** 
 208:../Libraries/XMCLib/src/xmc_posif.c ****   reg = (uint8_t)((peripheral->PCONF) & (uint32_t)POSIF_PCONF_FSEL_Msk);
 340              	 .loc 2 208 0
 341 000a 7B68     	 ldr r3,[r7,#4]
 342 000c 1B68     	 ldr r3,[r3]
 343 000e DBB2     	 uxtb r3,r3
 344 0010 03F00303 	 and r3,r3,#3
 345 0014 BB73     	 strb r3,[r7,#14]
 209:../Libraries/XMCLib/src/xmc_posif.c ****   if (((uint32_t)XMC_POSIF_MODE_QD == reg) || ((uint32_t)XMC_POSIF_MODE_MCM_QD == reg))
 346              	 .loc 2 209 0
 347 0016 BB7B     	 ldrb r3,[r7,#14]
 348 0018 012B     	 cmp r3,#1
 349 001a 02D0     	 beq .L18
 350              	 .loc 2 209 0 is_stmt 0 discriminator 1
 351 001c BB7B     	 ldrb r3,[r7,#14]
 352 001e 032B     	 cmp r3,#3
 353 0020 0ED1     	 bne .L19
 354              	.L18:
 210:../Libraries/XMCLib/src/xmc_posif.c ****   {
 211:../Libraries/XMCLib/src/xmc_posif.c ****     /* Program the quadrature mode */
 212:../Libraries/XMCLib/src/xmc_posif.c ****     peripheral->PCONF |= (uint32_t)(config->mode) << POSIF_PCONF_QDCM_Pos;
 355              	 .loc 2 212 0 is_stmt 1
 356 0022 7B68     	 ldr r3,[r7,#4]
 357 0024 1A68     	 ldr r2,[r3]
 358 0026 3B68     	 ldr r3,[r7]
 359 0028 1B78     	 ldrb r3,[r3]
 360 002a 9B00     	 lsls r3,r3,#2
 361 002c 1A43     	 orrs r2,r2,r3
 362 002e 7B68     	 ldr r3,[r7,#4]
 363 0030 1A60     	 str r2,[r3]
 213:../Libraries/XMCLib/src/xmc_posif.c ****     peripheral->QDC = config->qdc;
 364              	 .loc 2 213 0
 365 0032 3B68     	 ldr r3,[r7]
 366 0034 5A68     	 ldr r2,[r3,#4]
 367 0036 7B68     	 ldr r3,[r7,#4]
 368 0038 1A66     	 str r2,[r3,#96]
 214:../Libraries/XMCLib/src/xmc_posif.c ****     retval = XMC_POSIF_STATUS_OK;
 369              	 .loc 2 214 0
 370 003a 0023     	 movs r3,#0
 371 003c FB73     	 strb r3,[r7,#15]
 372 003e 01E0     	 b .L20
 373              	.L19:
 215:../Libraries/XMCLib/src/xmc_posif.c ****   }
 216:../Libraries/XMCLib/src/xmc_posif.c ****   else
 217:../Libraries/XMCLib/src/xmc_posif.c ****   {
 218:../Libraries/XMCLib/src/xmc_posif.c ****     retval = XMC_POSIF_STATUS_ERROR;
 374              	 .loc 2 218 0
 375 0040 0123     	 movs r3,#1
 376 0042 FB73     	 strb r3,[r7,#15]
 377              	.L20:
 219:../Libraries/XMCLib/src/xmc_posif.c ****   }
 220:../Libraries/XMCLib/src/xmc_posif.c **** 
 221:../Libraries/XMCLib/src/xmc_posif.c ****   return retval;
 378              	 .loc 2 221 0
 379 0044 FB7B     	 ldrb r3,[r7,#15]
 222:../Libraries/XMCLib/src/xmc_posif.c **** }
 380              	 .loc 2 222 0
 381 0046 1846     	 mov r0,r3
 382 0048 1437     	 adds r7,r7,#20
 383              	.LCFI30:
 384              	 .cfi_def_cfa_offset 4
 385 004a BD46     	 mov sp,r7
 386              	.LCFI31:
 387              	 .cfi_def_cfa_register 13
 388              	 
 389 004c 5DF8047B 	 ldr r7,[sp],#4
 390              	.LCFI32:
 391              	 .cfi_restore 7
 392              	 .cfi_def_cfa_offset 0
 393 0050 7047     	 bx lr
 394              	 .cfi_endproc
 395              	.LFE203:
 397 0052 00BF     	 .section .text.XMC_POSIF_MCM_Init,"ax",%progbits
 398              	 .align 2
 399              	 .global XMC_POSIF_MCM_Init
 400              	 .thumb
 401              	 .thumb_func
 403              	XMC_POSIF_MCM_Init:
 404              	.LFB204:
 223:../Libraries/XMCLib/src/xmc_posif.c **** 
 224:../Libraries/XMCLib/src/xmc_posif.c **** /* API to initialize multi-channel mode.
 225:../Libraries/XMCLib/src/xmc_posif.c ****  * This is used in Hall mode, standalone multi-channel mode and quadrature with multi-channel mode
 226:../Libraries/XMCLib/src/xmc_posif.c ****  */
 227:../Libraries/XMCLib/src/xmc_posif.c **** XMC_POSIF_STATUS_t XMC_POSIF_MCM_Init(XMC_POSIF_t *const peripheral, const XMC_POSIF_MCM_CONFIG_t *
 228:../Libraries/XMCLib/src/xmc_posif.c **** {
 405              	 .loc 2 228 0
 406              	 .cfi_startproc
 407              	 
 408              	 
 409              	 
 410 0000 80B4     	 push {r7}
 411              	.LCFI33:
 412              	 .cfi_def_cfa_offset 4
 413              	 .cfi_offset 7,-4
 414 0002 85B0     	 sub sp,sp,#20
 415              	.LCFI34:
 416              	 .cfi_def_cfa_offset 24
 417 0004 00AF     	 add r7,sp,#0
 418              	.LCFI35:
 419              	 .cfi_def_cfa_register 7
 420 0006 7860     	 str r0,[r7,#4]
 421 0008 3960     	 str r1,[r7]
 229:../Libraries/XMCLib/src/xmc_posif.c ****   XMC_POSIF_STATUS_t retval;
 230:../Libraries/XMCLib/src/xmc_posif.c **** 
 231:../Libraries/XMCLib/src/xmc_posif.c ****   XMC_ASSERT("XMC_POSIF_MCM_Init:Invalid module pointer", XMC_POSIF_IsPeripheralValid(peripheral));
 232:../Libraries/XMCLib/src/xmc_posif.c ****   XMC_ASSERT("XMC_POSIF_MCM_Init:NULL Pointer", (config != (XMC_POSIF_MCM_CONFIG_t *)NULL) );
 233:../Libraries/XMCLib/src/xmc_posif.c **** 
 234:../Libraries/XMCLib/src/xmc_posif.c ****   if ((XMC_POSIF_MODE_t)((peripheral->PCONF) & (uint32_t)POSIF_PCONF_FSEL_Msk) != XMC_POSIF_MODE_QD
 422              	 .loc 2 234 0
 423 000a 7B68     	 ldr r3,[r7,#4]
 424 000c 1B68     	 ldr r3,[r3]
 425 000e DBB2     	 uxtb r3,r3
 426 0010 03F00303 	 and r3,r3,#3
 427 0014 012B     	 cmp r3,#1
 428 0016 09D0     	 beq .L23
 235:../Libraries/XMCLib/src/xmc_posif.c ****   {
 236:../Libraries/XMCLib/src/xmc_posif.c ****     peripheral->PCONF |= config->mcm_config;
 429              	 .loc 2 236 0
 430 0018 7B68     	 ldr r3,[r7,#4]
 431 001a 1A68     	 ldr r2,[r3]
 432 001c 3B68     	 ldr r3,[r7]
 433 001e 1B68     	 ldr r3,[r3]
 434 0020 1A43     	 orrs r2,r2,r3
 435 0022 7B68     	 ldr r3,[r7,#4]
 436 0024 1A60     	 str r2,[r3]
 237:../Libraries/XMCLib/src/xmc_posif.c ****     retval = XMC_POSIF_STATUS_OK;
 437              	 .loc 2 237 0
 438 0026 0023     	 movs r3,#0
 439 0028 FB73     	 strb r3,[r7,#15]
 440 002a 01E0     	 b .L24
 441              	.L23:
 238:../Libraries/XMCLib/src/xmc_posif.c ****   }
 239:../Libraries/XMCLib/src/xmc_posif.c ****   else
 240:../Libraries/XMCLib/src/xmc_posif.c ****   {
 241:../Libraries/XMCLib/src/xmc_posif.c ****     retval = XMC_POSIF_STATUS_ERROR;
 442              	 .loc 2 241 0
 443 002c 0123     	 movs r3,#1
 444 002e FB73     	 strb r3,[r7,#15]
 445              	.L24:
 242:../Libraries/XMCLib/src/xmc_posif.c ****   }
 243:../Libraries/XMCLib/src/xmc_posif.c ****   return retval;
 446              	 .loc 2 243 0
 447 0030 FB7B     	 ldrb r3,[r7,#15]
 244:../Libraries/XMCLib/src/xmc_posif.c **** }
 448              	 .loc 2 244 0
 449 0032 1846     	 mov r0,r3
 450 0034 1437     	 adds r7,r7,#20
 451              	.LCFI36:
 452              	 .cfi_def_cfa_offset 4
 453 0036 BD46     	 mov sp,r7
 454              	.LCFI37:
 455              	 .cfi_def_cfa_register 13
 456              	 
 457 0038 5DF8047B 	 ldr r7,[sp],#4
 458              	.LCFI38:
 459              	 .cfi_restore 7
 460              	 .cfi_def_cfa_offset 0
 461 003c 7047     	 bx lr
 462              	 .cfi_endproc
 463              	.LFE204:
 465 003e 00BF     	 .section .text.XMC_POSIF_SelectInputSource,"ax",%progbits
 466              	 .align 2
 467              	 .global XMC_POSIF_SelectInputSource
 468              	 .thumb
 469              	 .thumb_func
 471              	XMC_POSIF_SelectInputSource:
 472              	.LFB205:
 245:../Libraries/XMCLib/src/xmc_posif.c **** 
 246:../Libraries/XMCLib/src/xmc_posif.c **** /* API to configure input source */
 247:../Libraries/XMCLib/src/xmc_posif.c **** void XMC_POSIF_SelectInputSource (XMC_POSIF_t *const peripheral, const XMC_POSIF_INPUT_PORT_t input
 248:../Libraries/XMCLib/src/xmc_posif.c ****                                   const XMC_POSIF_INPUT_PORT_t input1, const XMC_POSIF_INPUT_PORT_t
 249:../Libraries/XMCLib/src/xmc_posif.c **** {
 473              	 .loc 2 249 0
 474              	 .cfi_startproc
 475              	 
 476              	 
 477              	 
 478 0000 80B4     	 push {r7}
 479              	.LCFI39:
 480              	 .cfi_def_cfa_offset 4
 481              	 .cfi_offset 7,-4
 482 0002 85B0     	 sub sp,sp,#20
 483              	.LCFI40:
 484              	 .cfi_def_cfa_offset 24
 485 0004 00AF     	 add r7,sp,#0
 486              	.LCFI41:
 487              	 .cfi_def_cfa_register 7
 488 0006 7860     	 str r0,[r7,#4]
 489 0008 0846     	 mov r0,r1
 490 000a 1146     	 mov r1,r2
 491 000c 1A46     	 mov r2,r3
 492 000e 0346     	 mov r3,r0
 493 0010 FB70     	 strb r3,[r7,#3]
 494 0012 0B46     	 mov r3,r1
 495 0014 BB70     	 strb r3,[r7,#2]
 496 0016 1346     	 mov r3,r2
 497 0018 7B70     	 strb r3,[r7,#1]
 250:../Libraries/XMCLib/src/xmc_posif.c ****   uint32_t reg;
 251:../Libraries/XMCLib/src/xmc_posif.c ****   XMC_ASSERT("XMC_POSIF_SelectInputSource:Invalid module pointer", XMC_POSIF_IsPeripheralValid(peri
 252:../Libraries/XMCLib/src/xmc_posif.c ****   XMC_ASSERT("XMC_POSIF_SelectInputSource:Wrong input port input0", (input0 < XMC_POSIF_INSEL_MAX))
 253:../Libraries/XMCLib/src/xmc_posif.c ****   XMC_ASSERT("XMC_POSIF_SelectInputSource:Wrong input port input1", (input1 < XMC_POSIF_INSEL_MAX))
 254:../Libraries/XMCLib/src/xmc_posif.c ****   XMC_ASSERT("XMC_POSIF_SelectInputSource:Wrong input port input2", (input2 < XMC_POSIF_INSEL_MAX))
 255:../Libraries/XMCLib/src/xmc_posif.c **** 
 256:../Libraries/XMCLib/src/xmc_posif.c ****   reg = (uint32_t)((((uint32_t)input0 << POSIF_PCONF_INSEL0_Pos) & (uint32_t)POSIF_PCONF_INSEL0_Msk
 498              	 .loc 2 256 0
 499 001a FB78     	 ldrb r3,[r7,#3]
 500 001c 1B02     	 lsls r3,r3,#8
 501 001e 03F44072 	 and r2,r3,#768
 257:../Libraries/XMCLib/src/xmc_posif.c ****                    (((uint32_t)input1 << POSIF_PCONF_INSEL1_Pos) & (uint32_t)POSIF_PCONF_INSEL1_Msk
 502              	 .loc 2 257 0
 503 0022 BB78     	 ldrb r3,[r7,#2]
 504 0024 9B02     	 lsls r3,r3,#10
 505 0026 03F44063 	 and r3,r3,#3072
 256:../Libraries/XMCLib/src/xmc_posif.c ****                    (((uint32_t)input1 << POSIF_PCONF_INSEL1_Pos) & (uint32_t)POSIF_PCONF_INSEL1_Msk
 506              	 .loc 2 256 0
 507 002a 1A43     	 orrs r2,r2,r3
 258:../Libraries/XMCLib/src/xmc_posif.c ****                    (((uint32_t)input2 << POSIF_PCONF_INSEL2_Pos) & (uint32_t)POSIF_PCONF_INSEL2_Msk
 508              	 .loc 2 258 0
 509 002c 7B78     	 ldrb r3,[r7,#1]
 510 002e 1B03     	 lsls r3,r3,#12
 511 0030 03F44053 	 and r3,r3,#12288
 256:../Libraries/XMCLib/src/xmc_posif.c ****                    (((uint32_t)input1 << POSIF_PCONF_INSEL1_Pos) & (uint32_t)POSIF_PCONF_INSEL1_Msk
 512              	 .loc 2 256 0
 513 0034 1343     	 orrs r3,r3,r2
 514 0036 FB60     	 str r3,[r7,#12]
 259:../Libraries/XMCLib/src/xmc_posif.c ****   peripheral->PCONF = ((peripheral->PCONF & ~(uint32_t)XMC_POSIF_PCONF_INSEL_Msk) | reg);
 515              	 .loc 2 259 0
 516 0038 7B68     	 ldr r3,[r7,#4]
 517 003a 1B68     	 ldr r3,[r3]
 518 003c 23F47C52 	 bic r2,r3,#16128
 519 0040 FB68     	 ldr r3,[r7,#12]
 520 0042 1A43     	 orrs r2,r2,r3
 521 0044 7B68     	 ldr r3,[r7,#4]
 522 0046 1A60     	 str r2,[r3]
 260:../Libraries/XMCLib/src/xmc_posif.c **** }
 523              	 .loc 2 260 0
 524 0048 1437     	 adds r7,r7,#20
 525              	.LCFI42:
 526              	 .cfi_def_cfa_offset 4
 527 004a BD46     	 mov sp,r7
 528              	.LCFI43:
 529              	 .cfi_def_cfa_register 13
 530              	 
 531 004c 5DF8047B 	 ldr r7,[sp],#4
 532              	.LCFI44:
 533              	 .cfi_restore 7
 534              	 .cfi_def_cfa_offset 0
 535 0050 7047     	 bx lr
 536              	 .cfi_endproc
 537              	.LFE205:
 539 0052 00BF     	 .section .text.XMC_POSIF_SetInterruptNode,"ax",%progbits
 540              	 .align 2
 541              	 .global XMC_POSIF_SetInterruptNode
 542              	 .thumb
 543              	 .thumb_func
 545              	XMC_POSIF_SetInterruptNode:
 546              	.LFB206:
 261:../Libraries/XMCLib/src/xmc_posif.c **** 
 262:../Libraries/XMCLib/src/xmc_posif.c **** /* API to select an interrupt node */
 263:../Libraries/XMCLib/src/xmc_posif.c **** void XMC_POSIF_SetInterruptNode(XMC_POSIF_t *const peripheral, const XMC_POSIF_IRQ_EVENT_t event, c
 264:../Libraries/XMCLib/src/xmc_posif.c **** {
 547              	 .loc 2 264 0
 548              	 .cfi_startproc
 549              	 
 550              	 
 551              	 
 552 0000 80B4     	 push {r7}
 553              	.LCFI45:
 554              	 .cfi_def_cfa_offset 4
 555              	 .cfi_offset 7,-4
 556 0002 85B0     	 sub sp,sp,#20
 557              	.LCFI46:
 558              	 .cfi_def_cfa_offset 24
 559 0004 00AF     	 add r7,sp,#0
 560              	.LCFI47:
 561              	 .cfi_def_cfa_register 7
 562 0006 7860     	 str r0,[r7,#4]
 563 0008 0B46     	 mov r3,r1
 564 000a FB70     	 strb r3,[r7,#3]
 565 000c 1346     	 mov r3,r2
 566 000e BB70     	 strb r3,[r7,#2]
 265:../Libraries/XMCLib/src/xmc_posif.c ****   uint32_t reg;
 266:../Libraries/XMCLib/src/xmc_posif.c **** 
 267:../Libraries/XMCLib/src/xmc_posif.c ****   XMC_ASSERT("XMC_POSIF_SetInterruptNode:Invalid module pointer", XMC_POSIF_IsPeripheralValid(perip
 268:../Libraries/XMCLib/src/xmc_posif.c ****   XMC_ASSERT("XMC_POSIF_SetInterruptNode:Wrong IRQ event", (event <= XMC_POSIF_IRQ_EVENT_PCLK) );
 269:../Libraries/XMCLib/src/xmc_posif.c ****   XMC_ASSERT("XMC_POSIF_SetInterruptNode:Wrong SR ID", (sr <= XMC_POSIF_SR_ID_1) );
 270:../Libraries/XMCLib/src/xmc_posif.c **** 
 271:../Libraries/XMCLib/src/xmc_posif.c ****   reg = peripheral->PFLGE;
 567              	 .loc 2 271 0
 568 0010 7B68     	 ldr r3,[r7,#4]
 569 0012 5B6F     	 ldr r3,[r3,#116]
 570 0014 FB60     	 str r3,[r7,#12]
 272:../Libraries/XMCLib/src/xmc_posif.c ****   reg &= ~((uint32_t)1 << ((uint32_t)event + (uint32_t)POSIF_PFLGE_CHESEL_Pos));
 571              	 .loc 2 272 0
 572 0016 FB78     	 ldrb r3,[r7,#3]
 573 0018 1033     	 adds r3,r3,#16
 574 001a 1A46     	 mov r2,r3
 575 001c 0123     	 movs r3,#1
 576 001e 9340     	 lsls r3,r3,r2
 577 0020 DB43     	 mvns r3,r3
 578 0022 FA68     	 ldr r2,[r7,#12]
 579 0024 1340     	 ands r3,r3,r2
 580 0026 FB60     	 str r3,[r7,#12]
 273:../Libraries/XMCLib/src/xmc_posif.c ****   reg |= (uint32_t)sr << ((uint32_t)event + (uint32_t)POSIF_PFLGE_CHESEL_Pos);
 581              	 .loc 2 273 0
 582 0028 BB78     	 ldrb r3,[r7,#2]
 583 002a FA78     	 ldrb r2,[r7,#3]
 584 002c 1032     	 adds r2,r2,#16
 585 002e 9340     	 lsls r3,r3,r2
 586 0030 FA68     	 ldr r2,[r7,#12]
 587 0032 1343     	 orrs r3,r3,r2
 588 0034 FB60     	 str r3,[r7,#12]
 274:../Libraries/XMCLib/src/xmc_posif.c ****   peripheral->PFLGE = reg;
 589              	 .loc 2 274 0
 590 0036 7B68     	 ldr r3,[r7,#4]
 591 0038 FA68     	 ldr r2,[r7,#12]
 592 003a 5A67     	 str r2,[r3,#116]
 275:../Libraries/XMCLib/src/xmc_posif.c **** }
 593              	 .loc 2 275 0
 594 003c 1437     	 adds r7,r7,#20
 595              	.LCFI48:
 596              	 .cfi_def_cfa_offset 4
 597 003e BD46     	 mov sp,r7
 598              	.LCFI49:
 599              	 .cfi_def_cfa_register 13
 600              	 
 601 0040 5DF8047B 	 ldr r7,[sp],#4
 602              	.LCFI50:
 603              	 .cfi_restore 7
 604              	 .cfi_def_cfa_offset 0
 605 0044 7047     	 bx lr
 606              	 .cfi_endproc
 607              	.LFE206:
 609 0046 00BF     	 .text
 610              	.Letext0:
 611              	 .file 3 "d:\\programs\\infineon\\tools\\dave ide\\4.5.0.202105191637\\eclipse\\arm-gcc-49\\arm-none-eabi\\include\\machine\\_default_types.h"
 612              	 .file 4 "d:\\programs\\infineon\\tools\\dave ide\\4.5.0.202105191637\\eclipse\\arm-gcc-49\\arm-none-eabi\\include\\stdint.h"
 613              	 .file 5 "D:/Workspace/Development/my/DAVE/Infineon_CANopen/Libraries/CMSIS/Infineon/XMC4800_series/Include/XMC4800.h"
 614              	 .file 6 "D:/Workspace/Development/my/DAVE/Infineon_CANopen/Libraries/XMCLib/inc/xmc4_scu.h"
 615              	 .file 7 "D:/Workspace/Development/my/DAVE/Infineon_CANopen/Libraries/CMSIS/Include/cmsis_gcc.h"
 616              	 .file 8 "D:/Workspace/Development/my/DAVE/Infineon_CANopen/Libraries/CMSIS/Include/core_cm4.h"
 617              	 .file 9 "D:/Workspace/Development/my/DAVE/Infineon_CANopen/Libraries/CMSIS/Infineon/XMC4800_series/Include/system_XMC4800.h"