   1              	 .syntax unified
   2              	 .cpu cortex-m4
   3              	 .eabi_attribute 27,3
   4              	 .fpu fpv4-sp-d16
   5              	 .eabi_attribute 20,1
   6              	 .eabi_attribute 21,1
   7              	 .eabi_attribute 23,3
   8              	 .eabi_attribute 24,1
   9              	 .eabi_attribute 25,1
  10              	 .eabi_attribute 26,1
  11              	 .eabi_attribute 30,6
  12              	 .eabi_attribute 34,1
  13              	 .eabi_attribute 18,4
  14              	 .thumb
  15              	 .file "xmc_can.c"
  16              	 .text
  17              	.Ltext0:
  18              	 .cfi_sections .debug_frame
  19              	 .section .text.XMC_CAN_IsPanelControlReady,"ax",%progbits
  20              	 .align 2
  21              	 .thumb
  22              	 .thumb_func
  24              	XMC_CAN_IsPanelControlReady:
  25              	.LFB174:
  26              	 .file 1 "D:/Workspace/Development/my/DAVE/Infineon_CANopen/Libraries/XMCLib/inc/xmc_can.h"
   1:D:/Workspace/Development/my/DAVE/Infineon_CANopen/Libraries/XMCLib/inc\xmc_can.h **** /**
   2:D:/Workspace/Development/my/DAVE/Infineon_CANopen/Libraries/XMCLib/inc\xmc_can.h ****  * @file xmc_can.h
   3:D:/Workspace/Development/my/DAVE/Infineon_CANopen/Libraries/XMCLib/inc\xmc_can.h ****  * @date 2019-07-02
   4:D:/Workspace/Development/my/DAVE/Infineon_CANopen/Libraries/XMCLib/inc\xmc_can.h ****  *
   5:D:/Workspace/Development/my/DAVE/Infineon_CANopen/Libraries/XMCLib/inc\xmc_can.h ****  * @cond
   6:D:/Workspace/Development/my/DAVE/Infineon_CANopen/Libraries/XMCLib/inc\xmc_can.h ****  *****************************************************************************
   7:D:/Workspace/Development/my/DAVE/Infineon_CANopen/Libraries/XMCLib/inc\xmc_can.h ****  * XMClib v2.2.0 - XMC Peripheral Driver Library
   8:D:/Workspace/Development/my/DAVE/Infineon_CANopen/Libraries/XMCLib/inc\xmc_can.h ****  *
   9:D:/Workspace/Development/my/DAVE/Infineon_CANopen/Libraries/XMCLib/inc\xmc_can.h ****  * Copyright (c) 2015-2020, Infineon Technologies AG
  10:D:/Workspace/Development/my/DAVE/Infineon_CANopen/Libraries/XMCLib/inc\xmc_can.h ****  * All rights reserved.
  11:D:/Workspace/Development/my/DAVE/Infineon_CANopen/Libraries/XMCLib/inc\xmc_can.h ****  *
  12:D:/Workspace/Development/my/DAVE/Infineon_CANopen/Libraries/XMCLib/inc\xmc_can.h ****  * Boost Software License - Version 1.0 - August 17th, 2003
  13:D:/Workspace/Development/my/DAVE/Infineon_CANopen/Libraries/XMCLib/inc\xmc_can.h ****  *
  14:D:/Workspace/Development/my/DAVE/Infineon_CANopen/Libraries/XMCLib/inc\xmc_can.h ****  * Permission is hereby granted, free of charge, to any person or organization
  15:D:/Workspace/Development/my/DAVE/Infineon_CANopen/Libraries/XMCLib/inc\xmc_can.h ****  * obtaining a copy of the software and accompanying documentation covered by
  16:D:/Workspace/Development/my/DAVE/Infineon_CANopen/Libraries/XMCLib/inc\xmc_can.h ****  * this license (the "Software") to use, reproduce, display, distribute,
  17:D:/Workspace/Development/my/DAVE/Infineon_CANopen/Libraries/XMCLib/inc\xmc_can.h ****  * execute, and transmit the Software, and to prepare derivative works of the
  18:D:/Workspace/Development/my/DAVE/Infineon_CANopen/Libraries/XMCLib/inc\xmc_can.h ****  * Software, and to permit third-parties to whom the Software is furnished to
  19:D:/Workspace/Development/my/DAVE/Infineon_CANopen/Libraries/XMCLib/inc\xmc_can.h ****  * do so, all subject to the following:
  20:D:/Workspace/Development/my/DAVE/Infineon_CANopen/Libraries/XMCLib/inc\xmc_can.h ****  *
  21:D:/Workspace/Development/my/DAVE/Infineon_CANopen/Libraries/XMCLib/inc\xmc_can.h ****  * The copyright notices in the Software and this entire statement, including
  22:D:/Workspace/Development/my/DAVE/Infineon_CANopen/Libraries/XMCLib/inc\xmc_can.h ****  * the above license grant, this restriction and the following disclaimer,
  23:D:/Workspace/Development/my/DAVE/Infineon_CANopen/Libraries/XMCLib/inc\xmc_can.h ****  * must be included in all copies of the Software, in whole or in part, and
  24:D:/Workspace/Development/my/DAVE/Infineon_CANopen/Libraries/XMCLib/inc\xmc_can.h ****  * all derivative works of the Software, unless such copies or derivative
  25:D:/Workspace/Development/my/DAVE/Infineon_CANopen/Libraries/XMCLib/inc\xmc_can.h ****  * works are solely in the form of machine-executable object code generated by
  26:D:/Workspace/Development/my/DAVE/Infineon_CANopen/Libraries/XMCLib/inc\xmc_can.h ****  * a source language processor.
  27:D:/Workspace/Development/my/DAVE/Infineon_CANopen/Libraries/XMCLib/inc\xmc_can.h ****  *
  28:D:/Workspace/Development/my/DAVE/Infineon_CANopen/Libraries/XMCLib/inc\xmc_can.h ****  * THE SOFTWARE IS PROVIDED "AS IS", WITHOUT WARRANTY OF ANY KIND, EXPRESS OR
  29:D:/Workspace/Development/my/DAVE/Infineon_CANopen/Libraries/XMCLib/inc\xmc_can.h ****  * IMPLIED, INCLUDING BUT NOT LIMITED TO THE WARRANTIES OF MERCHANTABILITY,
  30:D:/Workspace/Development/my/DAVE/Infineon_CANopen/Libraries/XMCLib/inc\xmc_can.h ****  * FITNESS FOR A PARTICULAR PURPOSE, TITLE AND NON-INFRINGEMENT. IN NO EVENT
  31:D:/Workspace/Development/my/DAVE/Infineon_CANopen/Libraries/XMCLib/inc\xmc_can.h ****  * SHALL THE COPYRIGHT HOLDERS OR ANYONE DISTRIBUTING THE SOFTWARE BE LIABLE
  32:D:/Workspace/Development/my/DAVE/Infineon_CANopen/Libraries/XMCLib/inc\xmc_can.h ****  * FOR ANY DAMAGES OR OTHER LIABILITY, WHETHER IN CONTRACT, TORT OR OTHERWISE,
  33:D:/Workspace/Development/my/DAVE/Infineon_CANopen/Libraries/XMCLib/inc\xmc_can.h ****  * ARISING FROM, OUT OF OR IN CONNECTION WITH THE SOFTWARE OR THE USE OR OTHER
  34:D:/Workspace/Development/my/DAVE/Infineon_CANopen/Libraries/XMCLib/inc\xmc_can.h ****  * DEALINGS IN THE SOFTWARE.
  35:D:/Workspace/Development/my/DAVE/Infineon_CANopen/Libraries/XMCLib/inc\xmc_can.h ****  *
  36:D:/Workspace/Development/my/DAVE/Infineon_CANopen/Libraries/XMCLib/inc\xmc_can.h ****  * To improve the quality of the software, users are encouraged to share
  37:D:/Workspace/Development/my/DAVE/Infineon_CANopen/Libraries/XMCLib/inc\xmc_can.h ****  * modifications, enhancements or bug fixes with Infineon Technologies AG
  38:D:/Workspace/Development/my/DAVE/Infineon_CANopen/Libraries/XMCLib/inc\xmc_can.h ****  * at XMCSupport@infineon.com.
  39:D:/Workspace/Development/my/DAVE/Infineon_CANopen/Libraries/XMCLib/inc\xmc_can.h ****  *****************************************************************************
  40:D:/Workspace/Development/my/DAVE/Infineon_CANopen/Libraries/XMCLib/inc\xmc_can.h ****  *
  41:D:/Workspace/Development/my/DAVE/Infineon_CANopen/Libraries/XMCLib/inc\xmc_can.h ****  * Change History
  42:D:/Workspace/Development/my/DAVE/Infineon_CANopen/Libraries/XMCLib/inc\xmc_can.h ****  * --------------
  43:D:/Workspace/Development/my/DAVE/Infineon_CANopen/Libraries/XMCLib/inc\xmc_can.h ****  *
  44:D:/Workspace/Development/my/DAVE/Infineon_CANopen/Libraries/XMCLib/inc\xmc_can.h ****  * 2015-02-20:
  45:D:/Workspace/Development/my/DAVE/Infineon_CANopen/Libraries/XMCLib/inc\xmc_can.h ****  *     - Initial <br>
  46:D:/Workspace/Development/my/DAVE/Infineon_CANopen/Libraries/XMCLib/inc\xmc_can.h ****  *     - Documentation improved <br>
  47:D:/Workspace/Development/my/DAVE/Infineon_CANopen/Libraries/XMCLib/inc\xmc_can.h ****  *
  48:D:/Workspace/Development/my/DAVE/Infineon_CANopen/Libraries/XMCLib/inc\xmc_can.h ****  * 2015-05-20:
  49:D:/Workspace/Development/my/DAVE/Infineon_CANopen/Libraries/XMCLib/inc\xmc_can.h ****  *     - New elements have added in XMC_CAN_MO_t data structure <br>
  50:D:/Workspace/Development/my/DAVE/Infineon_CANopen/Libraries/XMCLib/inc\xmc_can.h ****  *     - XMC_CAN_MO_Config() signature has changed <br>
  51:D:/Workspace/Development/my/DAVE/Infineon_CANopen/Libraries/XMCLib/inc\xmc_can.h ****  *     - XMC_CAN_STATUS_t enum structure has updated. <br>
  52:D:/Workspace/Development/my/DAVE/Infineon_CANopen/Libraries/XMCLib/inc\xmc_can.h ****  *
  53:D:/Workspace/Development/my/DAVE/Infineon_CANopen/Libraries/XMCLib/inc\xmc_can.h ****  * 2015-06-20:
  54:D:/Workspace/Development/my/DAVE/Infineon_CANopen/Libraries/XMCLib/inc\xmc_can.h ****  *     - New APIs added: XMC_CAN_NODE_ClearStatus(),XMC_CAN_MO_ReceiveData(), XMC_CAN_GATEWAY_InitD
  55:D:/Workspace/Development/my/DAVE/Infineon_CANopen/Libraries/XMCLib/inc\xmc_can.h ****  *     - Removed version macros and declaration of GetDriverVersion API
  56:D:/Workspace/Development/my/DAVE/Infineon_CANopen/Libraries/XMCLib/inc\xmc_can.h ****  *
  57:D:/Workspace/Development/my/DAVE/Infineon_CANopen/Libraries/XMCLib/inc\xmc_can.h ****  * 2015-07-09:
  58:D:/Workspace/Development/my/DAVE/Infineon_CANopen/Libraries/XMCLib/inc\xmc_can.h ****  *     - New API added: XMC_CAN_NODE_Enable. <br>
  59:D:/Workspace/Development/my/DAVE/Infineon_CANopen/Libraries/XMCLib/inc\xmc_can.h ****  *
  60:D:/Workspace/Development/my/DAVE/Infineon_CANopen/Libraries/XMCLib/inc\xmc_can.h ****  * 2015-09-01:
  61:D:/Workspace/Development/my/DAVE/Infineon_CANopen/Libraries/XMCLib/inc\xmc_can.h ****  *     - Removed fCANB clock support <br>
  62:D:/Workspace/Development/my/DAVE/Infineon_CANopen/Libraries/XMCLib/inc\xmc_can.h ****  *
  63:D:/Workspace/Development/my/DAVE/Infineon_CANopen/Libraries/XMCLib/inc\xmc_can.h ****  * 2015-09-15:
  64:D:/Workspace/Development/my/DAVE/Infineon_CANopen/Libraries/XMCLib/inc\xmc_can.h ****  *     - Added "xmc_can_map.h" include <br>
  65:D:/Workspace/Development/my/DAVE/Infineon_CANopen/Libraries/XMCLib/inc\xmc_can.h ****  *
  66:D:/Workspace/Development/my/DAVE/Infineon_CANopen/Libraries/XMCLib/inc\xmc_can.h ****  * 2016-06-07:
  67:D:/Workspace/Development/my/DAVE/Infineon_CANopen/Libraries/XMCLib/inc\xmc_can.h ****  *     - Added XMC_CAN_IsPanelControlReady()
  68:D:/Workspace/Development/my/DAVE/Infineon_CANopen/Libraries/XMCLib/inc\xmc_can.h ****  *
  69:D:/Workspace/Development/my/DAVE/Infineon_CANopen/Libraries/XMCLib/inc\xmc_can.h ****  * 2017-11-09:
  70:D:/Workspace/Development/my/DAVE/Infineon_CANopen/Libraries/XMCLib/inc\xmc_can.h ****  *     - Added XMC_CAN_InitEx() and XMC_CAN_NODE_NominalBitTimeConfigureEx()
  71:D:/Workspace/Development/my/DAVE/Infineon_CANopen/Libraries/XMCLib/inc\xmc_can.h ****  *     - Make XMC_CAN_GetBaudrateClockSource(), XMC_CAN_SetBaudrateClockSource() and XMC_CAN_GetBau
  72:D:/Workspace/Development/my/DAVE/Infineon_CANopen/Libraries/XMCLib/inc\xmc_can.h ****  *
  73:D:/Workspace/Development/my/DAVE/Infineon_CANopen/Libraries/XMCLib/inc\xmc_can.h ****  * 2019-07-02:
  74:D:/Workspace/Development/my/DAVE/Infineon_CANopen/Libraries/XMCLib/inc\xmc_can.h ****  *     - Added XMC_CAN_GetClockFrequency()
  75:D:/Workspace/Development/my/DAVE/Infineon_CANopen/Libraries/XMCLib/inc\xmc_can.h ****  *     - Added XMC_CAN_IsListEmpty(), XMC_CAN_GetListBegin(), XMC_CAN_GetListSize(), XMC_CAN_MO_Get
  76:D:/Workspace/Development/my/DAVE/Infineon_CANopen/Libraries/XMCLib/inc\xmc_can.h ****  *
  77:D:/Workspace/Development/my/DAVE/Infineon_CANopen/Libraries/XMCLib/inc\xmc_can.h ****  * <b>Details of use for node configuration related APIs</b><br>
  78:D:/Workspace/Development/my/DAVE/Infineon_CANopen/Libraries/XMCLib/inc\xmc_can.h ****  * Please use the XMC_CAN_NODE_SetInitBit() and XMC_CAN_NODE_EnableConfigurationChange() before cal
  79:D:/Workspace/Development/my/DAVE/Infineon_CANopen/Libraries/XMCLib/inc\xmc_can.h ****  * related APIs.
  80:D:/Workspace/Development/my/DAVE/Infineon_CANopen/Libraries/XMCLib/inc\xmc_can.h ****  * XMC_CAN_NODE_DisableConfigurationChange() and  XMC_CAN_NODE_ResetInitBit() can be called for dis
  81:D:/Workspace/Development/my/DAVE/Infineon_CANopen/Libraries/XMCLib/inc\xmc_can.h ****  * change and enable the node for communication afterwards.
  82:D:/Workspace/Development/my/DAVE/Infineon_CANopen/Libraries/XMCLib/inc\xmc_can.h ****  * Do not use this when configuring the nominal bit time with XMC_CAN_NODE_NominalBitTimeConfigure(
  83:D:/Workspace/Development/my/DAVE/Infineon_CANopen/Libraries/XMCLib/inc\xmc_can.h ****  * Enable/Disable node configuration change is taken in account.
  84:D:/Workspace/Development/my/DAVE/Infineon_CANopen/Libraries/XMCLib/inc\xmc_can.h ****  *
  85:D:/Workspace/Development/my/DAVE/Infineon_CANopen/Libraries/XMCLib/inc\xmc_can.h ****  * <b>Example Usage:</b>
  86:D:/Workspace/Development/my/DAVE/Infineon_CANopen/Libraries/XMCLib/inc\xmc_can.h ****  * @code
  87:D:/Workspace/Development/my/DAVE/Infineon_CANopen/Libraries/XMCLib/inc\xmc_can.h ****  * //disabling the Node
  88:D:/Workspace/Development/my/DAVE/Infineon_CANopen/Libraries/XMCLib/inc\xmc_can.h ****  * XMC_CAN_NODE_SetInitBit(CAN_NODE0)
  89:D:/Workspace/Development/my/DAVE/Infineon_CANopen/Libraries/XMCLib/inc\xmc_can.h ****  * //allowing the configuration change
  90:D:/Workspace/Development/my/DAVE/Infineon_CANopen/Libraries/XMCLib/inc\xmc_can.h ****  * XMC_CAN_NODE_EnableConfigurationChange(CAN_NODE0)
  91:D:/Workspace/Development/my/DAVE/Infineon_CANopen/Libraries/XMCLib/inc\xmc_can.h ****  * //Node configuration
  92:D:/Workspace/Development/my/DAVE/Infineon_CANopen/Libraries/XMCLib/inc\xmc_can.h ****  * XMC_CAN_NODE_FrameCounterConfigure(CAN_NODE0,&can_node_frame_counter);
  93:D:/Workspace/Development/my/DAVE/Infineon_CANopen/Libraries/XMCLib/inc\xmc_can.h ****  * XMC_CAN_NODE_EnableLoopBack(CAN_NODE0)
  94:D:/Workspace/Development/my/DAVE/Infineon_CANopen/Libraries/XMCLib/inc\xmc_can.h ****  * //disable configuration
  95:D:/Workspace/Development/my/DAVE/Infineon_CANopen/Libraries/XMCLib/inc\xmc_can.h ****  * XMC_CAN_NODE_DisableConfigurationChange(CAN_NODE0)
  96:D:/Workspace/Development/my/DAVE/Infineon_CANopen/Libraries/XMCLib/inc\xmc_can.h ****  * //Enabling node for communication
  97:D:/Workspace/Development/my/DAVE/Infineon_CANopen/Libraries/XMCLib/inc\xmc_can.h ****  * XMC_CAN_NODE_ResetInitBit(CAN_NODE0)
  98:D:/Workspace/Development/my/DAVE/Infineon_CANopen/Libraries/XMCLib/inc\xmc_can.h ****  * @endcode
  99:D:/Workspace/Development/my/DAVE/Infineon_CANopen/Libraries/XMCLib/inc\xmc_can.h ****  *
 100:D:/Workspace/Development/my/DAVE/Infineon_CANopen/Libraries/XMCLib/inc\xmc_can.h ****  * 2016-06-20:
 101:D:/Workspace/Development/my/DAVE/Infineon_CANopen/Libraries/XMCLib/inc\xmc_can.h ****  *     - Fixed bug in XMC_CAN_MO_Config() <br>
 102:D:/Workspace/Development/my/DAVE/Infineon_CANopen/Libraries/XMCLib/inc\xmc_can.h ****  * @endcond
 103:D:/Workspace/Development/my/DAVE/Infineon_CANopen/Libraries/XMCLib/inc\xmc_can.h ****  *
 104:D:/Workspace/Development/my/DAVE/Infineon_CANopen/Libraries/XMCLib/inc\xmc_can.h ****  */
 105:D:/Workspace/Development/my/DAVE/Infineon_CANopen/Libraries/XMCLib/inc\xmc_can.h **** 
 106:D:/Workspace/Development/my/DAVE/Infineon_CANopen/Libraries/XMCLib/inc\xmc_can.h **** #ifndef XMC_CAN_H
 107:D:/Workspace/Development/my/DAVE/Infineon_CANopen/Libraries/XMCLib/inc\xmc_can.h **** #define XMC_CAN_H
 108:D:/Workspace/Development/my/DAVE/Infineon_CANopen/Libraries/XMCLib/inc\xmc_can.h **** 
 109:D:/Workspace/Development/my/DAVE/Infineon_CANopen/Libraries/XMCLib/inc\xmc_can.h **** /**************************************************************************************************
 110:D:/Workspace/Development/my/DAVE/Infineon_CANopen/Libraries/XMCLib/inc\xmc_can.h ****  * HEADER FILES
 111:D:/Workspace/Development/my/DAVE/Infineon_CANopen/Libraries/XMCLib/inc\xmc_can.h ****  **************************************************************************************************
 112:D:/Workspace/Development/my/DAVE/Infineon_CANopen/Libraries/XMCLib/inc\xmc_can.h **** #include "xmc_common.h"
 113:D:/Workspace/Development/my/DAVE/Infineon_CANopen/Libraries/XMCLib/inc\xmc_can.h **** 
 114:D:/Workspace/Development/my/DAVE/Infineon_CANopen/Libraries/XMCLib/inc\xmc_can.h **** #if defined(CAN)
 115:D:/Workspace/Development/my/DAVE/Infineon_CANopen/Libraries/XMCLib/inc\xmc_can.h **** 
 116:D:/Workspace/Development/my/DAVE/Infineon_CANopen/Libraries/XMCLib/inc\xmc_can.h **** #include "xmc_scu.h"
 117:D:/Workspace/Development/my/DAVE/Infineon_CANopen/Libraries/XMCLib/inc\xmc_can.h **** #include "xmc_can_map.h"
 118:D:/Workspace/Development/my/DAVE/Infineon_CANopen/Libraries/XMCLib/inc\xmc_can.h **** #include <string.h>
 119:D:/Workspace/Development/my/DAVE/Infineon_CANopen/Libraries/XMCLib/inc\xmc_can.h **** 
 120:D:/Workspace/Development/my/DAVE/Infineon_CANopen/Libraries/XMCLib/inc\xmc_can.h **** /**
 121:D:/Workspace/Development/my/DAVE/Infineon_CANopen/Libraries/XMCLib/inc\xmc_can.h ****  * @addtogroup XMClib XMC Peripheral Library
 122:D:/Workspace/Development/my/DAVE/Infineon_CANopen/Libraries/XMCLib/inc\xmc_can.h ****  * @{
 123:D:/Workspace/Development/my/DAVE/Infineon_CANopen/Libraries/XMCLib/inc\xmc_can.h ****  */
 124:D:/Workspace/Development/my/DAVE/Infineon_CANopen/Libraries/XMCLib/inc\xmc_can.h **** 
 125:D:/Workspace/Development/my/DAVE/Infineon_CANopen/Libraries/XMCLib/inc\xmc_can.h **** /**
 126:D:/Workspace/Development/my/DAVE/Infineon_CANopen/Libraries/XMCLib/inc\xmc_can.h ****  * @addtogroup CAN
 127:D:/Workspace/Development/my/DAVE/Infineon_CANopen/Libraries/XMCLib/inc\xmc_can.h ****  * @brief Controller Area Network Controller (CAN) driver for the XMC microcontroller family.
 128:D:/Workspace/Development/my/DAVE/Infineon_CANopen/Libraries/XMCLib/inc\xmc_can.h ****  *
 129:D:/Workspace/Development/my/DAVE/Infineon_CANopen/Libraries/XMCLib/inc\xmc_can.h ****  * CAN driver provides transfer of CAN frames in accordance with CAN specificetion V2.0 B (active).
 130:D:/Workspace/Development/my/DAVE/Infineon_CANopen/Libraries/XMCLib/inc\xmc_can.h ****  * can receive and transmit standard frames with 11-bit identifiers as well as extended frames with
 131:D:/Workspace/Development/my/DAVE/Infineon_CANopen/Libraries/XMCLib/inc\xmc_can.h ****  * All CAN nodes share a common set of message objects. Each message object can be individually all
 132:D:/Workspace/Development/my/DAVE/Infineon_CANopen/Libraries/XMCLib/inc\xmc_can.h ****  * CAN nodes.
 133:D:/Workspace/Development/my/DAVE/Infineon_CANopen/Libraries/XMCLib/inc\xmc_can.h ****  * Besides serving as a storage container for incoming and outgoing frames, message objects can be 
 134:D:/Workspace/Development/my/DAVE/Infineon_CANopen/Libraries/XMCLib/inc\xmc_can.h ****  * gateways between
 135:D:/Workspace/Development/my/DAVE/Infineon_CANopen/Libraries/XMCLib/inc\xmc_can.h ****  * the CAN nodes or to setup a FIFO buffer. The CAN module provides Analyzer mode,Loop-back mode an
 136:D:/Workspace/Development/my/DAVE/Infineon_CANopen/Libraries/XMCLib/inc\xmc_can.h ****  * node analysis.
 137:D:/Workspace/Development/my/DAVE/Infineon_CANopen/Libraries/XMCLib/inc\xmc_can.h ****  *
 138:D:/Workspace/Development/my/DAVE/Infineon_CANopen/Libraries/XMCLib/inc\xmc_can.h ****  * The driver is divided into five sections:
 139:D:/Workspace/Development/my/DAVE/Infineon_CANopen/Libraries/XMCLib/inc\xmc_can.h ****  * \par CAN Global features:
 140:D:/Workspace/Development/my/DAVE/Infineon_CANopen/Libraries/XMCLib/inc\xmc_can.h ****  * -# Allows to configure module frequency using function XMC_CAN_Init().
 141:D:/Workspace/Development/my/DAVE/Infineon_CANopen/Libraries/XMCLib/inc\xmc_can.h ****  * -# Allows to configure Module interrupt using configuration structure XMC_CAN_NODE_INTERRUPT_TRI
 142:D:/Workspace/Development/my/DAVE/Infineon_CANopen/Libraries/XMCLib/inc\xmc_can.h ****  *    XMC_CAN_EventTrigger().
 143:D:/Workspace/Development/my/DAVE/Infineon_CANopen/Libraries/XMCLib/inc\xmc_can.h ****  *
 144:D:/Workspace/Development/my/DAVE/Infineon_CANopen/Libraries/XMCLib/inc\xmc_can.h ****  * \par CAN_NODE features:
 145:D:/Workspace/Development/my/DAVE/Infineon_CANopen/Libraries/XMCLib/inc\xmc_can.h ****  * -# Allows to set baud rate by configuration structure XMC_CAN_NODE_NOMINAL_BIT_TIME_CONFIG_t and
 146:D:/Workspace/Development/my/DAVE/Infineon_CANopen/Libraries/XMCLib/inc\xmc_can.h ****  *    function XMC_CAN_NODE_NominalBitTimeConfigure().
 147:D:/Workspace/Development/my/DAVE/Infineon_CANopen/Libraries/XMCLib/inc\xmc_can.h ****  * -# Allows to configure loop-back mode using fuction XMC_CAN_NODE_EnableLoopBack().
 148:D:/Workspace/Development/my/DAVE/Infineon_CANopen/Libraries/XMCLib/inc\xmc_can.h ****  * -# Allows to configure CAN Node analyzer using function XMC_CAN_NODE_SetAnalyzerMode().
 149:D:/Workspace/Development/my/DAVE/Infineon_CANopen/Libraries/XMCLib/inc\xmc_can.h ****  * -# Allows CAN node events enable/ disable by enum structure XMC_CAN_NODE_EVENT_t and functions X
 150:D:/Workspace/Development/my/DAVE/Infineon_CANopen/Libraries/XMCLib/inc\xmc_can.h ****  *    and XMC_CAN_NODE_DisableEvent().
 151:D:/Workspace/Development/my/DAVE/Infineon_CANopen/Libraries/XMCLib/inc\xmc_can.h ****  * -# Provides bit timming analysis, configuration structure XMC_CAN_NODE_FRAME_COUNTER_t and funct
 152:D:/Workspace/Development/my/DAVE/Infineon_CANopen/Libraries/XMCLib/inc\xmc_can.h ****  *    XMC_CAN_NODE_FrameCounterConfigure().
 153:D:/Workspace/Development/my/DAVE/Infineon_CANopen/Libraries/XMCLib/inc\xmc_can.h ****  *
 154:D:/Workspace/Development/my/DAVE/Infineon_CANopen/Libraries/XMCLib/inc\xmc_can.h ****  * \par CAN_MO features:
 155:D:/Workspace/Development/my/DAVE/Infineon_CANopen/Libraries/XMCLib/inc\xmc_can.h ****  * -# Allows message object initialization by configuration structure XMC_CAN_MO_t and function XMC
 156:D:/Workspace/Development/my/DAVE/Infineon_CANopen/Libraries/XMCLib/inc\xmc_can.h ****  * -# Allows transfer of message objects using functions XMC_CAN_MO_Transmit() and XMC_CAN_MO_Recei
 157:D:/Workspace/Development/my/DAVE/Infineon_CANopen/Libraries/XMCLib/inc\xmc_can.h ****  * -# Allows to configure Single Data Transfer and Single Transmit Trial using functions
 158:D:/Workspace/Development/my/DAVE/Infineon_CANopen/Libraries/XMCLib/inc\xmc_can.h ****  * XMC_CAN_MO_EnableSingleTransmitTrial() and XMC_CAN_MO_EnableSingleTransmitTrial().
 159:D:/Workspace/Development/my/DAVE/Infineon_CANopen/Libraries/XMCLib/inc\xmc_can.h ****  * -# Allows to configure MO events using function XMC_CAN_MO_EnableEvent().
 160:D:/Workspace/Development/my/DAVE/Infineon_CANopen/Libraries/XMCLib/inc\xmc_can.h ****  *
 161:D:/Workspace/Development/my/DAVE/Infineon_CANopen/Libraries/XMCLib/inc\xmc_can.h ****  * \par CAN_FIFO features:
 162:D:/Workspace/Development/my/DAVE/Infineon_CANopen/Libraries/XMCLib/inc\xmc_can.h ****  * -# Allows message object FIFO structure by configuration structure XMC_CAN_FIFO_CONFIG_t and fun
 163:D:/Workspace/Development/my/DAVE/Infineon_CANopen/Libraries/XMCLib/inc\xmc_can.h ****  * XMC_CAN_TXFIFO_ConfigMOBaseObject() , XMC_CAN_RXFIFO_ConfigMOBaseObject() and XMC_CAN_TXFIFO_Tra
 164:D:/Workspace/Development/my/DAVE/Infineon_CANopen/Libraries/XMCLib/inc\xmc_can.h ****  *
 165:D:/Workspace/Development/my/DAVE/Infineon_CANopen/Libraries/XMCLib/inc\xmc_can.h ****  * \par CAN_GATEWAY features:
 166:D:/Workspace/Development/my/DAVE/Infineon_CANopen/Libraries/XMCLib/inc\xmc_can.h ****  * -# Provides Gateway mode, configuration structure XMC_CAN_GATEWAY_CONFIG_t and function XMC_CAN_
 167:D:/Workspace/Development/my/DAVE/Infineon_CANopen/Libraries/XMCLib/inc\xmc_can.h ****  *
 168:D:/Workspace/Development/my/DAVE/Infineon_CANopen/Libraries/XMCLib/inc\xmc_can.h ****  * @{
 169:D:/Workspace/Development/my/DAVE/Infineon_CANopen/Libraries/XMCLib/inc\xmc_can.h ****  */
 170:D:/Workspace/Development/my/DAVE/Infineon_CANopen/Libraries/XMCLib/inc\xmc_can.h **** 
 171:D:/Workspace/Development/my/DAVE/Infineon_CANopen/Libraries/XMCLib/inc\xmc_can.h **** /**************************************************************************************************
 172:D:/Workspace/Development/my/DAVE/Infineon_CANopen/Libraries/XMCLib/inc\xmc_can.h ****  * MACROS
 173:D:/Workspace/Development/my/DAVE/Infineon_CANopen/Libraries/XMCLib/inc\xmc_can.h ****  **************************************************************************************************
 174:D:/Workspace/Development/my/DAVE/Infineon_CANopen/Libraries/XMCLib/inc\xmc_can.h **** #define XMC_CAN_MO_MOAR_STDID_Pos (18U)   /**< Standard Identifier bitposition */
 175:D:/Workspace/Development/my/DAVE/Infineon_CANopen/Libraries/XMCLib/inc\xmc_can.h **** 
 176:D:/Workspace/Development/my/DAVE/Infineon_CANopen/Libraries/XMCLib/inc\xmc_can.h **** #define XMC_CAN_MO_MOAR_STDID_Msk ((0x000007FFUL) << XMC_CAN_MO_MOAR_STDID_Pos) /**< Standard Ident
 177:D:/Workspace/Development/my/DAVE/Infineon_CANopen/Libraries/XMCLib/inc\xmc_can.h **** 
 178:D:/Workspace/Development/my/DAVE/Infineon_CANopen/Libraries/XMCLib/inc\xmc_can.h **** #define CAN_NODE_NIPR_Msk         (0x7UL) /**< Node event mask */
 179:D:/Workspace/Development/my/DAVE/Infineon_CANopen/Libraries/XMCLib/inc\xmc_can.h **** 
 180:D:/Workspace/Development/my/DAVE/Infineon_CANopen/Libraries/XMCLib/inc\xmc_can.h **** #define CAN_MO_MOIPR_Msk          (0x7U)  /**< Message Object event mask */
 181:D:/Workspace/Development/my/DAVE/Infineon_CANopen/Libraries/XMCLib/inc\xmc_can.h **** 
 182:D:/Workspace/Development/my/DAVE/Infineon_CANopen/Libraries/XMCLib/inc\xmc_can.h **** /**************************************************************************************************
 183:D:/Workspace/Development/my/DAVE/Infineon_CANopen/Libraries/XMCLib/inc\xmc_can.h ****  * ENUMS
 184:D:/Workspace/Development/my/DAVE/Infineon_CANopen/Libraries/XMCLib/inc\xmc_can.h ****  **************************************************************************************************
 185:D:/Workspace/Development/my/DAVE/Infineon_CANopen/Libraries/XMCLib/inc\xmc_can.h **** /**
 186:D:/Workspace/Development/my/DAVE/Infineon_CANopen/Libraries/XMCLib/inc\xmc_can.h ****  *  Defines the status of CAN, to verify the CAN related API calls. Use type \a XMC_CAN_STATUS_t fo
 187:D:/Workspace/Development/my/DAVE/Infineon_CANopen/Libraries/XMCLib/inc\xmc_can.h **** */
 188:D:/Workspace/Development/my/DAVE/Infineon_CANopen/Libraries/XMCLib/inc\xmc_can.h **** typedef enum XMC_CAN_STATUS
 189:D:/Workspace/Development/my/DAVE/Infineon_CANopen/Libraries/XMCLib/inc\xmc_can.h **** {
 190:D:/Workspace/Development/my/DAVE/Infineon_CANopen/Libraries/XMCLib/inc\xmc_can.h ****   XMC_CAN_STATUS_SUCCESS,           /**< Driver accepted application request*/
 191:D:/Workspace/Development/my/DAVE/Infineon_CANopen/Libraries/XMCLib/inc\xmc_can.h ****   XMC_CAN_STATUS_ERROR,             /**< Returned when unknown error occurred */
 192:D:/Workspace/Development/my/DAVE/Infineon_CANopen/Libraries/XMCLib/inc\xmc_can.h ****   XMC_CAN_STATUS_BUSY,              /**< Driver is busy and can not handle request*/
 193:D:/Workspace/Development/my/DAVE/Infineon_CANopen/Libraries/XMCLib/inc\xmc_can.h ****   XMC_CAN_STATUS_MO_NOT_ACCEPTABLE, /**< Message object type not allowed*/
 194:D:/Workspace/Development/my/DAVE/Infineon_CANopen/Libraries/XMCLib/inc\xmc_can.h ****   XMC_CAN_STATUS_MO_DISABLED       /**< Returned if Message object is disabled */
 195:D:/Workspace/Development/my/DAVE/Infineon_CANopen/Libraries/XMCLib/inc\xmc_can.h **** } XMC_CAN_STATUS_t;
 196:D:/Workspace/Development/my/DAVE/Infineon_CANopen/Libraries/XMCLib/inc\xmc_can.h **** 
 197:D:/Workspace/Development/my/DAVE/Infineon_CANopen/Libraries/XMCLib/inc\xmc_can.h **** /**
 198:D:/Workspace/Development/my/DAVE/Infineon_CANopen/Libraries/XMCLib/inc\xmc_can.h **** * Defines CAN module Panel Commands . Use type \a XMC_CAN_PANCMD_t for this enum.
 199:D:/Workspace/Development/my/DAVE/Infineon_CANopen/Libraries/XMCLib/inc\xmc_can.h **** */
 200:D:/Workspace/Development/my/DAVE/Infineon_CANopen/Libraries/XMCLib/inc\xmc_can.h **** typedef enum XMC_CAN_PANCMD
 201:D:/Workspace/Development/my/DAVE/Infineon_CANopen/Libraries/XMCLib/inc\xmc_can.h **** {
 202:D:/Workspace/Development/my/DAVE/Infineon_CANopen/Libraries/XMCLib/inc\xmc_can.h ****   XMC_CAN_PANCMD_INIT_LIST = 1U,              /**< Command to initialize a list */
 203:D:/Workspace/Development/my/DAVE/Infineon_CANopen/Libraries/XMCLib/inc\xmc_can.h ****   XMC_CAN_PANCMD_STATIC_ALLOCATE = 2U,        /**< Command to activate static allocation */
 204:D:/Workspace/Development/my/DAVE/Infineon_CANopen/Libraries/XMCLib/inc\xmc_can.h ****   XMC_CAN_PANCMD_DYNAMIC_ALLOCATE = 3U,       /**< Command to activate dynamic allocation */
 205:D:/Workspace/Development/my/DAVE/Infineon_CANopen/Libraries/XMCLib/inc\xmc_can.h **** 
 206:D:/Workspace/Development/my/DAVE/Infineon_CANopen/Libraries/XMCLib/inc\xmc_can.h ****   XMC_CAN_PANCMD_STATIC_INSERT_BEFORE = 4U,   /**< Remove a message object from the list and insert
 207:D:/Workspace/Development/my/DAVE/Infineon_CANopen/Libraries/XMCLib/inc\xmc_can.h ****   XMC_CAN_PANCMD_DYNAMIC_INSERT_BEFORE = 5U,  /**< Command to activate dynamic allocation */
 208:D:/Workspace/Development/my/DAVE/Infineon_CANopen/Libraries/XMCLib/inc\xmc_can.h ****   XMC_CAN_PANCMD_STATIC_INSERT_BEHIND = 6U,   /**< Command to activate dynamic allocation */
 209:D:/Workspace/Development/my/DAVE/Infineon_CANopen/Libraries/XMCLib/inc\xmc_can.h ****   XMC_CAN_PANCMD_DYNAMIC_INSERT_BEHIND = 7U   /**< Command to activate dynamic allocation */
 210:D:/Workspace/Development/my/DAVE/Infineon_CANopen/Libraries/XMCLib/inc\xmc_can.h **** } XMC_CAN_PANCMD_t;
 211:D:/Workspace/Development/my/DAVE/Infineon_CANopen/Libraries/XMCLib/inc\xmc_can.h **** 
 212:D:/Workspace/Development/my/DAVE/Infineon_CANopen/Libraries/XMCLib/inc\xmc_can.h **** /**
 213:D:/Workspace/Development/my/DAVE/Infineon_CANopen/Libraries/XMCLib/inc\xmc_can.h **** * Defines loop Back Mode, to enable/disable an in-system test of the MultiCAN module .
 214:D:/Workspace/Development/my/DAVE/Infineon_CANopen/Libraries/XMCLib/inc\xmc_can.h **** * Use type \a XMC_CAN_LOOKBACKMODE_t for this enum.
 215:D:/Workspace/Development/my/DAVE/Infineon_CANopen/Libraries/XMCLib/inc\xmc_can.h **** */
 216:D:/Workspace/Development/my/DAVE/Infineon_CANopen/Libraries/XMCLib/inc\xmc_can.h **** typedef enum XMC_CAN_LOOKBACKMODE
 217:D:/Workspace/Development/my/DAVE/Infineon_CANopen/Libraries/XMCLib/inc\xmc_can.h **** {
 218:D:/Workspace/Development/my/DAVE/Infineon_CANopen/Libraries/XMCLib/inc\xmc_can.h ****   XMC_CAN_LOOKBACKMODE_ENABLED,   /**< Each CAN node can be connected to the internal CAN bus  */
 219:D:/Workspace/Development/my/DAVE/Infineon_CANopen/Libraries/XMCLib/inc\xmc_can.h ****   XMC_CAN_LOOKBACKMODE_DISABLED   /**< Each CAN node can be connected to the external CAN bus */
 220:D:/Workspace/Development/my/DAVE/Infineon_CANopen/Libraries/XMCLib/inc\xmc_can.h **** } XMC_CAN_LOOKBACKMODE_t;
 221:D:/Workspace/Development/my/DAVE/Infineon_CANopen/Libraries/XMCLib/inc\xmc_can.h **** 
 222:D:/Workspace/Development/my/DAVE/Infineon_CANopen/Libraries/XMCLib/inc\xmc_can.h **** /**
 223:D:/Workspace/Development/my/DAVE/Infineon_CANopen/Libraries/XMCLib/inc\xmc_can.h ****  * Defines Message Object direction. Use type \a XMC_CAN_MO_TYPE_t for this enum.
 224:D:/Workspace/Development/my/DAVE/Infineon_CANopen/Libraries/XMCLib/inc\xmc_can.h ****  */
 225:D:/Workspace/Development/my/DAVE/Infineon_CANopen/Libraries/XMCLib/inc\xmc_can.h **** typedef enum XMC_CAN_MO_TYPE
 226:D:/Workspace/Development/my/DAVE/Infineon_CANopen/Libraries/XMCLib/inc\xmc_can.h **** {
 227:D:/Workspace/Development/my/DAVE/Infineon_CANopen/Libraries/XMCLib/inc\xmc_can.h ****   XMC_CAN_MO_TYPE_RECMSGOBJ,   /**< Receive Message Object selected */
 228:D:/Workspace/Development/my/DAVE/Infineon_CANopen/Libraries/XMCLib/inc\xmc_can.h ****   XMC_CAN_MO_TYPE_TRANSMSGOBJ  /**< Transmit Message Object selected */
 229:D:/Workspace/Development/my/DAVE/Infineon_CANopen/Libraries/XMCLib/inc\xmc_can.h **** } XMC_CAN_MO_TYPE_t;
 230:D:/Workspace/Development/my/DAVE/Infineon_CANopen/Libraries/XMCLib/inc\xmc_can.h **** 
 231:D:/Workspace/Development/my/DAVE/Infineon_CANopen/Libraries/XMCLib/inc\xmc_can.h **** /**
 232:D:/Workspace/Development/my/DAVE/Infineon_CANopen/Libraries/XMCLib/inc\xmc_can.h ****  * Defines Data frame types. Use type \a XMC_CAN_FRAME_TYPE_t for this enum.
 233:D:/Workspace/Development/my/DAVE/Infineon_CANopen/Libraries/XMCLib/inc\xmc_can.h ****  */
 234:D:/Workspace/Development/my/DAVE/Infineon_CANopen/Libraries/XMCLib/inc\xmc_can.h **** typedef enum XMC_CAN_FRAME_TYPE
 235:D:/Workspace/Development/my/DAVE/Infineon_CANopen/Libraries/XMCLib/inc\xmc_can.h **** {
 236:D:/Workspace/Development/my/DAVE/Infineon_CANopen/Libraries/XMCLib/inc\xmc_can.h ****   XMC_CAN_FRAME_TYPE_STANDARD_11BITS, /**< Standard type identifier*/
 237:D:/Workspace/Development/my/DAVE/Infineon_CANopen/Libraries/XMCLib/inc\xmc_can.h ****   XMC_CAN_FRAME_TYPE_EXTENDED_29BITS  /**< Extended type identifier*/
 238:D:/Workspace/Development/my/DAVE/Infineon_CANopen/Libraries/XMCLib/inc\xmc_can.h **** } XMC_CAN_FRAME_TYPE_t;
 239:D:/Workspace/Development/my/DAVE/Infineon_CANopen/Libraries/XMCLib/inc\xmc_can.h **** 
 240:D:/Workspace/Development/my/DAVE/Infineon_CANopen/Libraries/XMCLib/inc\xmc_can.h **** 
 241:D:/Workspace/Development/my/DAVE/Infineon_CANopen/Libraries/XMCLib/inc\xmc_can.h **** /**
 242:D:/Workspace/Development/my/DAVE/Infineon_CANopen/Libraries/XMCLib/inc\xmc_can.h ****  * Defines arbitration mode for transmit acceptance filtering. Use type \a XMC_CAN_ARBITRATION_MODE
 243:D:/Workspace/Development/my/DAVE/Infineon_CANopen/Libraries/XMCLib/inc\xmc_can.h ****  */
 244:D:/Workspace/Development/my/DAVE/Infineon_CANopen/Libraries/XMCLib/inc\xmc_can.h **** typedef enum XMC_CAN_ARBITRATION_MODE
 245:D:/Workspace/Development/my/DAVE/Infineon_CANopen/Libraries/XMCLib/inc\xmc_can.h **** {
 246:D:/Workspace/Development/my/DAVE/Infineon_CANopen/Libraries/XMCLib/inc\xmc_can.h ****   XMC_CAN_ARBITRATION_MODE_ORDER_BASED_PRIO_1 = 1U,   /**< Transmit acceptance based in the order(p
 247:D:/Workspace/Development/my/DAVE/Infineon_CANopen/Libraries/XMCLib/inc\xmc_can.h ****   XMC_CAN_ARBITRATION_MODE_IDE_DIR_BASED_PRIO_2 = 2U, /**< Transmit acceptance filtering is based o
 248:D:/Workspace/Development/my/DAVE/Infineon_CANopen/Libraries/XMCLib/inc\xmc_can.h ****   XMC_CAN_ARBITRATION_MODE_ORDER_BASED_PRIO_3 = 3U    /**< Transmit acceptance based in the order *
 249:D:/Workspace/Development/my/DAVE/Infineon_CANopen/Libraries/XMCLib/inc\xmc_can.h **** } XMC_CAN_ARBITRATION_MODE_t;
 250:D:/Workspace/Development/my/DAVE/Infineon_CANopen/Libraries/XMCLib/inc\xmc_can.h **** 
 251:D:/Workspace/Development/my/DAVE/Infineon_CANopen/Libraries/XMCLib/inc\xmc_can.h **** /**
 252:D:/Workspace/Development/my/DAVE/Infineon_CANopen/Libraries/XMCLib/inc\xmc_can.h ****  * Defines the operation mode of the frame counter. Use type \a XMC_CAN_FRAME_COUNT_MODE_t for this
 253:D:/Workspace/Development/my/DAVE/Infineon_CANopen/Libraries/XMCLib/inc\xmc_can.h ****  */
 254:D:/Workspace/Development/my/DAVE/Infineon_CANopen/Libraries/XMCLib/inc\xmc_can.h **** typedef enum XMC_CAN_FRAME_COUNT_MODE
 255:D:/Workspace/Development/my/DAVE/Infineon_CANopen/Libraries/XMCLib/inc\xmc_can.h **** {
 256:D:/Workspace/Development/my/DAVE/Infineon_CANopen/Libraries/XMCLib/inc\xmc_can.h ****   XMC_CAN_FRAME_COUNT_MODE = 0U,       /**< Frame Count Mode */
 257:D:/Workspace/Development/my/DAVE/Infineon_CANopen/Libraries/XMCLib/inc\xmc_can.h ****   XMC_CAN_FRAME_COUNT_MODE_TIME_STAMP = 1U,  /**< The frame counter is incremented with the beginni
 258:D:/Workspace/Development/my/DAVE/Infineon_CANopen/Libraries/XMCLib/inc\xmc_can.h ****   XMC_CAN_FRAME_COUNT_MODE_BIT_TIMING = 2U   /**< Used for baud rate detection and analysis of the 
 259:D:/Workspace/Development/my/DAVE/Infineon_CANopen/Libraries/XMCLib/inc\xmc_can.h **** } XMC_CAN_FRAME_COUNT_MODE_t;
 260:D:/Workspace/Development/my/DAVE/Infineon_CANopen/Libraries/XMCLib/inc\xmc_can.h **** 
 261:D:/Workspace/Development/my/DAVE/Infineon_CANopen/Libraries/XMCLib/inc\xmc_can.h **** /**
 262:D:/Workspace/Development/my/DAVE/Infineon_CANopen/Libraries/XMCLib/inc\xmc_can.h ****  * Defines the Divider Modes. Use type \a XMC_CAN_DM_t for this enum.
 263:D:/Workspace/Development/my/DAVE/Infineon_CANopen/Libraries/XMCLib/inc\xmc_can.h ****  */
 264:D:/Workspace/Development/my/DAVE/Infineon_CANopen/Libraries/XMCLib/inc\xmc_can.h **** typedef enum XMC_CAN_DM
 265:D:/Workspace/Development/my/DAVE/Infineon_CANopen/Libraries/XMCLib/inc\xmc_can.h **** {
 266:D:/Workspace/Development/my/DAVE/Infineon_CANopen/Libraries/XMCLib/inc\xmc_can.h ****   XMC_CAN_DM_NORMAL = 1U,      /**< Normal divider mode */
 267:D:/Workspace/Development/my/DAVE/Infineon_CANopen/Libraries/XMCLib/inc\xmc_can.h ****   XMC_CAN_DM_FRACTIONAL = 2U,  /**< Fractional divider mode */
 268:D:/Workspace/Development/my/DAVE/Infineon_CANopen/Libraries/XMCLib/inc\xmc_can.h ****   XMC_CAN_DM_OFF = 3U          /**< Divider Mode in off-state*/
 269:D:/Workspace/Development/my/DAVE/Infineon_CANopen/Libraries/XMCLib/inc\xmc_can.h **** } XMC_CAN_DM_t;
 270:D:/Workspace/Development/my/DAVE/Infineon_CANopen/Libraries/XMCLib/inc\xmc_can.h **** 
 271:D:/Workspace/Development/my/DAVE/Infineon_CANopen/Libraries/XMCLib/inc\xmc_can.h **** /**
 272:D:/Workspace/Development/my/DAVE/Infineon_CANopen/Libraries/XMCLib/inc\xmc_can.h ****  * Defines mask value for CAN Message Object set status. Use type \a XMC_CAN_MO_SET_STATUS_t for th
 273:D:/Workspace/Development/my/DAVE/Infineon_CANopen/Libraries/XMCLib/inc\xmc_can.h ****  */
 274:D:/Workspace/Development/my/DAVE/Infineon_CANopen/Libraries/XMCLib/inc\xmc_can.h **** typedef enum XMC_CAN_MO_SET_STATUS
 275:D:/Workspace/Development/my/DAVE/Infineon_CANopen/Libraries/XMCLib/inc\xmc_can.h **** {
 276:D:/Workspace/Development/my/DAVE/Infineon_CANopen/Libraries/XMCLib/inc\xmc_can.h ****   XMC_CAN_MO_SET_STATUS_RX_PENDING = CAN_MO_MOCTR_SETRXPND_Msk,     /**< Set receive pending */
 277:D:/Workspace/Development/my/DAVE/Infineon_CANopen/Libraries/XMCLib/inc\xmc_can.h ****   XMC_CAN_MO_SET_STATUS_TX_PENDING = CAN_MO_MOCTR_SETTXPND_Msk,     /**< Set transmit pending */
 278:D:/Workspace/Development/my/DAVE/Infineon_CANopen/Libraries/XMCLib/inc\xmc_can.h ****   XMC_CAN_MO_SET_STATUS_RX_UPDATING = CAN_MO_MOCTR_SETRXUPD_Msk,    /**< Set receive updating */
 279:D:/Workspace/Development/my/DAVE/Infineon_CANopen/Libraries/XMCLib/inc\xmc_can.h ****   XMC_CAN_MO_SET_STATUS_NEW_DATA = CAN_MO_MOCTR_SETNEWDAT_Msk,      /**< Set new data */
 280:D:/Workspace/Development/my/DAVE/Infineon_CANopen/Libraries/XMCLib/inc\xmc_can.h ****   XMC_CAN_MO_SET_STATUS_MESSAGE_LOST = CAN_MO_MOCTR_SETMSGLST_Msk,  /**< Set message lost */
 281:D:/Workspace/Development/my/DAVE/Infineon_CANopen/Libraries/XMCLib/inc\xmc_can.h ****   XMC_CAN_MO_SET_STATUS_MESSAGE_VALID = CAN_MO_MOCTR_SETMSGVAL_Msk, /**< Set message valid */
 282:D:/Workspace/Development/my/DAVE/Infineon_CANopen/Libraries/XMCLib/inc\xmc_can.h ****   XMC_CAN_MO_SET_STATUS_RX_TX_SELECTED = CAN_MO_MOCTR_SETRTSEL_Msk, /**< Set transmit/receive selec
 283:D:/Workspace/Development/my/DAVE/Infineon_CANopen/Libraries/XMCLib/inc\xmc_can.h ****   XMC_CAN_MO_SET_STATUS_RX_ENABLE = CAN_MO_MOCTR_SETRXEN_Msk,       /**< Set receive enable */
 284:D:/Workspace/Development/my/DAVE/Infineon_CANopen/Libraries/XMCLib/inc\xmc_can.h ****   XMC_CAN_MO_SET_STATUS_TX_REQUEST = CAN_MO_MOCTR_SETTXRQ_Msk,      /**< Set transmit request */
 285:D:/Workspace/Development/my/DAVE/Infineon_CANopen/Libraries/XMCLib/inc\xmc_can.h ****   XMC_CAN_MO_SET_STATUS_TX_ENABLE0 = CAN_MO_MOCTR_SETTXEN0_Msk,     /**< Set transmit enable 0 */
 286:D:/Workspace/Development/my/DAVE/Infineon_CANopen/Libraries/XMCLib/inc\xmc_can.h ****   XMC_CAN_MO_SET_STATUS_TX_ENABLE1 = CAN_MO_MOCTR_SETTXEN1_Msk,     /**< Set transmit enable 1 */
 287:D:/Workspace/Development/my/DAVE/Infineon_CANopen/Libraries/XMCLib/inc\xmc_can.h ****   XMC_CAN_MO_SET_STATUS_MESSAGE_DIRECTION = CAN_MO_MOCTR_SETDIR_Msk /**< Set message direction */
 288:D:/Workspace/Development/my/DAVE/Infineon_CANopen/Libraries/XMCLib/inc\xmc_can.h **** } XMC_CAN_MO_SET_STATUS_t;
 289:D:/Workspace/Development/my/DAVE/Infineon_CANopen/Libraries/XMCLib/inc\xmc_can.h **** 
 290:D:/Workspace/Development/my/DAVE/Infineon_CANopen/Libraries/XMCLib/inc\xmc_can.h **** /**
 291:D:/Workspace/Development/my/DAVE/Infineon_CANopen/Libraries/XMCLib/inc\xmc_can.h ****  * Defines mask value for CAN Message Object reset status. Use type \a XMC_CAN_MO_RESET_STATUS_t fo
 292:D:/Workspace/Development/my/DAVE/Infineon_CANopen/Libraries/XMCLib/inc\xmc_can.h ****  */
 293:D:/Workspace/Development/my/DAVE/Infineon_CANopen/Libraries/XMCLib/inc\xmc_can.h **** typedef enum XMC_CAN_MO_RESET_STATUS
 294:D:/Workspace/Development/my/DAVE/Infineon_CANopen/Libraries/XMCLib/inc\xmc_can.h **** {
 295:D:/Workspace/Development/my/DAVE/Infineon_CANopen/Libraries/XMCLib/inc\xmc_can.h ****   XMC_CAN_MO_RESET_STATUS_RX_PENDING = CAN_MO_MOCTR_RESRXPND_Msk,     /**< Reset receive pending */
 296:D:/Workspace/Development/my/DAVE/Infineon_CANopen/Libraries/XMCLib/inc\xmc_can.h ****   XMC_CAN_MO_RESET_STATUS_TX_PENDING = CAN_MO_MOCTR_RESTXPND_Msk,     /**< Reset transmit pending *
 297:D:/Workspace/Development/my/DAVE/Infineon_CANopen/Libraries/XMCLib/inc\xmc_can.h ****   XMC_CAN_MO_RESET_STATUS_RX_UPDATING = CAN_MO_MOCTR_RESRXUPD_Msk,    /**< Reset receive updating *
 298:D:/Workspace/Development/my/DAVE/Infineon_CANopen/Libraries/XMCLib/inc\xmc_can.h ****   XMC_CAN_MO_RESET_STATUS_NEW_DATA = CAN_MO_MOCTR_RESNEWDAT_Msk,      /**< Reset new data */
 299:D:/Workspace/Development/my/DAVE/Infineon_CANopen/Libraries/XMCLib/inc\xmc_can.h ****   XMC_CAN_MO_RESET_STATUS_MESSAGE_LOST = CAN_MO_MOCTR_RESMSGLST_Msk,  /**< Reset message lost */
 300:D:/Workspace/Development/my/DAVE/Infineon_CANopen/Libraries/XMCLib/inc\xmc_can.h ****   XMC_CAN_MO_RESET_STATUS_MESSAGE_VALID = CAN_MO_MOCTR_RESMSGVAL_Msk, /**< Reset message valid */
 301:D:/Workspace/Development/my/DAVE/Infineon_CANopen/Libraries/XMCLib/inc\xmc_can.h ****   XMC_CAN_MO_RESET_STATUS_RX_TX_SELECTED = CAN_MO_MOCTR_RESRTSEL_Msk, /**< Reset transmit/receive s
 302:D:/Workspace/Development/my/DAVE/Infineon_CANopen/Libraries/XMCLib/inc\xmc_can.h ****   XMC_CAN_MO_RESET_STATUS_RX_ENABLE = CAN_MO_MOCTR_RESRXEN_Msk,       /**< Reset receive enable */
 303:D:/Workspace/Development/my/DAVE/Infineon_CANopen/Libraries/XMCLib/inc\xmc_can.h ****   XMC_CAN_MO_RESET_STATUS_TX_REQUEST = CAN_MO_MOCTR_RESTXRQ_Msk,      /**< Reset transmit request *
 304:D:/Workspace/Development/my/DAVE/Infineon_CANopen/Libraries/XMCLib/inc\xmc_can.h ****   XMC_CAN_MO_RESET_STATUS_TX_ENABLE0 = CAN_MO_MOCTR_RESTXEN0_Msk,     /**< Reset transmit enable 0 
 305:D:/Workspace/Development/my/DAVE/Infineon_CANopen/Libraries/XMCLib/inc\xmc_can.h ****   XMC_CAN_MO_RESET_STATUS_TX_ENABLE1 = CAN_MO_MOCTR_RESTXEN1_Msk,     /**< Reset transmit enable 1 
 306:D:/Workspace/Development/my/DAVE/Infineon_CANopen/Libraries/XMCLib/inc\xmc_can.h ****   XMC_CAN_MO_RESET_STATUS_MESSAGE_DIRECTION = CAN_MO_MOCTR_RESDIR_Msk /**< Reset message direction 
 307:D:/Workspace/Development/my/DAVE/Infineon_CANopen/Libraries/XMCLib/inc\xmc_can.h **** } XMC_CAN_MO_RESET_STATUS_t;
 308:D:/Workspace/Development/my/DAVE/Infineon_CANopen/Libraries/XMCLib/inc\xmc_can.h **** 
 309:D:/Workspace/Development/my/DAVE/Infineon_CANopen/Libraries/XMCLib/inc\xmc_can.h **** /**
 310:D:/Workspace/Development/my/DAVE/Infineon_CANopen/Libraries/XMCLib/inc\xmc_can.h ****  * Defines mask value for CAN Message Object status. Use type \a XMC_CAN_MO_STATUS_t for this enum.
 311:D:/Workspace/Development/my/DAVE/Infineon_CANopen/Libraries/XMCLib/inc\xmc_can.h ****  */
 312:D:/Workspace/Development/my/DAVE/Infineon_CANopen/Libraries/XMCLib/inc\xmc_can.h **** typedef enum XMC_CAN_MO_STATUS
 313:D:/Workspace/Development/my/DAVE/Infineon_CANopen/Libraries/XMCLib/inc\xmc_can.h **** {
 314:D:/Workspace/Development/my/DAVE/Infineon_CANopen/Libraries/XMCLib/inc\xmc_can.h ****   XMC_CAN_MO_STATUS_RX_PENDING = CAN_MO_MOSTAT_RXPND_Msk,                   /**< Defines message ha
 315:D:/Workspace/Development/my/DAVE/Infineon_CANopen/Libraries/XMCLib/inc\xmc_can.h ****   XMC_CAN_MO_STATUS_TX_PENDING = CAN_MO_MOSTAT_TXPND_Msk,                   /**< Defines message ha
 316:D:/Workspace/Development/my/DAVE/Infineon_CANopen/Libraries/XMCLib/inc\xmc_can.h ****   XMC_CAN_MO_STATUS_RX_UPDATING = CAN_MO_MOSTAT_RXUPD_Msk,                  /**< Defines Message id
 317:D:/Workspace/Development/my/DAVE/Infineon_CANopen/Libraries/XMCLib/inc\xmc_can.h ****   XMC_CAN_MO_STATUS_NEW_DATA = CAN_MO_MOSTAT_NEWDAT_Msk,                    /**< Defines no update 
 318:D:/Workspace/Development/my/DAVE/Infineon_CANopen/Libraries/XMCLib/inc\xmc_can.h ****   XMC_CAN_MO_STATUS_MESSAGE_LOST = CAN_MO_MOSTAT_MSGLST_Msk,                /**< CAN message is los
 319:D:/Workspace/Development/my/DAVE/Infineon_CANopen/Libraries/XMCLib/inc\xmc_can.h ****   XMC_CAN_MO_STATUS_MESSAGE_VALID = CAN_MO_MOSTAT_MSGVAL_Msk,               /**< Message valid */
 320:D:/Workspace/Development/my/DAVE/Infineon_CANopen/Libraries/XMCLib/inc\xmc_can.h ****   XMC_CAN_MO_STATUS_RX_TX_SELECTED = CAN_MO_MOSTAT_RTSEL_Msk,               /**< Transmit/Receive s
 321:D:/Workspace/Development/my/DAVE/Infineon_CANopen/Libraries/XMCLib/inc\xmc_can.h ****   XMC_CAN_MO_STATUS_RX_ENABLE = CAN_MO_MOSTAT_RXEN_Msk,                     /**< Receive enable */
 322:D:/Workspace/Development/my/DAVE/Infineon_CANopen/Libraries/XMCLib/inc\xmc_can.h ****   XMC_CAN_MO_STATUS_TX_REQUEST = CAN_MO_MOSTAT_TXRQ_Msk,                    /**< Transmit request *
 323:D:/Workspace/Development/my/DAVE/Infineon_CANopen/Libraries/XMCLib/inc\xmc_can.h ****   XMC_CAN_MO_STATUS_TX_ENABLE0 = CAN_MO_MOSTAT_TXEN0_Msk,                   /**< Transmit enable 0 
 324:D:/Workspace/Development/my/DAVE/Infineon_CANopen/Libraries/XMCLib/inc\xmc_can.h ****   XMC_CAN_MO_STATUS_TX_ENABLE1 = CAN_MO_MOSTAT_TXEN1_Msk,                   /**< Transmit enable 1 
 325:D:/Workspace/Development/my/DAVE/Infineon_CANopen/Libraries/XMCLib/inc\xmc_can.h ****   XMC_CAN_MO_STATUS_MESSAGE_DIRECTION = CAN_MO_MOSTAT_DIR_Msk,              /**< Message direction 
 326:D:/Workspace/Development/my/DAVE/Infineon_CANopen/Libraries/XMCLib/inc\xmc_can.h ****   XMC_CAN_MO_STATUS_LIST = CAN_MO_MOSTAT_LIST_Msk,                          /**< List allocation */
 327:D:/Workspace/Development/my/DAVE/Infineon_CANopen/Libraries/XMCLib/inc\xmc_can.h ****   XMC_CAN_MO_STATUS_POINTER_TO_PREVIOUS_MO = CAN_MO_MOSTAT_PPREV_Msk,     /**< Pointer to previous 
 328:D:/Workspace/Development/my/DAVE/Infineon_CANopen/Libraries/XMCLib/inc\xmc_can.h ****   XMC_CAN_MO_STATUS_POINTER_TO_NEXT_MO = (int32_t)CAN_MO_MOSTAT_PNEXT_Msk   /**< Pointer to next Me
 329:D:/Workspace/Development/my/DAVE/Infineon_CANopen/Libraries/XMCLib/inc\xmc_can.h **** } XMC_CAN_MO_STATUS_t;
 330:D:/Workspace/Development/my/DAVE/Infineon_CANopen/Libraries/XMCLib/inc\xmc_can.h **** 
 331:D:/Workspace/Development/my/DAVE/Infineon_CANopen/Libraries/XMCLib/inc\xmc_can.h **** /**
 332:D:/Workspace/Development/my/DAVE/Infineon_CANopen/Libraries/XMCLib/inc\xmc_can.h ****  * Defines mask value for CAN Node status. Use type \a XMC_CAN_NODE_STATUS_t for this enum.
 333:D:/Workspace/Development/my/DAVE/Infineon_CANopen/Libraries/XMCLib/inc\xmc_can.h ****  */
 334:D:/Workspace/Development/my/DAVE/Infineon_CANopen/Libraries/XMCLib/inc\xmc_can.h **** typedef enum XMC_CAN_NODE_STATUS
 335:D:/Workspace/Development/my/DAVE/Infineon_CANopen/Libraries/XMCLib/inc\xmc_can.h **** {
 336:D:/Workspace/Development/my/DAVE/Infineon_CANopen/Libraries/XMCLib/inc\xmc_can.h ****   XMC_CAN_NODE_STATUS_LAST_ERROR_CODE = CAN_NODE_NSR_LEC_Msk,       /**< Last Error Code */
 337:D:/Workspace/Development/my/DAVE/Infineon_CANopen/Libraries/XMCLib/inc\xmc_can.h ****   XMC_CAN_NODE_STATUS_TX_OK = CAN_NODE_NSR_TXOK_Msk,                /**< Message transmitted succes
 338:D:/Workspace/Development/my/DAVE/Infineon_CANopen/Libraries/XMCLib/inc\xmc_can.h ****   XMC_CAN_NODE_STATUS_RX_OK = CAN_NODE_NSR_RXOK_Msk,                /**< Message received successfu
 339:D:/Workspace/Development/my/DAVE/Infineon_CANopen/Libraries/XMCLib/inc\xmc_can.h ****   XMC_CAN_NODE_STATUS_ALERT_WARNING = CAN_NODE_NSR_ALERT_Msk,       /**< Alert warning */
 340:D:/Workspace/Development/my/DAVE/Infineon_CANopen/Libraries/XMCLib/inc\xmc_can.h ****   XMC_CAN_NODE_STATUS_ERROR_WARNING_STATUS = CAN_NODE_NSR_EWRN_Msk, /**< Error warning status */
 341:D:/Workspace/Development/my/DAVE/Infineon_CANopen/Libraries/XMCLib/inc\xmc_can.h ****   XMC_CAN_NODE_STATUS_BUS_OFF = CAN_NODE_NSR_BOFF_Msk,              /**< Bus-off status */
 342:D:/Workspace/Development/my/DAVE/Infineon_CANopen/Libraries/XMCLib/inc\xmc_can.h ****   XMC_CAN_NODE_STATUS_LIST_LENGTH_ERROR = CAN_NODE_NSR_LLE_Msk,     /**< List length error */
 343:D:/Workspace/Development/my/DAVE/Infineon_CANopen/Libraries/XMCLib/inc\xmc_can.h ****   XMC_CAN_NODE_STATUS_LIST_OBJECT_ERROR = CAN_NODE_NSR_LOE_Msk,     /**< List object error */
 344:D:/Workspace/Development/my/DAVE/Infineon_CANopen/Libraries/XMCLib/inc\xmc_can.h **** #if !defined(MULTICAN_PLUS)
 345:D:/Workspace/Development/my/DAVE/Infineon_CANopen/Libraries/XMCLib/inc\xmc_can.h ****   XMC_CAN_NODE_STATUS_SUSPENDED_ACK = CAN_NODE_NSR_SUSACK_Msk       /**< Suspend Acknowledge */
 346:D:/Workspace/Development/my/DAVE/Infineon_CANopen/Libraries/XMCLib/inc\xmc_can.h **** #endif
 347:D:/Workspace/Development/my/DAVE/Infineon_CANopen/Libraries/XMCLib/inc\xmc_can.h **** } XMC_CAN_NODE_STATUS_t;
 348:D:/Workspace/Development/my/DAVE/Infineon_CANopen/Libraries/XMCLib/inc\xmc_can.h **** 
 349:D:/Workspace/Development/my/DAVE/Infineon_CANopen/Libraries/XMCLib/inc\xmc_can.h **** /**
 350:D:/Workspace/Development/my/DAVE/Infineon_CANopen/Libraries/XMCLib/inc\xmc_can.h ****  * Defines mask value for CAN Node control like initialization, node disable and analyzer mode .
 351:D:/Workspace/Development/my/DAVE/Infineon_CANopen/Libraries/XMCLib/inc\xmc_can.h ****  * Use type \a XMC_CAN_NODE_CONTROL_t for this enum.
 352:D:/Workspace/Development/my/DAVE/Infineon_CANopen/Libraries/XMCLib/inc\xmc_can.h ****  */
 353:D:/Workspace/Development/my/DAVE/Infineon_CANopen/Libraries/XMCLib/inc\xmc_can.h **** typedef enum XMC_CAN_NODE_CONTROL
 354:D:/Workspace/Development/my/DAVE/Infineon_CANopen/Libraries/XMCLib/inc\xmc_can.h **** {
 355:D:/Workspace/Development/my/DAVE/Infineon_CANopen/Libraries/XMCLib/inc\xmc_can.h ****   XMC_CAN_NODE_CONTROL_NODE_INIT = CAN_NODE_NCR_INIT_Msk,            /**< Node initialization */
 356:D:/Workspace/Development/my/DAVE/Infineon_CANopen/Libraries/XMCLib/inc\xmc_can.h ****   XMC_CAN_NODE_CONTROL_TX_INT_ENABLE = CAN_NODE_NCR_TRIE_Msk,        /**< Transfer event enable */
 357:D:/Workspace/Development/my/DAVE/Infineon_CANopen/Libraries/XMCLib/inc\xmc_can.h ****   XMC_CAN_NODE_CONTROL_LEC_INT_ENABLE = CAN_NODE_NCR_LECIE_Msk,      /**< LEC Indicated Error Event
 358:D:/Workspace/Development/my/DAVE/Infineon_CANopen/Libraries/XMCLib/inc\xmc_can.h ****   XMC_CAN_NODE_CONTROL_ALERT_INT_ENABLE = CAN_NODE_NCR_ALIE_Msk,     /**< Alert Event Enable */
 359:D:/Workspace/Development/my/DAVE/Infineon_CANopen/Libraries/XMCLib/inc\xmc_can.h ****   XMC_CAN_NODE_CONTROL_CAN_DISABLE = CAN_NODE_NCR_CANDIS_Msk,        /**< CAN disable */
 360:D:/Workspace/Development/my/DAVE/Infineon_CANopen/Libraries/XMCLib/inc\xmc_can.h ****   XMC_CAN_NODE_CONTROL_CONF_CHANGE_ENABLE = CAN_NODE_NCR_CCE_Msk,    /**< Configuration change enab
 361:D:/Workspace/Development/my/DAVE/Infineon_CANopen/Libraries/XMCLib/inc\xmc_can.h ****   XMC_CAN_NODE_CONTROL_CAN_ANALYZER_NODEDE = CAN_NODE_NCR_CALM_Msk,  /**< CAN Analyzer mode */
 362:D:/Workspace/Development/my/DAVE/Infineon_CANopen/Libraries/XMCLib/inc\xmc_can.h **** #if !defined(MULTICAN_PLUS)
 363:D:/Workspace/Development/my/DAVE/Infineon_CANopen/Libraries/XMCLib/inc\xmc_can.h ****   XMC_CAN_NODE_CONTROL_SUSPENDED_ENABLE = CAN_NODE_NCR_SUSEN_Msk     /**< Suspend Enable */
 364:D:/Workspace/Development/my/DAVE/Infineon_CANopen/Libraries/XMCLib/inc\xmc_can.h **** #endif
 365:D:/Workspace/Development/my/DAVE/Infineon_CANopen/Libraries/XMCLib/inc\xmc_can.h **** } XMC_CAN_NODE_CONTROL_t;
 366:D:/Workspace/Development/my/DAVE/Infineon_CANopen/Libraries/XMCLib/inc\xmc_can.h **** 
 367:D:/Workspace/Development/my/DAVE/Infineon_CANopen/Libraries/XMCLib/inc\xmc_can.h **** /**
 368:D:/Workspace/Development/my/DAVE/Infineon_CANopen/Libraries/XMCLib/inc\xmc_can.h ****  * Defines mask value for CAN Node events. Use type \a XMC_CAN_NODE_EVENT_t for this enum.
 369:D:/Workspace/Development/my/DAVE/Infineon_CANopen/Libraries/XMCLib/inc\xmc_can.h ****  */
 370:D:/Workspace/Development/my/DAVE/Infineon_CANopen/Libraries/XMCLib/inc\xmc_can.h **** typedef enum XMC_CAN_NODE_EVENT
 371:D:/Workspace/Development/my/DAVE/Infineon_CANopen/Libraries/XMCLib/inc\xmc_can.h **** {
 372:D:/Workspace/Development/my/DAVE/Infineon_CANopen/Libraries/XMCLib/inc\xmc_can.h ****   XMC_CAN_NODE_EVENT_TX_INT = CAN_NODE_NCR_TRIE_Msk,   /**< Node Transfer OK Event */
 373:D:/Workspace/Development/my/DAVE/Infineon_CANopen/Libraries/XMCLib/inc\xmc_can.h ****   XMC_CAN_NODE_EVENT_ALERT = CAN_NODE_NCR_ALIE_Msk,    /**< Node Alert Event */
 374:D:/Workspace/Development/my/DAVE/Infineon_CANopen/Libraries/XMCLib/inc\xmc_can.h ****   XMC_CAN_NODE_EVENT_LEC = CAN_NODE_NCR_LECIE_Msk,     /**< Last Error code Event */
 375:D:/Workspace/Development/my/DAVE/Infineon_CANopen/Libraries/XMCLib/inc\xmc_can.h ****   XMC_CAN_NODE_EVENT_CFCIE = CAN_NODE_NFCR_CFCIE_Msk   /**< CAN Frame Count Event  */
 376:D:/Workspace/Development/my/DAVE/Infineon_CANopen/Libraries/XMCLib/inc\xmc_can.h **** } XMC_CAN_NODE_EVENT_t;
 377:D:/Workspace/Development/my/DAVE/Infineon_CANopen/Libraries/XMCLib/inc\xmc_can.h **** 
 378:D:/Workspace/Development/my/DAVE/Infineon_CANopen/Libraries/XMCLib/inc\xmc_can.h **** /**
 379:D:/Workspace/Development/my/DAVE/Infineon_CANopen/Libraries/XMCLib/inc\xmc_can.h ****  * Defines mask value for CAN node pointer events position. Use type \a XMC_CAN_NODE_POINTER_EVENT_
 380:D:/Workspace/Development/my/DAVE/Infineon_CANopen/Libraries/XMCLib/inc\xmc_can.h ****  */
 381:D:/Workspace/Development/my/DAVE/Infineon_CANopen/Libraries/XMCLib/inc\xmc_can.h **** typedef enum XMC_CAN_NODE_POINTER_EVENT
 382:D:/Workspace/Development/my/DAVE/Infineon_CANopen/Libraries/XMCLib/inc\xmc_can.h **** {
 383:D:/Workspace/Development/my/DAVE/Infineon_CANopen/Libraries/XMCLib/inc\xmc_can.h ****   XMC_CAN_NODE_POINTER_EVENT_ALERT = CAN_NODE_NIPR_ALINP_Pos,           /**< Node Alert Event node 
 384:D:/Workspace/Development/my/DAVE/Infineon_CANopen/Libraries/XMCLib/inc\xmc_can.h ****   XMC_CAN_NODE_POINTER_EVENT_LEC = CAN_NODE_NIPR_LECINP_Pos,            /**< Last Error code Event 
 385:D:/Workspace/Development/my/DAVE/Infineon_CANopen/Libraries/XMCLib/inc\xmc_can.h ****   XMC_CAN_NODE_POINTER_EVENT_TRANSFER_OK = CAN_NODE_NIPR_TRINP_Pos,     /**< Transmit Event node po
 386:D:/Workspace/Development/my/DAVE/Infineon_CANopen/Libraries/XMCLib/inc\xmc_can.h ****   XMC_CAN_NODE_POINTER_EVENT_FRAME_COUNTER = CAN_NODE_NIPR_CFCINP_Pos   /**< CAN Frame Count Event 
 387:D:/Workspace/Development/my/DAVE/Infineon_CANopen/Libraries/XMCLib/inc\xmc_can.h **** } XMC_CAN_NODE_POINTER_EVENT_t;
 388:D:/Workspace/Development/my/DAVE/Infineon_CANopen/Libraries/XMCLib/inc\xmc_can.h **** 
 389:D:/Workspace/Development/my/DAVE/Infineon_CANopen/Libraries/XMCLib/inc\xmc_can.h **** /**
 390:D:/Workspace/Development/my/DAVE/Infineon_CANopen/Libraries/XMCLib/inc\xmc_can.h ****  * Defines CAN Message Object event node pointer position. Use type \a XMC_CAN_MO_POINTER_EVENT_t f
 391:D:/Workspace/Development/my/DAVE/Infineon_CANopen/Libraries/XMCLib/inc\xmc_can.h ****  */
 392:D:/Workspace/Development/my/DAVE/Infineon_CANopen/Libraries/XMCLib/inc\xmc_can.h **** typedef enum XMC_CAN_MO_POINTER_EVENT
 393:D:/Workspace/Development/my/DAVE/Infineon_CANopen/Libraries/XMCLib/inc\xmc_can.h **** {
 394:D:/Workspace/Development/my/DAVE/Infineon_CANopen/Libraries/XMCLib/inc\xmc_can.h ****   XMC_CAN_MO_POINTER_EVENT_TRANSMIT = CAN_MO_MOIPR_TXINP_Pos,     /**< Transmit Event node pointer 
 395:D:/Workspace/Development/my/DAVE/Infineon_CANopen/Libraries/XMCLib/inc\xmc_can.h ****   XMC_CAN_MO_POINTER_EVENT_RECEIVE = CAN_MO_MOIPR_RXINP_Pos       /**< Receive Event node pointer *
 396:D:/Workspace/Development/my/DAVE/Infineon_CANopen/Libraries/XMCLib/inc\xmc_can.h **** } XMC_CAN_MO_POINTER_EVENT_t;
 397:D:/Workspace/Development/my/DAVE/Infineon_CANopen/Libraries/XMCLib/inc\xmc_can.h **** 
 398:D:/Workspace/Development/my/DAVE/Infineon_CANopen/Libraries/XMCLib/inc\xmc_can.h **** /**
 399:D:/Workspace/Development/my/DAVE/Infineon_CANopen/Libraries/XMCLib/inc\xmc_can.h ****  * Defines mask value for CAN Message Object event type. Use type \a XMC_CAN_MO_EVENT_t for this en
 400:D:/Workspace/Development/my/DAVE/Infineon_CANopen/Libraries/XMCLib/inc\xmc_can.h ****  */
 401:D:/Workspace/Development/my/DAVE/Infineon_CANopen/Libraries/XMCLib/inc\xmc_can.h **** typedef enum XMC_CAN_MO_EVENT
 402:D:/Workspace/Development/my/DAVE/Infineon_CANopen/Libraries/XMCLib/inc\xmc_can.h **** {
 403:D:/Workspace/Development/my/DAVE/Infineon_CANopen/Libraries/XMCLib/inc\xmc_can.h ****   XMC_CAN_MO_EVENT_TRANSMIT = CAN_MO_MOFCR_TXIE_Msk,  /**< Message Object transmit event */
 404:D:/Workspace/Development/my/DAVE/Infineon_CANopen/Libraries/XMCLib/inc\xmc_can.h ****   XMC_CAN_MO_EVENT_RECEIVE = CAN_MO_MOFCR_RXIE_Msk,   /**< Message Object receive event */
 405:D:/Workspace/Development/my/DAVE/Infineon_CANopen/Libraries/XMCLib/inc\xmc_can.h ****   XMC_CAN_MO_EVENT_OVERFLOW = CAN_MO_MOFCR_OVIE_Msk,  /**< Message Object overflow event */
 406:D:/Workspace/Development/my/DAVE/Infineon_CANopen/Libraries/XMCLib/inc\xmc_can.h **** } XMC_CAN_MO_EVENT_t;
 407:D:/Workspace/Development/my/DAVE/Infineon_CANopen/Libraries/XMCLib/inc\xmc_can.h **** 
 408:D:/Workspace/Development/my/DAVE/Infineon_CANopen/Libraries/XMCLib/inc\xmc_can.h **** /**
 409:D:/Workspace/Development/my/DAVE/Infineon_CANopen/Libraries/XMCLib/inc\xmc_can.h ****  * Defines the possible receive inputs. Use type \a XMC_CAN_NODE_RECEIVE_INPUT_t for this enum.
 410:D:/Workspace/Development/my/DAVE/Infineon_CANopen/Libraries/XMCLib/inc\xmc_can.h ****  */
 411:D:/Workspace/Development/my/DAVE/Infineon_CANopen/Libraries/XMCLib/inc\xmc_can.h **** typedef enum XMC_CAN_NODE_RECEIVE_INPUT
 412:D:/Workspace/Development/my/DAVE/Infineon_CANopen/Libraries/XMCLib/inc\xmc_can.h **** {
 413:D:/Workspace/Development/my/DAVE/Infineon_CANopen/Libraries/XMCLib/inc\xmc_can.h ****   XMC_CAN_NODE_RECEIVE_INPUT_RXDCA,   /**< CAN Receive Input A */
 414:D:/Workspace/Development/my/DAVE/Infineon_CANopen/Libraries/XMCLib/inc\xmc_can.h ****   XMC_CAN_NODE_RECEIVE_INPUT_RXDCB,   /**< CAN Receive Input B */
 415:D:/Workspace/Development/my/DAVE/Infineon_CANopen/Libraries/XMCLib/inc\xmc_can.h ****   XMC_CAN_NODE_RECEIVE_INPUT_RXDCC,   /**< CAN Receive Input C */
 416:D:/Workspace/Development/my/DAVE/Infineon_CANopen/Libraries/XMCLib/inc\xmc_can.h ****   XMC_CAN_NODE_RECEIVE_INPUT_RXDCD,   /**< CAN Receive Input D */
 417:D:/Workspace/Development/my/DAVE/Infineon_CANopen/Libraries/XMCLib/inc\xmc_can.h ****   XMC_CAN_NODE_RECEIVE_INPUT_RXDCE,   /**< CAN Receive Input E */
 418:D:/Workspace/Development/my/DAVE/Infineon_CANopen/Libraries/XMCLib/inc\xmc_can.h ****   XMC_CAN_NODE_RECEIVE_INPUT_RXDCF,   /**< CAN Receive Input F */
 419:D:/Workspace/Development/my/DAVE/Infineon_CANopen/Libraries/XMCLib/inc\xmc_can.h ****   XMC_CAN_NODE_RECEIVE_INPUT_RXDCG,   /**< CAN Receive Input G */
 420:D:/Workspace/Development/my/DAVE/Infineon_CANopen/Libraries/XMCLib/inc\xmc_can.h ****   XMC_CAN_NODE_RECEIVE_INPUT_RXDCH    /**< CAN Receive Input H */
 421:D:/Workspace/Development/my/DAVE/Infineon_CANopen/Libraries/XMCLib/inc\xmc_can.h **** } XMC_CAN_NODE_RECEIVE_INPUT_t;
 422:D:/Workspace/Development/my/DAVE/Infineon_CANopen/Libraries/XMCLib/inc\xmc_can.h **** 
 423:D:/Workspace/Development/my/DAVE/Infineon_CANopen/Libraries/XMCLib/inc\xmc_can.h **** /**
 424:D:/Workspace/Development/my/DAVE/Infineon_CANopen/Libraries/XMCLib/inc\xmc_can.h ****  * Defines last error transfer direction. Use type \a XMC_CAN_NODE_LAST_ERROR_DIR_t for this enum.
 425:D:/Workspace/Development/my/DAVE/Infineon_CANopen/Libraries/XMCLib/inc\xmc_can.h ****  */
 426:D:/Workspace/Development/my/DAVE/Infineon_CANopen/Libraries/XMCLib/inc\xmc_can.h **** typedef enum XMC_CAN_NODE_LAST_ERROR_DIR
 427:D:/Workspace/Development/my/DAVE/Infineon_CANopen/Libraries/XMCLib/inc\xmc_can.h **** {
 428:D:/Workspace/Development/my/DAVE/Infineon_CANopen/Libraries/XMCLib/inc\xmc_can.h ****   XMC_CAN_NODE_LAST_ERROR_DIR_WHILE_NODE_RECEPCION,    /**< The last error occurred while the CAN n
 429:D:/Workspace/Development/my/DAVE/Infineon_CANopen/Libraries/XMCLib/inc\xmc_can.h ****   XMC_CAN_NODE_LAST_ERROR_DIR_WHILE_NODE_TRANSMISSION  /**< The last error occurred while the CAN n
 430:D:/Workspace/Development/my/DAVE/Infineon_CANopen/Libraries/XMCLib/inc\xmc_can.h **** } XMC_CAN_NODE_LAST_ERROR_DIR_t;
 431:D:/Workspace/Development/my/DAVE/Infineon_CANopen/Libraries/XMCLib/inc\xmc_can.h **** 
 432:D:/Workspace/Development/my/DAVE/Infineon_CANopen/Libraries/XMCLib/inc\xmc_can.h **** 
 433:D:/Workspace/Development/my/DAVE/Infineon_CANopen/Libraries/XMCLib/inc\xmc_can.h **** /**
 434:D:/Workspace/Development/my/DAVE/Infineon_CANopen/Libraries/XMCLib/inc\xmc_can.h ****  * Defines last error increment. Use type \a XMC_CAN_NODE_LAST_ERROR_INC_t for this enum.
 435:D:/Workspace/Development/my/DAVE/Infineon_CANopen/Libraries/XMCLib/inc\xmc_can.h ****  */
 436:D:/Workspace/Development/my/DAVE/Infineon_CANopen/Libraries/XMCLib/inc\xmc_can.h **** typedef enum XMC_CAN_NODE_LAST_ERROR_INC
 437:D:/Workspace/Development/my/DAVE/Infineon_CANopen/Libraries/XMCLib/inc\xmc_can.h **** {
 438:D:/Workspace/Development/my/DAVE/Infineon_CANopen/Libraries/XMCLib/inc\xmc_can.h ****   XMC_CAN_NODE_LAST_ERROR_INC_1, /**< The last error led to an error counter increment of 1. */
 439:D:/Workspace/Development/my/DAVE/Infineon_CANopen/Libraries/XMCLib/inc\xmc_can.h ****   XMC_CAN_NODE_LAST_ERROR_INC_8  /**< The last error led to an error counter increment of 8. */
 440:D:/Workspace/Development/my/DAVE/Infineon_CANopen/Libraries/XMCLib/inc\xmc_can.h **** } XMC_CAN_NODE_LAST_ERROR_INC_t;
 441:D:/Workspace/Development/my/DAVE/Infineon_CANopen/Libraries/XMCLib/inc\xmc_can.h **** 
 442:D:/Workspace/Development/my/DAVE/Infineon_CANopen/Libraries/XMCLib/inc\xmc_can.h **** /**
 443:D:/Workspace/Development/my/DAVE/Infineon_CANopen/Libraries/XMCLib/inc\xmc_can.h ****  * Defines interrupt request on interrupt output line INT_O[n]. Use type \a XMC_CAN_NODE_INTERRUPT_
 444:D:/Workspace/Development/my/DAVE/Infineon_CANopen/Libraries/XMCLib/inc\xmc_can.h ****  */
 445:D:/Workspace/Development/my/DAVE/Infineon_CANopen/Libraries/XMCLib/inc\xmc_can.h **** typedef enum XMC_CAN_NODE_INTERRUPT_TRIGGER
 446:D:/Workspace/Development/my/DAVE/Infineon_CANopen/Libraries/XMCLib/inc\xmc_can.h **** {
 447:D:/Workspace/Development/my/DAVE/Infineon_CANopen/Libraries/XMCLib/inc\xmc_can.h ****   XMC_CAN_NODE_INTR_TRIGGER_0 = 0x1U,
 448:D:/Workspace/Development/my/DAVE/Infineon_CANopen/Libraries/XMCLib/inc\xmc_can.h ****   XMC_CAN_NODE_INTR_TRIGGER_1 = 0x2U,
 449:D:/Workspace/Development/my/DAVE/Infineon_CANopen/Libraries/XMCLib/inc\xmc_can.h ****   XMC_CAN_NODE_INTR_TRIGGER_2 = 0x4U,
 450:D:/Workspace/Development/my/DAVE/Infineon_CANopen/Libraries/XMCLib/inc\xmc_can.h ****   XMC_CAN_NODE_INTR_TRIGGER_3 = 0x8U,
 451:D:/Workspace/Development/my/DAVE/Infineon_CANopen/Libraries/XMCLib/inc\xmc_can.h ****   XMC_CAN_NODE_INTR_TRIGGER_4 = 0x16U,
 452:D:/Workspace/Development/my/DAVE/Infineon_CANopen/Libraries/XMCLib/inc\xmc_can.h ****   XMC_CAN_NODE_INTR_TRIGGER_5 = 0x32U,
 453:D:/Workspace/Development/my/DAVE/Infineon_CANopen/Libraries/XMCLib/inc\xmc_can.h ****   XMC_CAN_NODE_INTR_TRIGGER_6 = 0x64U,
 454:D:/Workspace/Development/my/DAVE/Infineon_CANopen/Libraries/XMCLib/inc\xmc_can.h ****   XMC_CAN_NODE_INTR_TRIGGER_7 = 0x128U,
 455:D:/Workspace/Development/my/DAVE/Infineon_CANopen/Libraries/XMCLib/inc\xmc_can.h **** } XMC_CAN_NODE_INTERRUPT_TRIGGER_t;
 456:D:/Workspace/Development/my/DAVE/Infineon_CANopen/Libraries/XMCLib/inc\xmc_can.h **** 
 457:D:/Workspace/Development/my/DAVE/Infineon_CANopen/Libraries/XMCLib/inc\xmc_can.h **** /**
 458:D:/Workspace/Development/my/DAVE/Infineon_CANopen/Libraries/XMCLib/inc\xmc_can.h ****  * Defines the Clock source used for the MCAN baudrate generator
 459:D:/Workspace/Development/my/DAVE/Infineon_CANopen/Libraries/XMCLib/inc\xmc_can.h ****  */
 460:D:/Workspace/Development/my/DAVE/Infineon_CANopen/Libraries/XMCLib/inc\xmc_can.h **** typedef enum XMC_CAN_CANCLKSRC
 461:D:/Workspace/Development/my/DAVE/Infineon_CANopen/Libraries/XMCLib/inc\xmc_can.h **** {
 462:D:/Workspace/Development/my/DAVE/Infineon_CANopen/Libraries/XMCLib/inc\xmc_can.h **** #if defined(MULTICAN_PLUS) || defined(DOXYGEN)
 463:D:/Workspace/Development/my/DAVE/Infineon_CANopen/Libraries/XMCLib/inc\xmc_can.h **** #if (UC_FAMILY == XMC4)
 464:D:/Workspace/Development/my/DAVE/Infineon_CANopen/Libraries/XMCLib/inc\xmc_can.h ****   XMC_CAN_CANCLKSRC_FPERI = 0x1U, /**< Use peripheral clock as MCAN baudrate generator input clock.
 465:D:/Workspace/Development/my/DAVE/Infineon_CANopen/Libraries/XMCLib/inc\xmc_can.h **** #else
 466:D:/Workspace/Development/my/DAVE/Infineon_CANopen/Libraries/XMCLib/inc\xmc_can.h ****   XMC_CAN_CANCLKSRC_MCLK = 0x1U, /**< Use peripheral clock as MCAN baudrate generator input clock. 
 467:D:/Workspace/Development/my/DAVE/Infineon_CANopen/Libraries/XMCLib/inc\xmc_can.h **** #endif
 468:D:/Workspace/Development/my/DAVE/Infineon_CANopen/Libraries/XMCLib/inc\xmc_can.h ****   XMC_CAN_CANCLKSRC_FOHP = 0x2U, /**< Use high performance oscillator (fOHP) as MCAN baudrate gener
 469:D:/Workspace/Development/my/DAVE/Infineon_CANopen/Libraries/XMCLib/inc\xmc_can.h **** #else
 470:D:/Workspace/Development/my/DAVE/Infineon_CANopen/Libraries/XMCLib/inc\xmc_can.h ****   XMC_CAN_CANCLKSRC_FPERI = 0x1U, /**< Use peripheral clock as MCAN baudrate generator input clock.
 471:D:/Workspace/Development/my/DAVE/Infineon_CANopen/Libraries/XMCLib/inc\xmc_can.h **** #endif
 472:D:/Workspace/Development/my/DAVE/Infineon_CANopen/Libraries/XMCLib/inc\xmc_can.h **** } XMC_CAN_CANCLKSRC_t;
 473:D:/Workspace/Development/my/DAVE/Infineon_CANopen/Libraries/XMCLib/inc\xmc_can.h **** 
 474:D:/Workspace/Development/my/DAVE/Infineon_CANopen/Libraries/XMCLib/inc\xmc_can.h **** /**************************************************************************************************
 475:D:/Workspace/Development/my/DAVE/Infineon_CANopen/Libraries/XMCLib/inc\xmc_can.h ****  * DATA STRUCTURES
 476:D:/Workspace/Development/my/DAVE/Infineon_CANopen/Libraries/XMCLib/inc\xmc_can.h ****  **************************************************************************************************
 477:D:/Workspace/Development/my/DAVE/Infineon_CANopen/Libraries/XMCLib/inc\xmc_can.h **** /**
 478:D:/Workspace/Development/my/DAVE/Infineon_CANopen/Libraries/XMCLib/inc\xmc_can.h ****  * Defines CAN node Nominal Bit Time. Use type \a XMC_CAN_NODE_NOMINAL_BIT_TIME_CONFIG_t for this s
 479:D:/Workspace/Development/my/DAVE/Infineon_CANopen/Libraries/XMCLib/inc\xmc_can.h **** */
 480:D:/Workspace/Development/my/DAVE/Infineon_CANopen/Libraries/XMCLib/inc\xmc_can.h **** typedef struct XMC_CAN_NODE_NOMINAL_BIT_TIME_CONFIG
 481:D:/Workspace/Development/my/DAVE/Infineon_CANopen/Libraries/XMCLib/inc\xmc_can.h **** {
 482:D:/Workspace/Development/my/DAVE/Infineon_CANopen/Libraries/XMCLib/inc\xmc_can.h ****   uint32_t can_frequency;     /**< Frequency of the CAN module(fCAN). \a can_frequency shall be ran
 483:D:/Workspace/Development/my/DAVE/Infineon_CANopen/Libraries/XMCLib/inc\xmc_can.h ****   uint32_t baudrate;          /**< Specifies the node baud rate. Unit: baud \a baudrate shall be ra
 484:D:/Workspace/Development/my/DAVE/Infineon_CANopen/Libraries/XMCLib/inc\xmc_can.h ****   uint16_t sample_point;      /**< Sample point is used to compensate mismatch between transmitter 
 485:D:/Workspace/Development/my/DAVE/Infineon_CANopen/Libraries/XMCLib/inc\xmc_can.h ****                                    the synchronization segment. Sample point. Range = [0, 10000] wi
 486:D:/Workspace/Development/my/DAVE/Infineon_CANopen/Libraries/XMCLib/inc\xmc_can.h ****   uint16_t sjw;               /**< (Re) Synchronization Jump Width. Range:0-3 */
 487:D:/Workspace/Development/my/DAVE/Infineon_CANopen/Libraries/XMCLib/inc\xmc_can.h **** } XMC_CAN_NODE_NOMINAL_BIT_TIME_CONFIG_t;
 488:D:/Workspace/Development/my/DAVE/Infineon_CANopen/Libraries/XMCLib/inc\xmc_can.h **** 
 489:D:/Workspace/Development/my/DAVE/Infineon_CANopen/Libraries/XMCLib/inc\xmc_can.h **** /**
 490:D:/Workspace/Development/my/DAVE/Infineon_CANopen/Libraries/XMCLib/inc\xmc_can.h ****  * Defines base, top and bottom of CAN Message Object FIFO Structure. Use type \a XMC_CAN_FIFO_CONF
 491:D:/Workspace/Development/my/DAVE/Infineon_CANopen/Libraries/XMCLib/inc\xmc_can.h ****  * A FIFO consists of one base object and n slave objects.
 492:D:/Workspace/Development/my/DAVE/Infineon_CANopen/Libraries/XMCLib/inc\xmc_can.h ****  */
 493:D:/Workspace/Development/my/DAVE/Infineon_CANopen/Libraries/XMCLib/inc\xmc_can.h **** typedef struct XMC_CAN_FIFO_CONFIG
 494:D:/Workspace/Development/my/DAVE/Infineon_CANopen/Libraries/XMCLib/inc\xmc_can.h **** {
 495:D:/Workspace/Development/my/DAVE/Infineon_CANopen/Libraries/XMCLib/inc\xmc_can.h ****   uint8_t fifo_bottom;    /**< points to the first element(slave object) in a FIFO structure.Range 
 496:D:/Workspace/Development/my/DAVE/Infineon_CANopen/Libraries/XMCLib/inc\xmc_can.h ****   uint8_t fifo_top;     /**< points to the last element(slave object) in a FIFO structure. Range :0
 497:D:/Workspace/Development/my/DAVE/Infineon_CANopen/Libraries/XMCLib/inc\xmc_can.h ****   uint8_t fifo_base;    /**< points to the actual target object(Base object) within a FIFO/Gateway 
 498:D:/Workspace/Development/my/DAVE/Infineon_CANopen/Libraries/XMCLib/inc\xmc_can.h **** } XMC_CAN_FIFO_CONFIG_t;
 499:D:/Workspace/Development/my/DAVE/Infineon_CANopen/Libraries/XMCLib/inc\xmc_can.h **** 
 500:D:/Workspace/Development/my/DAVE/Infineon_CANopen/Libraries/XMCLib/inc\xmc_can.h **** /**
 501:D:/Workspace/Development/my/DAVE/Infineon_CANopen/Libraries/XMCLib/inc\xmc_can.h ****  * Defines CAN Gateway FIFO structure and provides additional options for gateway destination objec
 502:D:/Workspace/Development/my/DAVE/Infineon_CANopen/Libraries/XMCLib/inc\xmc_can.h ****  * Use type \a XMC_CAN_GATEWAY_CONFIG_t for this structure.
 503:D:/Workspace/Development/my/DAVE/Infineon_CANopen/Libraries/XMCLib/inc\xmc_can.h ****  */
 504:D:/Workspace/Development/my/DAVE/Infineon_CANopen/Libraries/XMCLib/inc\xmc_can.h **** typedef struct XMC_CAN_GATEWAY_CONFIG
 505:D:/Workspace/Development/my/DAVE/Infineon_CANopen/Libraries/XMCLib/inc\xmc_can.h **** {
 506:D:/Workspace/Development/my/DAVE/Infineon_CANopen/Libraries/XMCLib/inc\xmc_can.h ****   uint8_t gateway_bottom;       /**< points to the first element(gateway destination object) in a F
 507:D:/Workspace/Development/my/DAVE/Infineon_CANopen/Libraries/XMCLib/inc\xmc_can.h ****   uint8_t gateway_top;        /**< points to the last element(gateway destination object) in a FIFO
 508:D:/Workspace/Development/my/DAVE/Infineon_CANopen/Libraries/XMCLib/inc\xmc_can.h ****   uint8_t gateway_base;       /**< points to the actual target object within a FIFO/Gateway structu
 509:D:/Workspace/Development/my/DAVE/Infineon_CANopen/Libraries/XMCLib/inc\xmc_can.h ****   bool gateway_data_frame_send;   /**< TXRQ updated in the gateway destination object after the int
 510:D:/Workspace/Development/my/DAVE/Infineon_CANopen/Libraries/XMCLib/inc\xmc_can.h ****                                          to the gateway destination object */
 511:D:/Workspace/Development/my/DAVE/Infineon_CANopen/Libraries/XMCLib/inc\xmc_can.h ****   bool gateway_identifier_copy;   /**< The identifier of the gateway source object (after storing t
 512:D:/Workspace/Development/my/DAVE/Infineon_CANopen/Libraries/XMCLib/inc\xmc_can.h ****                                          to the gateway destination object. */
 513:D:/Workspace/Development/my/DAVE/Infineon_CANopen/Libraries/XMCLib/inc\xmc_can.h **** 
 514:D:/Workspace/Development/my/DAVE/Infineon_CANopen/Libraries/XMCLib/inc\xmc_can.h ****   bool gateway_data_length_code_copy; /**< Data length code of the gateway source object (after sto
 515:D:/Workspace/Development/my/DAVE/Infineon_CANopen/Libraries/XMCLib/inc\xmc_can.h ****                                            gateway destination object */
 516:D:/Workspace/Development/my/DAVE/Infineon_CANopen/Libraries/XMCLib/inc\xmc_can.h ****   bool gateway_data_copy;  /**< Data fields in registers MODATALn and MODATAHn of the gateway sourc
 517:D:/Workspace/Development/my/DAVE/Infineon_CANopen/Libraries/XMCLib/inc\xmc_can.h ****                                 are copied to the gateway destination.*/
 518:D:/Workspace/Development/my/DAVE/Infineon_CANopen/Libraries/XMCLib/inc\xmc_can.h **** 
 519:D:/Workspace/Development/my/DAVE/Infineon_CANopen/Libraries/XMCLib/inc\xmc_can.h **** } XMC_CAN_GATEWAY_CONFIG_t;
 520:D:/Workspace/Development/my/DAVE/Infineon_CANopen/Libraries/XMCLib/inc\xmc_can.h **** 
 521:D:/Workspace/Development/my/DAVE/Infineon_CANopen/Libraries/XMCLib/inc\xmc_can.h **** /**
 522:D:/Workspace/Development/my/DAVE/Infineon_CANopen/Libraries/XMCLib/inc\xmc_can.h **** * Defines CAN Global Initialization structure
 523:D:/Workspace/Development/my/DAVE/Infineon_CANopen/Libraries/XMCLib/inc\xmc_can.h **** */
 524:D:/Workspace/Development/my/DAVE/Infineon_CANopen/Libraries/XMCLib/inc\xmc_can.h **** typedef CAN_GLOBAL_TypeDef XMC_CAN_t;
 525:D:/Workspace/Development/my/DAVE/Infineon_CANopen/Libraries/XMCLib/inc\xmc_can.h **** 
 526:D:/Workspace/Development/my/DAVE/Infineon_CANopen/Libraries/XMCLib/inc\xmc_can.h **** /*Anonymous structure/union guard start*/
 527:D:/Workspace/Development/my/DAVE/Infineon_CANopen/Libraries/XMCLib/inc\xmc_can.h **** #if defined(__CC_ARM)
 528:D:/Workspace/Development/my/DAVE/Infineon_CANopen/Libraries/XMCLib/inc\xmc_can.h **** #pragma push
 529:D:/Workspace/Development/my/DAVE/Infineon_CANopen/Libraries/XMCLib/inc\xmc_can.h **** #pragma anon_unions
 530:D:/Workspace/Development/my/DAVE/Infineon_CANopen/Libraries/XMCLib/inc\xmc_can.h **** #elif defined(__TASKING__)
 531:D:/Workspace/Development/my/DAVE/Infineon_CANopen/Libraries/XMCLib/inc\xmc_can.h **** #pragma warning 586
 532:D:/Workspace/Development/my/DAVE/Infineon_CANopen/Libraries/XMCLib/inc\xmc_can.h **** #endif
 533:D:/Workspace/Development/my/DAVE/Infineon_CANopen/Libraries/XMCLib/inc\xmc_can.h **** 
 534:D:/Workspace/Development/my/DAVE/Infineon_CANopen/Libraries/XMCLib/inc\xmc_can.h **** /**
 535:D:/Workspace/Development/my/DAVE/Infineon_CANopen/Libraries/XMCLib/inc\xmc_can.h ****  * Defines frame counter configuration. Use type \a XMC_CAN_NODE_FRAME_COUNTER_t for this structure
 536:D:/Workspace/Development/my/DAVE/Infineon_CANopen/Libraries/XMCLib/inc\xmc_can.h ****  * It provides configuration of frame counter that counts transmitted/received CAN frames or obtain
 537:D:/Workspace/Development/my/DAVE/Infineon_CANopen/Libraries/XMCLib/inc\xmc_can.h ****  * when a frame has been started to transmit or be received by the CAN node.
 538:D:/Workspace/Development/my/DAVE/Infineon_CANopen/Libraries/XMCLib/inc\xmc_can.h **** */
 539:D:/Workspace/Development/my/DAVE/Infineon_CANopen/Libraries/XMCLib/inc\xmc_can.h **** typedef struct XMC_CAN_NODE_FRAME_COUNTER
 540:D:/Workspace/Development/my/DAVE/Infineon_CANopen/Libraries/XMCLib/inc\xmc_can.h **** {
 541:D:/Workspace/Development/my/DAVE/Infineon_CANopen/Libraries/XMCLib/inc\xmc_can.h **** 
 542:D:/Workspace/Development/my/DAVE/Infineon_CANopen/Libraries/XMCLib/inc\xmc_can.h ****   union
 543:D:/Workspace/Development/my/DAVE/Infineon_CANopen/Libraries/XMCLib/inc\xmc_can.h ****   {
 544:D:/Workspace/Development/my/DAVE/Infineon_CANopen/Libraries/XMCLib/inc\xmc_can.h ****     struct
 545:D:/Workspace/Development/my/DAVE/Infineon_CANopen/Libraries/XMCLib/inc\xmc_can.h ****     {
 546:D:/Workspace/Development/my/DAVE/Infineon_CANopen/Libraries/XMCLib/inc\xmc_can.h ****       uint32_t : 16;
 547:D:/Workspace/Development/my/DAVE/Infineon_CANopen/Libraries/XMCLib/inc\xmc_can.h ****       uint32_t can_frame_count_selection: 3;  /**<   Defines function of the frame counter  */
 548:D:/Workspace/Development/my/DAVE/Infineon_CANopen/Libraries/XMCLib/inc\xmc_can.h ****       uint32_t can_frame_count_mode: 2;     /**<   Determines the operation mode of the frame count
 549:D:/Workspace/Development/my/DAVE/Infineon_CANopen/Libraries/XMCLib/inc\xmc_can.h ****       uint32_t : 11;
 550:D:/Workspace/Development/my/DAVE/Infineon_CANopen/Libraries/XMCLib/inc\xmc_can.h ****     };
 551:D:/Workspace/Development/my/DAVE/Infineon_CANopen/Libraries/XMCLib/inc\xmc_can.h ****     uint32_t nfcr;
 552:D:/Workspace/Development/my/DAVE/Infineon_CANopen/Libraries/XMCLib/inc\xmc_can.h **** 
 553:D:/Workspace/Development/my/DAVE/Infineon_CANopen/Libraries/XMCLib/inc\xmc_can.h ****   };
 554:D:/Workspace/Development/my/DAVE/Infineon_CANopen/Libraries/XMCLib/inc\xmc_can.h **** } XMC_CAN_NODE_FRAME_COUNTER_t;
 555:D:/Workspace/Development/my/DAVE/Infineon_CANopen/Libraries/XMCLib/inc\xmc_can.h **** 
 556:D:/Workspace/Development/my/DAVE/Infineon_CANopen/Libraries/XMCLib/inc\xmc_can.h **** /**
 557:D:/Workspace/Development/my/DAVE/Infineon_CANopen/Libraries/XMCLib/inc\xmc_can.h ****  *Defines Node Runtime structure.
 558:D:/Workspace/Development/my/DAVE/Infineon_CANopen/Libraries/XMCLib/inc\xmc_can.h **** */
 559:D:/Workspace/Development/my/DAVE/Infineon_CANopen/Libraries/XMCLib/inc\xmc_can.h **** typedef CAN_NODE_TypeDef  XMC_CAN_NODE_t;            /**<  pointer to the Node CAN register */
 560:D:/Workspace/Development/my/DAVE/Infineon_CANopen/Libraries/XMCLib/inc\xmc_can.h **** 
 561:D:/Workspace/Development/my/DAVE/Infineon_CANopen/Libraries/XMCLib/inc\xmc_can.h **** /**
 562:D:/Workspace/Development/my/DAVE/Infineon_CANopen/Libraries/XMCLib/inc\xmc_can.h ****  * Defines CAN Message Object runtime elements. Use type \a XMC_CAN_MO_t for this structure.
 563:D:/Workspace/Development/my/DAVE/Infineon_CANopen/Libraries/XMCLib/inc\xmc_can.h ****  */
 564:D:/Workspace/Development/my/DAVE/Infineon_CANopen/Libraries/XMCLib/inc\xmc_can.h **** typedef struct XMC_CAN_MO
 565:D:/Workspace/Development/my/DAVE/Infineon_CANopen/Libraries/XMCLib/inc\xmc_can.h **** {
 566:D:/Workspace/Development/my/DAVE/Infineon_CANopen/Libraries/XMCLib/inc\xmc_can.h ****   CAN_MO_TypeDef *can_mo_ptr;                     /**< Pointer to the Message Object CAN register *
 567:D:/Workspace/Development/my/DAVE/Infineon_CANopen/Libraries/XMCLib/inc\xmc_can.h ****   union
 568:D:/Workspace/Development/my/DAVE/Infineon_CANopen/Libraries/XMCLib/inc\xmc_can.h ****   {
 569:D:/Workspace/Development/my/DAVE/Infineon_CANopen/Libraries/XMCLib/inc\xmc_can.h ****     struct
 570:D:/Workspace/Development/my/DAVE/Infineon_CANopen/Libraries/XMCLib/inc\xmc_can.h ****     {
 571:D:/Workspace/Development/my/DAVE/Infineon_CANopen/Libraries/XMCLib/inc\xmc_can.h ****       uint32_t can_identifier: 29;           /**< standard (11 bit)/Extended (29 bit) message ident
 572:D:/Workspace/Development/my/DAVE/Infineon_CANopen/Libraries/XMCLib/inc\xmc_can.h ****       uint32_t can_id_mode: 1;               /**< Standard/Extended identifier support */
 573:D:/Workspace/Development/my/DAVE/Infineon_CANopen/Libraries/XMCLib/inc\xmc_can.h ****       uint32_t can_priority: 2;              /**< Arbitration Mode/Priority */
 574:D:/Workspace/Development/my/DAVE/Infineon_CANopen/Libraries/XMCLib/inc\xmc_can.h ****     };
 575:D:/Workspace/Development/my/DAVE/Infineon_CANopen/Libraries/XMCLib/inc\xmc_can.h ****     uint32_t mo_ar;
 576:D:/Workspace/Development/my/DAVE/Infineon_CANopen/Libraries/XMCLib/inc\xmc_can.h ****   };
 577:D:/Workspace/Development/my/DAVE/Infineon_CANopen/Libraries/XMCLib/inc\xmc_can.h ****   union
 578:D:/Workspace/Development/my/DAVE/Infineon_CANopen/Libraries/XMCLib/inc\xmc_can.h ****   {
 579:D:/Workspace/Development/my/DAVE/Infineon_CANopen/Libraries/XMCLib/inc\xmc_can.h ****     struct
 580:D:/Workspace/Development/my/DAVE/Infineon_CANopen/Libraries/XMCLib/inc\xmc_can.h ****     {
 581:D:/Workspace/Development/my/DAVE/Infineon_CANopen/Libraries/XMCLib/inc\xmc_can.h ****       uint32_t can_id_mask: 29;             /**< CAN Identifier of Message Object */
 582:D:/Workspace/Development/my/DAVE/Infineon_CANopen/Libraries/XMCLib/inc\xmc_can.h ****       uint32_t can_ide_mask: 1;             /**< Identifier Extension Bit of Message Object */
 583:D:/Workspace/Development/my/DAVE/Infineon_CANopen/Libraries/XMCLib/inc\xmc_can.h ****     };
 584:D:/Workspace/Development/my/DAVE/Infineon_CANopen/Libraries/XMCLib/inc\xmc_can.h ****     uint32_t mo_amr;
 585:D:/Workspace/Development/my/DAVE/Infineon_CANopen/Libraries/XMCLib/inc\xmc_can.h ****   };
 586:D:/Workspace/Development/my/DAVE/Infineon_CANopen/Libraries/XMCLib/inc\xmc_can.h ****   uint8_t can_data_length;                        /**< Message data length, Range:0-8 */
 587:D:/Workspace/Development/my/DAVE/Infineon_CANopen/Libraries/XMCLib/inc\xmc_can.h **** 
 588:D:/Workspace/Development/my/DAVE/Infineon_CANopen/Libraries/XMCLib/inc\xmc_can.h ****   union
 589:D:/Workspace/Development/my/DAVE/Infineon_CANopen/Libraries/XMCLib/inc\xmc_can.h ****   {
 590:D:/Workspace/Development/my/DAVE/Infineon_CANopen/Libraries/XMCLib/inc\xmc_can.h **** 
 591:D:/Workspace/Development/my/DAVE/Infineon_CANopen/Libraries/XMCLib/inc\xmc_can.h ****     uint8_t can_data_byte[8];                 /**< Each position of the array represents a data byt
 592:D:/Workspace/Development/my/DAVE/Infineon_CANopen/Libraries/XMCLib/inc\xmc_can.h ****     uint16_t can_data_word[4];                /**< Each position of the array represents a 16 bits 
 593:D:/Workspace/Development/my/DAVE/Infineon_CANopen/Libraries/XMCLib/inc\xmc_can.h ****     uint32_t can_data[2];                     /**< can_data[0] lower 4 bytes of the data. can_data[
 594:D:/Workspace/Development/my/DAVE/Infineon_CANopen/Libraries/XMCLib/inc\xmc_can.h ****                               of the data */
 595:D:/Workspace/Development/my/DAVE/Infineon_CANopen/Libraries/XMCLib/inc\xmc_can.h ****     uint64_t can_data_long;                   /** Data of the Message Object*/
 596:D:/Workspace/Development/my/DAVE/Infineon_CANopen/Libraries/XMCLib/inc\xmc_can.h ****   };
 597:D:/Workspace/Development/my/DAVE/Infineon_CANopen/Libraries/XMCLib/inc\xmc_can.h **** 
 598:D:/Workspace/Development/my/DAVE/Infineon_CANopen/Libraries/XMCLib/inc\xmc_can.h ****   XMC_CAN_MO_TYPE_t can_mo_type;                  /**<  Message Type */
 599:D:/Workspace/Development/my/DAVE/Infineon_CANopen/Libraries/XMCLib/inc\xmc_can.h **** 
 600:D:/Workspace/Development/my/DAVE/Infineon_CANopen/Libraries/XMCLib/inc\xmc_can.h **** } XMC_CAN_MO_t;
 601:D:/Workspace/Development/my/DAVE/Infineon_CANopen/Libraries/XMCLib/inc\xmc_can.h **** /*Anonymous structure/union guard end*/
 602:D:/Workspace/Development/my/DAVE/Infineon_CANopen/Libraries/XMCLib/inc\xmc_can.h **** #if defined(__CC_ARM)
 603:D:/Workspace/Development/my/DAVE/Infineon_CANopen/Libraries/XMCLib/inc\xmc_can.h **** #pragma pop
 604:D:/Workspace/Development/my/DAVE/Infineon_CANopen/Libraries/XMCLib/inc\xmc_can.h **** #elif defined(__TASKING__)
 605:D:/Workspace/Development/my/DAVE/Infineon_CANopen/Libraries/XMCLib/inc\xmc_can.h **** #pragma warning restore
 606:D:/Workspace/Development/my/DAVE/Infineon_CANopen/Libraries/XMCLib/inc\xmc_can.h **** #endif
 607:D:/Workspace/Development/my/DAVE/Infineon_CANopen/Libraries/XMCLib/inc\xmc_can.h **** /**************************************************************************************************
 608:D:/Workspace/Development/my/DAVE/Infineon_CANopen/Libraries/XMCLib/inc\xmc_can.h ****  * API Prototypes
 609:D:/Workspace/Development/my/DAVE/Infineon_CANopen/Libraries/XMCLib/inc\xmc_can.h ****  **************************************************************************************************
 610:D:/Workspace/Development/my/DAVE/Infineon_CANopen/Libraries/XMCLib/inc\xmc_can.h **** #ifdef __cplusplus
 611:D:/Workspace/Development/my/DAVE/Infineon_CANopen/Libraries/XMCLib/inc\xmc_can.h **** extern "C" {
 612:D:/Workspace/Development/my/DAVE/Infineon_CANopen/Libraries/XMCLib/inc\xmc_can.h **** #endif
 613:D:/Workspace/Development/my/DAVE/Infineon_CANopen/Libraries/XMCLib/inc\xmc_can.h **** 
 614:D:/Workspace/Development/my/DAVE/Infineon_CANopen/Libraries/XMCLib/inc\xmc_can.h **** /**
 615:D:/Workspace/Development/my/DAVE/Infineon_CANopen/Libraries/XMCLib/inc\xmc_can.h ****  *
 616:D:/Workspace/Development/my/DAVE/Infineon_CANopen/Libraries/XMCLib/inc\xmc_can.h ****  * @param obj Pointer pointing to XMC_CAN Global Initialization structure. Defines CAN global regis
 617:D:/Workspace/Development/my/DAVE/Infineon_CANopen/Libraries/XMCLib/inc\xmc_can.h ****  *        for details.
 618:D:/Workspace/Development/my/DAVE/Infineon_CANopen/Libraries/XMCLib/inc\xmc_can.h ****  *
 619:D:/Workspace/Development/my/DAVE/Infineon_CANopen/Libraries/XMCLib/inc\xmc_can.h ****  * @return None
 620:D:/Workspace/Development/my/DAVE/Infineon_CANopen/Libraries/XMCLib/inc\xmc_can.h ****  *
 621:D:/Workspace/Development/my/DAVE/Infineon_CANopen/Libraries/XMCLib/inc\xmc_can.h ****  * \par<b>Description:</b><br>
 622:D:/Workspace/Development/my/DAVE/Infineon_CANopen/Libraries/XMCLib/inc\xmc_can.h ****  *  Disables CAN module. In disabled state, no registers of CAN module can be read or written excep
 623:D:/Workspace/Development/my/DAVE/Infineon_CANopen/Libraries/XMCLib/inc\xmc_can.h ****  *
 624:D:/Workspace/Development/my/DAVE/Infineon_CANopen/Libraries/XMCLib/inc\xmc_can.h ****  * \par<b>Related APIs:</b><BR>
 625:D:/Workspace/Development/my/DAVE/Infineon_CANopen/Libraries/XMCLib/inc\xmc_can.h ****  * XMC_CAN_Enable()\n\n\n
 626:D:/Workspace/Development/my/DAVE/Infineon_CANopen/Libraries/XMCLib/inc\xmc_can.h ****  *
 627:D:/Workspace/Development/my/DAVE/Infineon_CANopen/Libraries/XMCLib/inc\xmc_can.h ****  */
 628:D:/Workspace/Development/my/DAVE/Infineon_CANopen/Libraries/XMCLib/inc\xmc_can.h **** 
 629:D:/Workspace/Development/my/DAVE/Infineon_CANopen/Libraries/XMCLib/inc\xmc_can.h **** void XMC_CAN_Disable(XMC_CAN_t *const obj);
 630:D:/Workspace/Development/my/DAVE/Infineon_CANopen/Libraries/XMCLib/inc\xmc_can.h **** 
 631:D:/Workspace/Development/my/DAVE/Infineon_CANopen/Libraries/XMCLib/inc\xmc_can.h **** /**
 632:D:/Workspace/Development/my/DAVE/Infineon_CANopen/Libraries/XMCLib/inc\xmc_can.h ****  *
 633:D:/Workspace/Development/my/DAVE/Infineon_CANopen/Libraries/XMCLib/inc\xmc_can.h ****  * @param obj Pointer pointing to XMC_CAN Global Initialization structure. Defines CAN global regis
 634:D:/Workspace/Development/my/DAVE/Infineon_CANopen/Libraries/XMCLib/inc\xmc_can.h ****  *         for details.
 635:D:/Workspace/Development/my/DAVE/Infineon_CANopen/Libraries/XMCLib/inc\xmc_can.h ****  *
 636:D:/Workspace/Development/my/DAVE/Infineon_CANopen/Libraries/XMCLib/inc\xmc_can.h ****  * @return None
 637:D:/Workspace/Development/my/DAVE/Infineon_CANopen/Libraries/XMCLib/inc\xmc_can.h ****  *
 638:D:/Workspace/Development/my/DAVE/Infineon_CANopen/Libraries/XMCLib/inc\xmc_can.h ****  * \par<b>Description:</b><br>
 639:D:/Workspace/Development/my/DAVE/Infineon_CANopen/Libraries/XMCLib/inc\xmc_can.h ****  *  Enables CAN module and initializes all CAN registers to reset values. It is required to re-conf
 640:D:/Workspace/Development/my/DAVE/Infineon_CANopen/Libraries/XMCLib/inc\xmc_can.h ****  *  before any data transfer. It configures CAN_CLC.DISR bit.
 641:D:/Workspace/Development/my/DAVE/Infineon_CANopen/Libraries/XMCLib/inc\xmc_can.h ****  *
 642:D:/Workspace/Development/my/DAVE/Infineon_CANopen/Libraries/XMCLib/inc\xmc_can.h ****  * \par<b>Related APIs:</b><BR>
 643:D:/Workspace/Development/my/DAVE/Infineon_CANopen/Libraries/XMCLib/inc\xmc_can.h ****  *  XMC_CAN_Disable()\n\n\n
 644:D:/Workspace/Development/my/DAVE/Infineon_CANopen/Libraries/XMCLib/inc\xmc_can.h ****  *
 645:D:/Workspace/Development/my/DAVE/Infineon_CANopen/Libraries/XMCLib/inc\xmc_can.h ****  */
 646:D:/Workspace/Development/my/DAVE/Infineon_CANopen/Libraries/XMCLib/inc\xmc_can.h **** 
 647:D:/Workspace/Development/my/DAVE/Infineon_CANopen/Libraries/XMCLib/inc\xmc_can.h **** void XMC_CAN_Enable(XMC_CAN_t *const obj);
 648:D:/Workspace/Development/my/DAVE/Infineon_CANopen/Libraries/XMCLib/inc\xmc_can.h **** 
 649:D:/Workspace/Development/my/DAVE/Infineon_CANopen/Libraries/XMCLib/inc\xmc_can.h **** /**
 650:D:/Workspace/Development/my/DAVE/Infineon_CANopen/Libraries/XMCLib/inc\xmc_can.h ****  *
 651:D:/Workspace/Development/my/DAVE/Infineon_CANopen/Libraries/XMCLib/inc\xmc_can.h ****  * @param obj Pointer pointing to XMC_CAN Global Initialization structure. Defines CAN global regis
 652:D:/Workspace/Development/my/DAVE/Infineon_CANopen/Libraries/XMCLib/inc\xmc_can.h ****  *       for details.
 653:D:/Workspace/Development/my/DAVE/Infineon_CANopen/Libraries/XMCLib/inc\xmc_can.h ****  *
 654:D:/Workspace/Development/my/DAVE/Infineon_CANopen/Libraries/XMCLib/inc\xmc_can.h ****  * @param node_num  CAN node number,Range : 0-2
 655:D:/Workspace/Development/my/DAVE/Infineon_CANopen/Libraries/XMCLib/inc\xmc_can.h ****  * @param mo_num  CAN Message Object number,Range : 0-63
 656:D:/Workspace/Development/my/DAVE/Infineon_CANopen/Libraries/XMCLib/inc\xmc_can.h ****  *
 657:D:/Workspace/Development/my/DAVE/Infineon_CANopen/Libraries/XMCLib/inc\xmc_can.h ****  * @return None
 658:D:/Workspace/Development/my/DAVE/Infineon_CANopen/Libraries/XMCLib/inc\xmc_can.h ****  *
 659:D:/Workspace/Development/my/DAVE/Infineon_CANopen/Libraries/XMCLib/inc\xmc_can.h ****  * \par<b>Description:</b><br>
 660:D:/Workspace/Development/my/DAVE/Infineon_CANopen/Libraries/XMCLib/inc\xmc_can.h ****  *  Allocates Message Object from free list to node list. Each \a node_num is linked to one unique 
 661:D:/Workspace/Development/my/DAVE/Infineon_CANopen/Libraries/XMCLib/inc\xmc_can.h ****  *  A CAN node performs message transfer only with the \a mo_num message objects that are allocated
 662:D:/Workspace/Development/my/DAVE/Infineon_CANopen/Libraries/XMCLib/inc\xmc_can.h ****  *  It configures PANCTR register.
 663:D:/Workspace/Development/my/DAVE/Infineon_CANopen/Libraries/XMCLib/inc\xmc_can.h ****  *
 664:D:/Workspace/Development/my/DAVE/Infineon_CANopen/Libraries/XMCLib/inc\xmc_can.h ****  * \par<b>Related APIs:</b><BR>
 665:D:/Workspace/Development/my/DAVE/Infineon_CANopen/Libraries/XMCLib/inc\xmc_can.h ****  *  None
 666:D:/Workspace/Development/my/DAVE/Infineon_CANopen/Libraries/XMCLib/inc\xmc_can.h ****  *
 667:D:/Workspace/Development/my/DAVE/Infineon_CANopen/Libraries/XMCLib/inc\xmc_can.h ****  */
 668:D:/Workspace/Development/my/DAVE/Infineon_CANopen/Libraries/XMCLib/inc\xmc_can.h **** 
 669:D:/Workspace/Development/my/DAVE/Infineon_CANopen/Libraries/XMCLib/inc\xmc_can.h **** void XMC_CAN_AllocateMOtoNodeList(XMC_CAN_t *const obj, const uint8_t node_num, const uint8_t mo_nu
 670:D:/Workspace/Development/my/DAVE/Infineon_CANopen/Libraries/XMCLib/inc\xmc_can.h **** 
 671:D:/Workspace/Development/my/DAVE/Infineon_CANopen/Libraries/XMCLib/inc\xmc_can.h **** /**
 672:D:/Workspace/Development/my/DAVE/Infineon_CANopen/Libraries/XMCLib/inc\xmc_can.h ****  *
 673:D:/Workspace/Development/my/DAVE/Infineon_CANopen/Libraries/XMCLib/inc\xmc_can.h ****  * @param obj Pointer pointing to XMC_CAN Global Initialization structure. Defines CAN global regis
 674:D:/Workspace/Development/my/DAVE/Infineon_CANopen/Libraries/XMCLib/inc\xmc_can.h ****  *       for details.
 675:D:/Workspace/Development/my/DAVE/Infineon_CANopen/Libraries/XMCLib/inc\xmc_can.h ****  *
 676:D:/Workspace/Development/my/DAVE/Infineon_CANopen/Libraries/XMCLib/inc\xmc_can.h ****  * @return Ready status of list controller
 677:D:/Workspace/Development/my/DAVE/Infineon_CANopen/Libraries/XMCLib/inc\xmc_can.h ****  *
 678:D:/Workspace/Development/my/DAVE/Infineon_CANopen/Libraries/XMCLib/inc\xmc_can.h ****  * \par<b>Description:</b><br>
 679:D:/Workspace/Development/my/DAVE/Infineon_CANopen/Libraries/XMCLib/inc\xmc_can.h ****  *  Returns ready status of the list controller
 680:D:/Workspace/Development/my/DAVE/Infineon_CANopen/Libraries/XMCLib/inc\xmc_can.h ****  *
 681:D:/Workspace/Development/my/DAVE/Infineon_CANopen/Libraries/XMCLib/inc\xmc_can.h ****  * \par<b>Related APIs:</b><BR>
 682:D:/Workspace/Development/my/DAVE/Infineon_CANopen/Libraries/XMCLib/inc\xmc_can.h ****  *  XMC_CAN_PanelControl()
 683:D:/Workspace/Development/my/DAVE/Infineon_CANopen/Libraries/XMCLib/inc\xmc_can.h ****  *
 684:D:/Workspace/Development/my/DAVE/Infineon_CANopen/Libraries/XMCLib/inc\xmc_can.h ****  */
 685:D:/Workspace/Development/my/DAVE/Infineon_CANopen/Libraries/XMCLib/inc\xmc_can.h **** __STATIC_INLINE bool XMC_CAN_IsPanelControlReady(XMC_CAN_t *const obj)
 686:D:/Workspace/Development/my/DAVE/Infineon_CANopen/Libraries/XMCLib/inc\xmc_can.h **** {
  27              	 .loc 1 686 0
  28              	 .cfi_startproc
  29              	 
  30              	 
  31              	 
  32 0000 80B4     	 push {r7}
  33              	.LCFI0:
  34              	 .cfi_def_cfa_offset 4
  35              	 .cfi_offset 7,-4
  36 0002 83B0     	 sub sp,sp,#12
  37              	.LCFI1:
  38              	 .cfi_def_cfa_offset 16
  39 0004 00AF     	 add r7,sp,#0
  40              	.LCFI2:
  41              	 .cfi_def_cfa_register 7
  42 0006 7860     	 str r0,[r7,#4]
 687:D:/Workspace/Development/my/DAVE/Infineon_CANopen/Libraries/XMCLib/inc\xmc_can.h ****   return (bool)((obj->PANCTR & (CAN_PANCTR_BUSY_Msk | CAN_PANCTR_RBUSY_Msk)) == 0);
  43              	 .loc 1 687 0
  44 0008 7B68     	 ldr r3,[r7,#4]
  45 000a D3F8C431 	 ldr r3,[r3,#452]
  46 000e 03F44073 	 and r3,r3,#768
  47 0012 002B     	 cmp r3,#0
  48 0014 0CBF     	 ite eq
  49 0016 0123     	 moveq r3,#1
  50 0018 0023     	 movne r3,#0
  51 001a DBB2     	 uxtb r3,r3
 688:D:/Workspace/Development/my/DAVE/Infineon_CANopen/Libraries/XMCLib/inc\xmc_can.h **** }
  52              	 .loc 1 688 0
  53 001c 1846     	 mov r0,r3
  54 001e 0C37     	 adds r7,r7,#12
  55              	.LCFI3:
  56              	 .cfi_def_cfa_offset 4
  57 0020 BD46     	 mov sp,r7
  58              	.LCFI4:
  59              	 .cfi_def_cfa_register 13
  60              	 
  61 0022 5DF8047B 	 ldr r7,[sp],#4
  62              	.LCFI5:
  63              	 .cfi_restore 7
  64              	 .cfi_def_cfa_offset 0
  65 0026 7047     	 bx lr
  66              	 .cfi_endproc
  67              	.LFE174:
  69              	 .section .text.XMC_CAN_PanelControl,"ax",%progbits
  70              	 .align 2
  71              	 .thumb
  72              	 .thumb_func
  74              	XMC_CAN_PanelControl:
  75              	.LFB175:
 689:D:/Workspace/Development/my/DAVE/Infineon_CANopen/Libraries/XMCLib/inc\xmc_can.h **** 
 690:D:/Workspace/Development/my/DAVE/Infineon_CANopen/Libraries/XMCLib/inc\xmc_can.h **** /**
 691:D:/Workspace/Development/my/DAVE/Infineon_CANopen/Libraries/XMCLib/inc\xmc_can.h ****  *
 692:D:/Workspace/Development/my/DAVE/Infineon_CANopen/Libraries/XMCLib/inc\xmc_can.h ****  * @param obj Pointer pointing to XMC_CAN Global Initialization structure. Defines CAN global regis
 693:D:/Workspace/Development/my/DAVE/Infineon_CANopen/Libraries/XMCLib/inc\xmc_can.h ****  *        for details.
 694:D:/Workspace/Development/my/DAVE/Infineon_CANopen/Libraries/XMCLib/inc\xmc_can.h ****  *
 695:D:/Workspace/Development/my/DAVE/Infineon_CANopen/Libraries/XMCLib/inc\xmc_can.h ****  * @param pancmd panal command selection. Refer @ref XMC_CAN_PANCMD_t for valid values.
 696:D:/Workspace/Development/my/DAVE/Infineon_CANopen/Libraries/XMCLib/inc\xmc_can.h ****  * @param arg1   Panel Argument 1,Range : 0-2
 697:D:/Workspace/Development/my/DAVE/Infineon_CANopen/Libraries/XMCLib/inc\xmc_can.h ****  * @param arg2   Panel Argument 2, Range : 0-63
 698:D:/Workspace/Development/my/DAVE/Infineon_CANopen/Libraries/XMCLib/inc\xmc_can.h ****  *
 699:D:/Workspace/Development/my/DAVE/Infineon_CANopen/Libraries/XMCLib/inc\xmc_can.h ****  * @return None
 700:D:/Workspace/Development/my/DAVE/Infineon_CANopen/Libraries/XMCLib/inc\xmc_can.h ****  *
 701:D:/Workspace/Development/my/DAVE/Infineon_CANopen/Libraries/XMCLib/inc\xmc_can.h ****  * \par<b>Description:</b><br>
 702:D:/Workspace/Development/my/DAVE/Infineon_CANopen/Libraries/XMCLib/inc\xmc_can.h ****  *  Configures the panel command and panel arguments. A panel operation consists of a command code 
 703:D:/Workspace/Development/my/DAVE/Infineon_CANopen/Libraries/XMCLib/inc\xmc_can.h ****  *  panel arguments (PANAR1, PANAR2). Commands that have a return value deliver it to the PANAR1 bi
 704:D:/Workspace/Development/my/DAVE/Infineon_CANopen/Libraries/XMCLib/inc\xmc_can.h ****  *  return an error flag deliver it to bit 31 of the Panel Control Register, this means bit 7 of PA
 705:D:/Workspace/Development/my/DAVE/Infineon_CANopen/Libraries/XMCLib/inc\xmc_can.h ****  *  panel argument PANAR1,\a arg2 represents panel argument PANAR2 and \a pancmd represents command
 706:D:/Workspace/Development/my/DAVE/Infineon_CANopen/Libraries/XMCLib/inc\xmc_can.h ****  *  register.
 707:D:/Workspace/Development/my/DAVE/Infineon_CANopen/Libraries/XMCLib/inc\xmc_can.h ****  *
 708:D:/Workspace/Development/my/DAVE/Infineon_CANopen/Libraries/XMCLib/inc\xmc_can.h ****  * \par<b>Related APIs:</b><BR>
 709:D:/Workspace/Development/my/DAVE/Infineon_CANopen/Libraries/XMCLib/inc\xmc_can.h ****  *  None
 710:D:/Workspace/Development/my/DAVE/Infineon_CANopen/Libraries/XMCLib/inc\xmc_can.h ****  *
 711:D:/Workspace/Development/my/DAVE/Infineon_CANopen/Libraries/XMCLib/inc\xmc_can.h ****  */
 712:D:/Workspace/Development/my/DAVE/Infineon_CANopen/Libraries/XMCLib/inc\xmc_can.h **** 
 713:D:/Workspace/Development/my/DAVE/Infineon_CANopen/Libraries/XMCLib/inc\xmc_can.h **** __STATIC_INLINE void XMC_CAN_PanelControl(XMC_CAN_t *const obj,
 714:D:/Workspace/Development/my/DAVE/Infineon_CANopen/Libraries/XMCLib/inc\xmc_can.h ****     const XMC_CAN_PANCMD_t pancmd,
 715:D:/Workspace/Development/my/DAVE/Infineon_CANopen/Libraries/XMCLib/inc\xmc_can.h ****     const uint8_t arg1,
 716:D:/Workspace/Development/my/DAVE/Infineon_CANopen/Libraries/XMCLib/inc\xmc_can.h ****     const uint8_t arg2)
 717:D:/Workspace/Development/my/DAVE/Infineon_CANopen/Libraries/XMCLib/inc\xmc_can.h **** {
  76              	 .loc 1 717 0
  77              	 .cfi_startproc
  78              	 
  79              	 
  80              	 
  81 0000 80B4     	 push {r7}
  82              	.LCFI6:
  83              	 .cfi_def_cfa_offset 4
  84              	 .cfi_offset 7,-4
  85 0002 83B0     	 sub sp,sp,#12
  86              	.LCFI7:
  87              	 .cfi_def_cfa_offset 16
  88 0004 00AF     	 add r7,sp,#0
  89              	.LCFI8:
  90              	 .cfi_def_cfa_register 7
  91 0006 7860     	 str r0,[r7,#4]
  92 0008 0846     	 mov r0,r1
  93 000a 1146     	 mov r1,r2
  94 000c 1A46     	 mov r2,r3
  95 000e 0346     	 mov r3,r0
  96 0010 FB70     	 strb r3,[r7,#3]
  97 0012 0B46     	 mov r3,r1
  98 0014 BB70     	 strb r3,[r7,#2]
  99 0016 1346     	 mov r3,r2
 100 0018 7B70     	 strb r3,[r7,#1]
 718:D:/Workspace/Development/my/DAVE/Infineon_CANopen/Libraries/XMCLib/inc\xmc_can.h ****   obj->PANCTR = (((uint32_t)pancmd << CAN_PANCTR_PANCMD_Pos) & (uint32_t)CAN_PANCTR_PANCMD_Msk) |
 101              	 .loc 1 718 0
 102 001a FA78     	 ldrb r2,[r7,#3]
 719:D:/Workspace/Development/my/DAVE/Infineon_CANopen/Libraries/XMCLib/inc\xmc_can.h ****                 (((uint32_t)arg1 << CAN_PANCTR_PANAR1_Pos) & (uint32_t)CAN_PANCTR_PANAR1_Msk) |
 103              	 .loc 1 719 0
 104 001c BB78     	 ldrb r3,[r7,#2]
 105 001e 1B04     	 lsls r3,r3,#16
 106 0020 03F47F03 	 and r3,r3,#16711680
 718:D:/Workspace/Development/my/DAVE/Infineon_CANopen/Libraries/XMCLib/inc\xmc_can.h ****   obj->PANCTR = (((uint32_t)pancmd << CAN_PANCTR_PANCMD_Pos) & (uint32_t)CAN_PANCTR_PANCMD_Msk) |
 107              	 .loc 1 718 0
 108 0024 1A43     	 orrs r2,r2,r3
 720:D:/Workspace/Development/my/DAVE/Infineon_CANopen/Libraries/XMCLib/inc\xmc_can.h ****                 (((uint32_t)arg2 << CAN_PANCTR_PANAR2_Pos) & (uint32_t)CAN_PANCTR_PANAR2_Msk);
 109              	 .loc 1 720 0
 110 0026 7B78     	 ldrb r3,[r7,#1]
 111 0028 1B06     	 lsls r3,r3,#24
 719:D:/Workspace/Development/my/DAVE/Infineon_CANopen/Libraries/XMCLib/inc\xmc_can.h ****                 (((uint32_t)arg1 << CAN_PANCTR_PANAR1_Pos) & (uint32_t)CAN_PANCTR_PANAR1_Msk) |
 112              	 .loc 1 719 0
 113 002a 1A43     	 orrs r2,r2,r3
 718:D:/Workspace/Development/my/DAVE/Infineon_CANopen/Libraries/XMCLib/inc\xmc_can.h ****   obj->PANCTR = (((uint32_t)pancmd << CAN_PANCTR_PANCMD_Pos) & (uint32_t)CAN_PANCTR_PANCMD_Msk) |
 114              	 .loc 1 718 0
 115 002c 7B68     	 ldr r3,[r7,#4]
 116 002e C3F8C421 	 str r2,[r3,#452]
 721:D:/Workspace/Development/my/DAVE/Infineon_CANopen/Libraries/XMCLib/inc\xmc_can.h **** }
 117              	 .loc 1 721 0
 118 0032 0C37     	 adds r7,r7,#12
 119              	.LCFI9:
 120              	 .cfi_def_cfa_offset 4
 121 0034 BD46     	 mov sp,r7
 122              	.LCFI10:
 123              	 .cfi_def_cfa_register 13
 124              	 
 125 0036 5DF8047B 	 ldr r7,[sp],#4
 126              	.LCFI11:
 127              	 .cfi_restore 7
 128              	 .cfi_def_cfa_offset 0
 129 003a 7047     	 bx lr
 130              	 .cfi_endproc
 131              	.LFE175:
 133              	 .section .text.XMC_CAN_NODE_EnableConfigurationChange,"ax",%progbits
 134              	 .align 2
 135              	 .thumb
 136              	 .thumb_func
 138              	XMC_CAN_NODE_EnableConfigurationChange:
 139              	.LFB191:
 722:D:/Workspace/Development/my/DAVE/Infineon_CANopen/Libraries/XMCLib/inc\xmc_can.h **** 
 723:D:/Workspace/Development/my/DAVE/Infineon_CANopen/Libraries/XMCLib/inc\xmc_can.h **** 
 724:D:/Workspace/Development/my/DAVE/Infineon_CANopen/Libraries/XMCLib/inc\xmc_can.h **** /**
 725:D:/Workspace/Development/my/DAVE/Infineon_CANopen/Libraries/XMCLib/inc\xmc_can.h ****  *
 726:D:/Workspace/Development/my/DAVE/Infineon_CANopen/Libraries/XMCLib/inc\xmc_can.h ****  * @param obj Pointer pointing to XMC_CAN Global Initialization structure. Defines CAN global regis
 727:D:/Workspace/Development/my/DAVE/Infineon_CANopen/Libraries/XMCLib/inc\xmc_can.h ****  *        for details.
 728:D:/Workspace/Development/my/DAVE/Infineon_CANopen/Libraries/XMCLib/inc\xmc_can.h ****  *
 729:D:/Workspace/Development/my/DAVE/Infineon_CANopen/Libraries/XMCLib/inc\xmc_can.h ****  * @param service_requestr  Interrupt trigger number selection. Refer @ref XMC_CAN_NODE_INTERRUPT_T
 730:D:/Workspace/Development/my/DAVE/Infineon_CANopen/Libraries/XMCLib/inc\xmc_can.h ****  *               Multiple interrupt trigger events can be ORed.
 731:D:/Workspace/Development/my/DAVE/Infineon_CANopen/Libraries/XMCLib/inc\xmc_can.h ****  *
 732:D:/Workspace/Development/my/DAVE/Infineon_CANopen/Libraries/XMCLib/inc\xmc_can.h ****  * @return None
 733:D:/Workspace/Development/my/DAVE/Infineon_CANopen/Libraries/XMCLib/inc\xmc_can.h ****  *
 734:D:/Workspace/Development/my/DAVE/Infineon_CANopen/Libraries/XMCLib/inc\xmc_can.h ****  * \par<b>Description:</b><br>
 735:D:/Workspace/Development/my/DAVE/Infineon_CANopen/Libraries/XMCLib/inc\xmc_can.h ****  *  Configures multiple interrupt requests with a single write operation. \a service_requestr repre
 736:D:/Workspace/Development/my/DAVE/Infineon_CANopen/Libraries/XMCLib/inc\xmc_can.h ****  *  request or multiple.It configures MITR register.
 737:D:/Workspace/Development/my/DAVE/Infineon_CANopen/Libraries/XMCLib/inc\xmc_can.h ****  *
 738:D:/Workspace/Development/my/DAVE/Infineon_CANopen/Libraries/XMCLib/inc\xmc_can.h ****  * \par<b>Related APIs:</b><BR>
 739:D:/Workspace/Development/my/DAVE/Infineon_CANopen/Libraries/XMCLib/inc\xmc_can.h ****  *  None
 740:D:/Workspace/Development/my/DAVE/Infineon_CANopen/Libraries/XMCLib/inc\xmc_can.h ****  *
 741:D:/Workspace/Development/my/DAVE/Infineon_CANopen/Libraries/XMCLib/inc\xmc_can.h ****  */
 742:D:/Workspace/Development/my/DAVE/Infineon_CANopen/Libraries/XMCLib/inc\xmc_can.h **** 
 743:D:/Workspace/Development/my/DAVE/Infineon_CANopen/Libraries/XMCLib/inc\xmc_can.h **** __STATIC_INLINE void XMC_CAN_EventTrigger(XMC_CAN_t *const obj, const XMC_CAN_NODE_INTERRUPT_TRIGGE
 744:D:/Workspace/Development/my/DAVE/Infineon_CANopen/Libraries/XMCLib/inc\xmc_can.h **** {
 745:D:/Workspace/Development/my/DAVE/Infineon_CANopen/Libraries/XMCLib/inc\xmc_can.h ****   obj->MITR = ((uint32_t)service_requestr << CAN_MITR_IT_Pos) & (uint32_t)CAN_MITR_IT_Msk;
 746:D:/Workspace/Development/my/DAVE/Infineon_CANopen/Libraries/XMCLib/inc\xmc_can.h **** }
 747:D:/Workspace/Development/my/DAVE/Infineon_CANopen/Libraries/XMCLib/inc\xmc_can.h **** 
 748:D:/Workspace/Development/my/DAVE/Infineon_CANopen/Libraries/XMCLib/inc\xmc_can.h **** 
 749:D:/Workspace/Development/my/DAVE/Infineon_CANopen/Libraries/XMCLib/inc\xmc_can.h **** /**
 750:D:/Workspace/Development/my/DAVE/Infineon_CANopen/Libraries/XMCLib/inc\xmc_can.h ****  *
 751:D:/Workspace/Development/my/DAVE/Infineon_CANopen/Libraries/XMCLib/inc\xmc_can.h ****  * @param obj Pointer pointing to XMC_CAN Global Initialization structure. Defines CAN global regis
 752:D:/Workspace/Development/my/DAVE/Infineon_CANopen/Libraries/XMCLib/inc\xmc_can.h ****  *        for details.
 753:D:/Workspace/Development/my/DAVE/Infineon_CANopen/Libraries/XMCLib/inc\xmc_can.h ****  *
 754:D:/Workspace/Development/my/DAVE/Infineon_CANopen/Libraries/XMCLib/inc\xmc_can.h ****  * @param clksrc CAN module frequency clock source
 755:D:/Workspace/Development/my/DAVE/Infineon_CANopen/Libraries/XMCLib/inc\xmc_can.h ****  * @param can_frequency CAN module frequency(fCAN).
 756:D:/Workspace/Development/my/DAVE/Infineon_CANopen/Libraries/XMCLib/inc\xmc_can.h ****  *        The can_frequency shall be an integer divisor of the CAN clock source frequency (fPERI/fM
 757:D:/Workspace/Development/my/DAVE/Infineon_CANopen/Libraries/XMCLib/inc\xmc_can.h ****  *        it should be selected such that if fulfills the minimum operating frequency specified in 
 758:D:/Workspace/Development/my/DAVE/Infineon_CANopen/Libraries/XMCLib/inc\xmc_can.h ****  *        In addition the can_frequency shall be an integer multiple of the baudrate.
 759:D:/Workspace/Development/my/DAVE/Infineon_CANopen/Libraries/XMCLib/inc\xmc_can.h ****  *        Max. value: Max. clock source frequency, i.e. if using fOHP and using a XTAL of 20MHz the
 760:D:/Workspace/Development/my/DAVE/Infineon_CANopen/Libraries/XMCLib/inc\xmc_can.h ****  *
 761:D:/Workspace/Development/my/DAVE/Infineon_CANopen/Libraries/XMCLib/inc\xmc_can.h ****  * @return Actual frequency
 762:D:/Workspace/Development/my/DAVE/Infineon_CANopen/Libraries/XMCLib/inc\xmc_can.h ****  *
 763:D:/Workspace/Development/my/DAVE/Infineon_CANopen/Libraries/XMCLib/inc\xmc_can.h ****  * \par<b>Description:</b><br>
 764:D:/Workspace/Development/my/DAVE/Infineon_CANopen/Libraries/XMCLib/inc\xmc_can.h ****  * Similar to XMC_CAN_Init() configures clock rate of the module timer clock fCAN.
 765:D:/Workspace/Development/my/DAVE/Infineon_CANopen/Libraries/XMCLib/inc\xmc_can.h ****  * The difference being that only the normal divider is used to avoid jitter.
 766:D:/Workspace/Development/my/DAVE/Infineon_CANopen/Libraries/XMCLib/inc\xmc_can.h ****  * In addition the actual achievable frequency is returned.
 767:D:/Workspace/Development/my/DAVE/Infineon_CANopen/Libraries/XMCLib/inc\xmc_can.h ****  * @note Use XMC_CAN_InitEx() for new projects. XMC_CAN_Init() is kept for backward compatibility r
 768:D:/Workspace/Development/my/DAVE/Infineon_CANopen/Libraries/XMCLib/inc\xmc_can.h ****  *
 769:D:/Workspace/Development/my/DAVE/Infineon_CANopen/Libraries/XMCLib/inc\xmc_can.h ****  * Altering CAN module \a can_frequency shall affects baud rate, call XMC_CAN_NODE_NominalBitTimeCo
 770:D:/Workspace/Development/my/DAVE/Infineon_CANopen/Libraries/XMCLib/inc\xmc_can.h ****  * It configures FDR register.
 771:D:/Workspace/Development/my/DAVE/Infineon_CANopen/Libraries/XMCLib/inc\xmc_can.h ****  *
 772:D:/Workspace/Development/my/DAVE/Infineon_CANopen/Libraries/XMCLib/inc\xmc_can.h ****  * \par<b>Related APIs:</b><BR>
 773:D:/Workspace/Development/my/DAVE/Infineon_CANopen/Libraries/XMCLib/inc\xmc_can.h ****  * XMC_CAN_NODE_NominalBitTimeConfigure(), XMC_CAN_NODE_NominalBitTimeConfigureEx()\n\n\n
 774:D:/Workspace/Development/my/DAVE/Infineon_CANopen/Libraries/XMCLib/inc\xmc_can.h ****  *
 775:D:/Workspace/Development/my/DAVE/Infineon_CANopen/Libraries/XMCLib/inc\xmc_can.h ****  */
 776:D:/Workspace/Development/my/DAVE/Infineon_CANopen/Libraries/XMCLib/inc\xmc_can.h **** uint32_t XMC_CAN_InitEx(XMC_CAN_t *const obj, XMC_CAN_CANCLKSRC_t clksrc, uint32_t can_frequency);
 777:D:/Workspace/Development/my/DAVE/Infineon_CANopen/Libraries/XMCLib/inc\xmc_can.h **** 
 778:D:/Workspace/Development/my/DAVE/Infineon_CANopen/Libraries/XMCLib/inc\xmc_can.h **** /**
 779:D:/Workspace/Development/my/DAVE/Infineon_CANopen/Libraries/XMCLib/inc\xmc_can.h ****  * @param obj Pointer pointing to XMC_CAN Global Initialization structure. Defines CAN global regis
 780:D:/Workspace/Development/my/DAVE/Infineon_CANopen/Libraries/XMCLib/inc\xmc_can.h ****  *        for details.
 781:D:/Workspace/Development/my/DAVE/Infineon_CANopen/Libraries/XMCLib/inc\xmc_can.h ****  *
 782:D:/Workspace/Development/my/DAVE/Infineon_CANopen/Libraries/XMCLib/inc\xmc_can.h ****  * @return Baudrate generator clock source
 783:D:/Workspace/Development/my/DAVE/Infineon_CANopen/Libraries/XMCLib/inc\xmc_can.h ****  *
 784:D:/Workspace/Development/my/DAVE/Infineon_CANopen/Libraries/XMCLib/inc\xmc_can.h ****  * \par<b>Description:</b><br>
 785:D:/Workspace/Development/my/DAVE/Infineon_CANopen/Libraries/XMCLib/inc\xmc_can.h ****  * Returns CAN baudrate generator clock source
 786:D:/Workspace/Development/my/DAVE/Infineon_CANopen/Libraries/XMCLib/inc\xmc_can.h ****  */
 787:D:/Workspace/Development/my/DAVE/Infineon_CANopen/Libraries/XMCLib/inc\xmc_can.h **** XMC_CAN_CANCLKSRC_t XMC_CAN_GetBaudrateClockSource(XMC_CAN_t *const obj);
 788:D:/Workspace/Development/my/DAVE/Infineon_CANopen/Libraries/XMCLib/inc\xmc_can.h **** 
 789:D:/Workspace/Development/my/DAVE/Infineon_CANopen/Libraries/XMCLib/inc\xmc_can.h **** /**
 790:D:/Workspace/Development/my/DAVE/Infineon_CANopen/Libraries/XMCLib/inc\xmc_can.h ****  * @param obj Pointer pointing to XMC_CAN Global Initialization structure. Defines CAN global regis
 791:D:/Workspace/Development/my/DAVE/Infineon_CANopen/Libraries/XMCLib/inc\xmc_can.h ****  *        for details.
 792:D:/Workspace/Development/my/DAVE/Infineon_CANopen/Libraries/XMCLib/inc\xmc_can.h ****  *
 793:D:/Workspace/Development/my/DAVE/Infineon_CANopen/Libraries/XMCLib/inc\xmc_can.h ****  * @return None
 794:D:/Workspace/Development/my/DAVE/Infineon_CANopen/Libraries/XMCLib/inc\xmc_can.h ****  *
 795:D:/Workspace/Development/my/DAVE/Infineon_CANopen/Libraries/XMCLib/inc\xmc_can.h ****  * \par<b>Description:</b><br>
 796:D:/Workspace/Development/my/DAVE/Infineon_CANopen/Libraries/XMCLib/inc\xmc_can.h ****  * Sets CAN baudrate generator clock source
 797:D:/Workspace/Development/my/DAVE/Infineon_CANopen/Libraries/XMCLib/inc\xmc_can.h ****  */
 798:D:/Workspace/Development/my/DAVE/Infineon_CANopen/Libraries/XMCLib/inc\xmc_can.h **** void XMC_CAN_SetBaudrateClockSource(XMC_CAN_t *const obj, const XMC_CAN_CANCLKSRC_t source);
 799:D:/Workspace/Development/my/DAVE/Infineon_CANopen/Libraries/XMCLib/inc\xmc_can.h **** 
 800:D:/Workspace/Development/my/DAVE/Infineon_CANopen/Libraries/XMCLib/inc\xmc_can.h **** /**
 801:D:/Workspace/Development/my/DAVE/Infineon_CANopen/Libraries/XMCLib/inc\xmc_can.h ****  * @param obj Pointer pointing to XMC_CAN Global Initialization structure. Defines CAN global regis
 802:D:/Workspace/Development/my/DAVE/Infineon_CANopen/Libraries/XMCLib/inc\xmc_can.h ****  *        for details.
 803:D:/Workspace/Development/my/DAVE/Infineon_CANopen/Libraries/XMCLib/inc\xmc_can.h ****  *
 804:D:/Workspace/Development/my/DAVE/Infineon_CANopen/Libraries/XMCLib/inc\xmc_can.h ****  * @return baudrate generator input clock frequency
 805:D:/Workspace/Development/my/DAVE/Infineon_CANopen/Libraries/XMCLib/inc\xmc_can.h ****  *
 806:D:/Workspace/Development/my/DAVE/Infineon_CANopen/Libraries/XMCLib/inc\xmc_can.h ****  * \par<b>Description:</b><br>
 807:D:/Workspace/Development/my/DAVE/Infineon_CANopen/Libraries/XMCLib/inc\xmc_can.h ****  * Gets CAN baudrate generator input clock frequency
 808:D:/Workspace/Development/my/DAVE/Infineon_CANopen/Libraries/XMCLib/inc\xmc_can.h ****  */
 809:D:/Workspace/Development/my/DAVE/Infineon_CANopen/Libraries/XMCLib/inc\xmc_can.h **** uint32_t XMC_CAN_GetBaudrateClockFrequency(XMC_CAN_t *const obj);
 810:D:/Workspace/Development/my/DAVE/Infineon_CANopen/Libraries/XMCLib/inc\xmc_can.h **** 
 811:D:/Workspace/Development/my/DAVE/Infineon_CANopen/Libraries/XMCLib/inc\xmc_can.h **** /**
 812:D:/Workspace/Development/my/DAVE/Infineon_CANopen/Libraries/XMCLib/inc\xmc_can.h ****  * @param obj Pointer pointing to XMC_CAN Global Initialization structure. Defines CAN global regis
 813:D:/Workspace/Development/my/DAVE/Infineon_CANopen/Libraries/XMCLib/inc\xmc_can.h ****  *        for details.
 814:D:/Workspace/Development/my/DAVE/Infineon_CANopen/Libraries/XMCLib/inc\xmc_can.h ****  *
 815:D:/Workspace/Development/my/DAVE/Infineon_CANopen/Libraries/XMCLib/inc\xmc_can.h ****  * @return fCAN clock frequency
 816:D:/Workspace/Development/my/DAVE/Infineon_CANopen/Libraries/XMCLib/inc\xmc_can.h ****  *
 817:D:/Workspace/Development/my/DAVE/Infineon_CANopen/Libraries/XMCLib/inc\xmc_can.h ****  * \par<b>Description:</b><br>
 818:D:/Workspace/Development/my/DAVE/Infineon_CANopen/Libraries/XMCLib/inc\xmc_can.h ****  * Gets CAN base clock frequency
 819:D:/Workspace/Development/my/DAVE/Infineon_CANopen/Libraries/XMCLib/inc\xmc_can.h ****  *
 820:D:/Workspace/Development/my/DAVE/Infineon_CANopen/Libraries/XMCLib/inc\xmc_can.h ****  */
 821:D:/Workspace/Development/my/DAVE/Infineon_CANopen/Libraries/XMCLib/inc\xmc_can.h **** uint32_t XMC_CAN_GetClockFrequency(XMC_CAN_t *const obj);
 822:D:/Workspace/Development/my/DAVE/Infineon_CANopen/Libraries/XMCLib/inc\xmc_can.h **** 
 823:D:/Workspace/Development/my/DAVE/Infineon_CANopen/Libraries/XMCLib/inc\xmc_can.h **** #if defined(MULTICAN_PLUS) || defined(DOXYGEN)
 824:D:/Workspace/Development/my/DAVE/Infineon_CANopen/Libraries/XMCLib/inc\xmc_can.h **** /**
 825:D:/Workspace/Development/my/DAVE/Infineon_CANopen/Libraries/XMCLib/inc\xmc_can.h ****  *
 826:D:/Workspace/Development/my/DAVE/Infineon_CANopen/Libraries/XMCLib/inc\xmc_can.h ****  * @param obj Pointer pointing to XMC_CAN Global Initialization structure. Defines CAN global regis
 827:D:/Workspace/Development/my/DAVE/Infineon_CANopen/Libraries/XMCLib/inc\xmc_can.h ****  *        for details.
 828:D:/Workspace/Development/my/DAVE/Infineon_CANopen/Libraries/XMCLib/inc\xmc_can.h ****  *
 829:D:/Workspace/Development/my/DAVE/Infineon_CANopen/Libraries/XMCLib/inc\xmc_can.h ****  * @param clksrc CAN module frequency clock source.
 830:D:/Workspace/Development/my/DAVE/Infineon_CANopen/Libraries/XMCLib/inc\xmc_can.h ****  * @param can_frequency CAN module frequency(fCAN). Max. value: Max. clock source frequency, i.e. i
 831:D:/Workspace/Development/my/DAVE/Infineon_CANopen/Libraries/XMCLib/inc\xmc_can.h ****  * @note Use clksrc parameter only for XMC1400 series and XMC47/4800 series projects, otherwise omi
 832:D:/Workspace/Development/my/DAVE/Infineon_CANopen/Libraries/XMCLib/inc\xmc_can.h ****  *
 833:D:/Workspace/Development/my/DAVE/Infineon_CANopen/Libraries/XMCLib/inc\xmc_can.h ****  * @return None
 834:D:/Workspace/Development/my/DAVE/Infineon_CANopen/Libraries/XMCLib/inc\xmc_can.h ****  *
 835:D:/Workspace/Development/my/DAVE/Infineon_CANopen/Libraries/XMCLib/inc\xmc_can.h ****  * \par<b>Description:</b><br>
 836:D:/Workspace/Development/my/DAVE/Infineon_CANopen/Libraries/XMCLib/inc\xmc_can.h ****  * Configures clock rate of the module timer clock fCAN. Altering CAN module \a can_frequency shall
 837:D:/Workspace/Development/my/DAVE/Infineon_CANopen/Libraries/XMCLib/inc\xmc_can.h ****  * call XMC_CAN_NODE_NominalBitTimeConfigure() or XMC_CAN_NODE_NominalBitTimeConfigureEx() to confi
 838:D:/Workspace/Development/my/DAVE/Infineon_CANopen/Libraries/XMCLib/inc\xmc_can.h ****  * It configures FDR register.
 839:D:/Workspace/Development/my/DAVE/Infineon_CANopen/Libraries/XMCLib/inc\xmc_can.h ****  *
 840:D:/Workspace/Development/my/DAVE/Infineon_CANopen/Libraries/XMCLib/inc\xmc_can.h ****  * @note Use XMC_CAN_InitEx() for new projects. XMC_CAN_Init() is kept for backward compatibility r
 841:D:/Workspace/Development/my/DAVE/Infineon_CANopen/Libraries/XMCLib/inc\xmc_can.h ****  *
 842:D:/Workspace/Development/my/DAVE/Infineon_CANopen/Libraries/XMCLib/inc\xmc_can.h ****  * \par<b>Related APIs:</b><BR>
 843:D:/Workspace/Development/my/DAVE/Infineon_CANopen/Libraries/XMCLib/inc\xmc_can.h ****  * XMC_CAN_NODE_NominalBitTimeConfigure(), XMC_CAN_NODE_NominalBitTimeConfigureEx(), XMC_CAN_InitEx
 844:D:/Workspace/Development/my/DAVE/Infineon_CANopen/Libraries/XMCLib/inc\xmc_can.h ****  *
 845:D:/Workspace/Development/my/DAVE/Infineon_CANopen/Libraries/XMCLib/inc\xmc_can.h ****  */
 846:D:/Workspace/Development/my/DAVE/Infineon_CANopen/Libraries/XMCLib/inc\xmc_can.h **** void XMC_CAN_Init(XMC_CAN_t *const obj, XMC_CAN_CANCLKSRC_t clksrc, uint32_t can_frequency);
 847:D:/Workspace/Development/my/DAVE/Infineon_CANopen/Libraries/XMCLib/inc\xmc_can.h **** #else
 848:D:/Workspace/Development/my/DAVE/Infineon_CANopen/Libraries/XMCLib/inc\xmc_can.h **** void XMC_CAN_Init(XMC_CAN_t *const obj, uint32_t can_frequency);
 849:D:/Workspace/Development/my/DAVE/Infineon_CANopen/Libraries/XMCLib/inc\xmc_can.h **** #endif
 850:D:/Workspace/Development/my/DAVE/Infineon_CANopen/Libraries/XMCLib/inc\xmc_can.h **** 
 851:D:/Workspace/Development/my/DAVE/Infineon_CANopen/Libraries/XMCLib/inc\xmc_can.h **** /**
 852:D:/Workspace/Development/my/DAVE/Infineon_CANopen/Libraries/XMCLib/inc\xmc_can.h ****  *
 853:D:/Workspace/Development/my/DAVE/Infineon_CANopen/Libraries/XMCLib/inc\xmc_can.h ****  * @param can_mo Pointer to Message Object structure. Refer @ref XMC_CAN_MO_t data structure for de
 854:D:/Workspace/Development/my/DAVE/Infineon_CANopen/Libraries/XMCLib/inc\xmc_can.h ****  *
 855:D:/Workspace/Development/my/DAVE/Infineon_CANopen/Libraries/XMCLib/inc\xmc_can.h ****  * @return None
 856:D:/Workspace/Development/my/DAVE/Infineon_CANopen/Libraries/XMCLib/inc\xmc_can.h ****  *
 857:D:/Workspace/Development/my/DAVE/Infineon_CANopen/Libraries/XMCLib/inc\xmc_can.h ****  * \par<b>Description:</b><br>
 858:D:/Workspace/Development/my/DAVE/Infineon_CANopen/Libraries/XMCLib/inc\xmc_can.h ****  * Initializes CAN message object. Initialization includes configuring Message Object identifier ty
 859:D:/Workspace/Development/my/DAVE/Infineon_CANopen/Libraries/XMCLib/inc\xmc_can.h ****  * identifier value, Message Object type, and transfer requests. It configures FDR register.
 860:D:/Workspace/Development/my/DAVE/Infineon_CANopen/Libraries/XMCLib/inc\xmc_can.h ****  *
 861:D:/Workspace/Development/my/DAVE/Infineon_CANopen/Libraries/XMCLib/inc\xmc_can.h ****  * \par<b>Related APIs:</b><BR>
 862:D:/Workspace/Development/my/DAVE/Infineon_CANopen/Libraries/XMCLib/inc\xmc_can.h ****  * None
 863:D:/Workspace/Development/my/DAVE/Infineon_CANopen/Libraries/XMCLib/inc\xmc_can.h ****  *
 864:D:/Workspace/Development/my/DAVE/Infineon_CANopen/Libraries/XMCLib/inc\xmc_can.h ****  */
 865:D:/Workspace/Development/my/DAVE/Infineon_CANopen/Libraries/XMCLib/inc\xmc_can.h **** void XMC_CAN_MO_Config(const XMC_CAN_MO_t *const can_mo);
 866:D:/Workspace/Development/my/DAVE/Infineon_CANopen/Libraries/XMCLib/inc\xmc_can.h **** 
 867:D:/Workspace/Development/my/DAVE/Infineon_CANopen/Libraries/XMCLib/inc\xmc_can.h **** /* NODE APIs */
 868:D:/Workspace/Development/my/DAVE/Infineon_CANopen/Libraries/XMCLib/inc\xmc_can.h **** 
 869:D:/Workspace/Development/my/DAVE/Infineon_CANopen/Libraries/XMCLib/inc\xmc_can.h **** /**
 870:D:/Workspace/Development/my/DAVE/Infineon_CANopen/Libraries/XMCLib/inc\xmc_can.h ****  *
 871:D:/Workspace/Development/my/DAVE/Infineon_CANopen/Libraries/XMCLib/inc\xmc_can.h ****  * @param can_node      Pointer pointing to CAN_NODE Structure. Defines CAN_NODE registers.
 872:D:/Workspace/Development/my/DAVE/Infineon_CANopen/Libraries/XMCLib/inc\xmc_can.h ****  * @param ptr_event     CAN_NODE interrupt pointer position. Refer @ref XMC_CAN_NODE_POINTER_EVENT_
 873:D:/Workspace/Development/my/DAVE/Infineon_CANopen/Libraries/XMCLib/inc\xmc_can.h ****  * @param service_request Interrupt service request number. Range : 0-7
 874:D:/Workspace/Development/my/DAVE/Infineon_CANopen/Libraries/XMCLib/inc\xmc_can.h ****  *
 875:D:/Workspace/Development/my/DAVE/Infineon_CANopen/Libraries/XMCLib/inc\xmc_can.h ****  * @return None
 876:D:/Workspace/Development/my/DAVE/Infineon_CANopen/Libraries/XMCLib/inc\xmc_can.h ****  *
 877:D:/Workspace/Development/my/DAVE/Infineon_CANopen/Libraries/XMCLib/inc\xmc_can.h ****  * \par<b>Description:</b><br>
 878:D:/Workspace/Development/my/DAVE/Infineon_CANopen/Libraries/XMCLib/inc\xmc_can.h ****  *  Configures node interrupt pointer \a service_request for CAN Node events \a ptr_event. It confi
 879:D:/Workspace/Development/my/DAVE/Infineon_CANopen/Libraries/XMCLib/inc\xmc_can.h ****  *
 880:D:/Workspace/Development/my/DAVE/Infineon_CANopen/Libraries/XMCLib/inc\xmc_can.h ****  * \par<b>Related APIs:</b><BR>
 881:D:/Workspace/Development/my/DAVE/Infineon_CANopen/Libraries/XMCLib/inc\xmc_can.h ****  * None
 882:D:/Workspace/Development/my/DAVE/Infineon_CANopen/Libraries/XMCLib/inc\xmc_can.h ****  *
 883:D:/Workspace/Development/my/DAVE/Infineon_CANopen/Libraries/XMCLib/inc\xmc_can.h ****  */
 884:D:/Workspace/Development/my/DAVE/Infineon_CANopen/Libraries/XMCLib/inc\xmc_can.h **** 
 885:D:/Workspace/Development/my/DAVE/Infineon_CANopen/Libraries/XMCLib/inc\xmc_can.h **** __STATIC_INLINE void XMC_CAN_NODE_SetEventNodePointer(XMC_CAN_NODE_t *const can_node,
 886:D:/Workspace/Development/my/DAVE/Infineon_CANopen/Libraries/XMCLib/inc\xmc_can.h ****     const XMC_CAN_NODE_POINTER_EVENT_t ptr_event,
 887:D:/Workspace/Development/my/DAVE/Infineon_CANopen/Libraries/XMCLib/inc\xmc_can.h ****     const uint32_t service_request)
 888:D:/Workspace/Development/my/DAVE/Infineon_CANopen/Libraries/XMCLib/inc\xmc_can.h **** {
 889:D:/Workspace/Development/my/DAVE/Infineon_CANopen/Libraries/XMCLib/inc\xmc_can.h ****   can_node->NIPR = (uint32_t)((can_node->NIPR) & ~(uint32_t)(CAN_NODE_NIPR_Msk << (uint32_t)ptr_eve
 890:D:/Workspace/Development/my/DAVE/Infineon_CANopen/Libraries/XMCLib/inc\xmc_can.h **** }
 891:D:/Workspace/Development/my/DAVE/Infineon_CANopen/Libraries/XMCLib/inc\xmc_can.h **** 
 892:D:/Workspace/Development/my/DAVE/Infineon_CANopen/Libraries/XMCLib/inc\xmc_can.h **** 
 893:D:/Workspace/Development/my/DAVE/Infineon_CANopen/Libraries/XMCLib/inc\xmc_can.h **** /**
 894:D:/Workspace/Development/my/DAVE/Infineon_CANopen/Libraries/XMCLib/inc\xmc_can.h ****  *
 895:D:/Workspace/Development/my/DAVE/Infineon_CANopen/Libraries/XMCLib/inc\xmc_can.h ****  * @param can_node    Pointer pointing to CAN_NODE Structure. Defines CAN_NODE registers. Range :CA
 896:D:/Workspace/Development/my/DAVE/Infineon_CANopen/Libraries/XMCLib/inc\xmc_can.h ****  * @param can_bit_time  Nominal bit time configuration data structure. Refer @ref XMC_CAN_NODE_NOMI
 897:D:/Workspace/Development/my/DAVE/Infineon_CANopen/Libraries/XMCLib/inc\xmc_can.h ****  *
 898:D:/Workspace/Development/my/DAVE/Infineon_CANopen/Libraries/XMCLib/inc\xmc_can.h ****  * @return None
 899:D:/Workspace/Development/my/DAVE/Infineon_CANopen/Libraries/XMCLib/inc\xmc_can.h ****  *
 900:D:/Workspace/Development/my/DAVE/Infineon_CANopen/Libraries/XMCLib/inc\xmc_can.h ****  * \par<b>Description:</b><br>
 901:D:/Workspace/Development/my/DAVE/Infineon_CANopen/Libraries/XMCLib/inc\xmc_can.h ****  * Configures CAN node Baudrate. \a can_bit_time specifies required baudrate for a specified \a can
 902:D:/Workspace/Development/my/DAVE/Infineon_CANopen/Libraries/XMCLib/inc\xmc_can.h ****  * It configures NBTR register.
 903:D:/Workspace/Development/my/DAVE/Infineon_CANopen/Libraries/XMCLib/inc\xmc_can.h ****  *
 904:D:/Workspace/Development/my/DAVE/Infineon_CANopen/Libraries/XMCLib/inc\xmc_can.h ****  * \par<b>Related APIs:</b><BR>
 905:D:/Workspace/Development/my/DAVE/Infineon_CANopen/Libraries/XMCLib/inc\xmc_can.h ****  * None
 906:D:/Workspace/Development/my/DAVE/Infineon_CANopen/Libraries/XMCLib/inc\xmc_can.h ****  *
 907:D:/Workspace/Development/my/DAVE/Infineon_CANopen/Libraries/XMCLib/inc\xmc_can.h ****  */
 908:D:/Workspace/Development/my/DAVE/Infineon_CANopen/Libraries/XMCLib/inc\xmc_can.h **** void XMC_CAN_NODE_NominalBitTimeConfigure(XMC_CAN_NODE_t *const can_node,
 909:D:/Workspace/Development/my/DAVE/Infineon_CANopen/Libraries/XMCLib/inc\xmc_can.h ****     const XMC_CAN_NODE_NOMINAL_BIT_TIME_CONFIG_t *const can_bit_time);
 910:D:/Workspace/Development/my/DAVE/Infineon_CANopen/Libraries/XMCLib/inc\xmc_can.h **** 
 911:D:/Workspace/Development/my/DAVE/Infineon_CANopen/Libraries/XMCLib/inc\xmc_can.h **** /**
 912:D:/Workspace/Development/my/DAVE/Infineon_CANopen/Libraries/XMCLib/inc\xmc_can.h ****  *
 913:D:/Workspace/Development/my/DAVE/Infineon_CANopen/Libraries/XMCLib/inc\xmc_can.h ****  * @param can_node    Pointer pointing to CAN_NODE Structure. Defines CAN_NODE registers. Range :CA
 914:D:/Workspace/Development/my/DAVE/Infineon_CANopen/Libraries/XMCLib/inc\xmc_can.h ****  * @param can_bit_time  Nominal bit time configuration data structure. Refer @ref XMC_CAN_NODE_NOMI
 915:D:/Workspace/Development/my/DAVE/Infineon_CANopen/Libraries/XMCLib/inc\xmc_can.h ****  *
 916:D:/Workspace/Development/my/DAVE/Infineon_CANopen/Libraries/XMCLib/inc\xmc_can.h ****  * @return Status on the sucess setting the desired bitrate XMC_CAN_STATUS_t
 917:D:/Workspace/Development/my/DAVE/Infineon_CANopen/Libraries/XMCLib/inc\xmc_can.h ****  *
 918:D:/Workspace/Development/my/DAVE/Infineon_CANopen/Libraries/XMCLib/inc\xmc_can.h ****  * \par<b>Description:</b><br>
 919:D:/Workspace/Development/my/DAVE/Infineon_CANopen/Libraries/XMCLib/inc\xmc_can.h ****  * Similar to XMC_CAN_NODE_NominalBitTimeConfigure() configures the CAN node baudrate.
 920:D:/Workspace/Development/my/DAVE/Infineon_CANopen/Libraries/XMCLib/inc\xmc_can.h ****  * The difference being that allows bitrates below 100kpbs.
 921:D:/Workspace/Development/my/DAVE/Infineon_CANopen/Libraries/XMCLib/inc\xmc_can.h ****  * @note Consider using the new API for new projects. XMC_CAN_NODE_NominalBitTimeConfigure() is kep
 922:D:/Workspace/Development/my/DAVE/Infineon_CANopen/Libraries/XMCLib/inc\xmc_can.h ****  *
 923:D:/Workspace/Development/my/DAVE/Infineon_CANopen/Libraries/XMCLib/inc\xmc_can.h ****  * Configures CAN node Baudrate. \a can_bit_time specifies required baudrate for a specified \a can
 924:D:/Workspace/Development/my/DAVE/Infineon_CANopen/Libraries/XMCLib/inc\xmc_can.h ****  * It configures NBTR register.
 925:D:/Workspace/Development/my/DAVE/Infineon_CANopen/Libraries/XMCLib/inc\xmc_can.h ****  *
 926:D:/Workspace/Development/my/DAVE/Infineon_CANopen/Libraries/XMCLib/inc\xmc_can.h ****  * \par<b>Related APIs:</b><BR>
 927:D:/Workspace/Development/my/DAVE/Infineon_CANopen/Libraries/XMCLib/inc\xmc_can.h ****  * XMC_CAN_InitEx()
 928:D:/Workspace/Development/my/DAVE/Infineon_CANopen/Libraries/XMCLib/inc\xmc_can.h ****  *
 929:D:/Workspace/Development/my/DAVE/Infineon_CANopen/Libraries/XMCLib/inc\xmc_can.h ****  */
 930:D:/Workspace/Development/my/DAVE/Infineon_CANopen/Libraries/XMCLib/inc\xmc_can.h **** int32_t XMC_CAN_NODE_NominalBitTimeConfigureEx(XMC_CAN_NODE_t *const can_node,
 931:D:/Workspace/Development/my/DAVE/Infineon_CANopen/Libraries/XMCLib/inc\xmc_can.h ****     const XMC_CAN_NODE_NOMINAL_BIT_TIME_CONFIG_t *const can_bit_time);
 932:D:/Workspace/Development/my/DAVE/Infineon_CANopen/Libraries/XMCLib/inc\xmc_can.h **** 
 933:D:/Workspace/Development/my/DAVE/Infineon_CANopen/Libraries/XMCLib/inc\xmc_can.h **** /**
 934:D:/Workspace/Development/my/DAVE/Infineon_CANopen/Libraries/XMCLib/inc\xmc_can.h ****  * @param can_node Pointer pointing to CAN_NODE Structure. Defines CAN_NODE registers, Range :CAN_N
 935:D:/Workspace/Development/my/DAVE/Infineon_CANopen/Libraries/XMCLib/inc\xmc_can.h ****  * @param input    CAN receive input selection. Refer @ref XMC_CAN_NODE_RECEIVE_INPUT_t for details
 936:D:/Workspace/Development/my/DAVE/Infineon_CANopen/Libraries/XMCLib/inc\xmc_can.h ****  *
 937:D:/Workspace/Development/my/DAVE/Infineon_CANopen/Libraries/XMCLib/inc\xmc_can.h ****  * @return None
 938:D:/Workspace/Development/my/DAVE/Infineon_CANopen/Libraries/XMCLib/inc\xmc_can.h ****  *
 939:D:/Workspace/Development/my/DAVE/Infineon_CANopen/Libraries/XMCLib/inc\xmc_can.h ****  * \par<b>Description:</b><br>
 940:D:/Workspace/Development/my/DAVE/Infineon_CANopen/Libraries/XMCLib/inc\xmc_can.h ****  * \a input specifies CAN input receive pin. This API Configures NPCRx register,it is required to c
 941:D:/Workspace/Development/my/DAVE/Infineon_CANopen/Libraries/XMCLib/inc\xmc_can.h ****  * XMC_CAN_NODE_EnableConfigurationChange(), before configuring NPCRx register, call XMC_CAN_NODE_D
 942:D:/Workspace/Development/my/DAVE/Infineon_CANopen/Libraries/XMCLib/inc\xmc_can.h ****  * API after configuring NPCRx register. CAN input receive pins which falls under analog port pins 
 943:D:/Workspace/Development/my/DAVE/Infineon_CANopen/Libraries/XMCLib/inc\xmc_can.h ****  * XMC_GPIO_EnableDigitalInput(),to enable digital pad.
 944:D:/Workspace/Development/my/DAVE/Infineon_CANopen/Libraries/XMCLib/inc\xmc_can.h ****  *
 945:D:/Workspace/Development/my/DAVE/Infineon_CANopen/Libraries/XMCLib/inc\xmc_can.h ****  *\par<b>Related APIs:</b><BR>
 946:D:/Workspace/Development/my/DAVE/Infineon_CANopen/Libraries/XMCLib/inc\xmc_can.h ****  * None
 947:D:/Workspace/Development/my/DAVE/Infineon_CANopen/Libraries/XMCLib/inc\xmc_can.h ****  *
 948:D:/Workspace/Development/my/DAVE/Infineon_CANopen/Libraries/XMCLib/inc\xmc_can.h ****  * \par<b>Note:</b><br>
 949:D:/Workspace/Development/my/DAVE/Infineon_CANopen/Libraries/XMCLib/inc\xmc_can.h ****  * NPCRx can be written only if bit NCRx.CCE is set.
 950:D:/Workspace/Development/my/DAVE/Infineon_CANopen/Libraries/XMCLib/inc\xmc_can.h ****  *
 951:D:/Workspace/Development/my/DAVE/Infineon_CANopen/Libraries/XMCLib/inc\xmc_can.h ****  */
 952:D:/Workspace/Development/my/DAVE/Infineon_CANopen/Libraries/XMCLib/inc\xmc_can.h **** 
 953:D:/Workspace/Development/my/DAVE/Infineon_CANopen/Libraries/XMCLib/inc\xmc_can.h **** __STATIC_INLINE void XMC_CAN_NODE_SetReceiveInput(XMC_CAN_NODE_t *const can_node,
 954:D:/Workspace/Development/my/DAVE/Infineon_CANopen/Libraries/XMCLib/inc\xmc_can.h ****     const XMC_CAN_NODE_RECEIVE_INPUT_t input)
 955:D:/Workspace/Development/my/DAVE/Infineon_CANopen/Libraries/XMCLib/inc\xmc_can.h **** {
 956:D:/Workspace/Development/my/DAVE/Infineon_CANopen/Libraries/XMCLib/inc\xmc_can.h ****   can_node->NPCR = ((can_node->NPCR) & ~(uint32_t)(CAN_NODE_NPCR_RXSEL_Msk)) |
 957:D:/Workspace/Development/my/DAVE/Infineon_CANopen/Libraries/XMCLib/inc\xmc_can.h ****                    (((uint32_t)input << CAN_NODE_NPCR_RXSEL_Pos) & (uint32_t)CAN_NODE_NPCR_RXSEL_Ms
 958:D:/Workspace/Development/my/DAVE/Infineon_CANopen/Libraries/XMCLib/inc\xmc_can.h **** }
 959:D:/Workspace/Development/my/DAVE/Infineon_CANopen/Libraries/XMCLib/inc\xmc_can.h **** 
 960:D:/Workspace/Development/my/DAVE/Infineon_CANopen/Libraries/XMCLib/inc\xmc_can.h **** 
 961:D:/Workspace/Development/my/DAVE/Infineon_CANopen/Libraries/XMCLib/inc\xmc_can.h **** /**
 962:D:/Workspace/Development/my/DAVE/Infineon_CANopen/Libraries/XMCLib/inc\xmc_can.h ****  * @param can_node  Pointer Pointing to CAN_NODE Structure. Defines CAN_NODE registers, Range :CAN_
 963:D:/Workspace/Development/my/DAVE/Infineon_CANopen/Libraries/XMCLib/inc\xmc_can.h ****  *
 964:D:/Workspace/Development/my/DAVE/Infineon_CANopen/Libraries/XMCLib/inc\xmc_can.h ****  * @return None
 965:D:/Workspace/Development/my/DAVE/Infineon_CANopen/Libraries/XMCLib/inc\xmc_can.h ****  *
 966:D:/Workspace/Development/my/DAVE/Infineon_CANopen/Libraries/XMCLib/inc\xmc_can.h ****  * \par<b>Description:</b><br>
 967:D:/Workspace/Development/my/DAVE/Infineon_CANopen/Libraries/XMCLib/inc\xmc_can.h ****  * Enable Node \a can_node in Loop-Back Mode. A Node is connected to an internal (virtual) loop-bac
 968:D:/Workspace/Development/my/DAVE/Infineon_CANopen/Libraries/XMCLib/inc\xmc_can.h ****  * nodes which are in Loop- Back Mode are connected to this virtual CAN bus so that they can commun
 969:D:/Workspace/Development/my/DAVE/Infineon_CANopen/Libraries/XMCLib/inc\xmc_can.h ****  * other internally. The external transmit line is forced recessive in Loop-Back Mode. This API Con
 970:D:/Workspace/Development/my/DAVE/Infineon_CANopen/Libraries/XMCLib/inc\xmc_can.h ****  * call XMC_CAN_NODE_EnableConfigurationChange() API before NPCRx configuration, same way XMC_CAN_N
 971:D:/Workspace/Development/my/DAVE/Infineon_CANopen/Libraries/XMCLib/inc\xmc_can.h ****  * API after NPCRx configuration configuration.
 972:D:/Workspace/Development/my/DAVE/Infineon_CANopen/Libraries/XMCLib/inc\xmc_can.h ****  *
 973:D:/Workspace/Development/my/DAVE/Infineon_CANopen/Libraries/XMCLib/inc\xmc_can.h ****  * \par<b>Related APIs:</b><BR>]
 974:D:/Workspace/Development/my/DAVE/Infineon_CANopen/Libraries/XMCLib/inc\xmc_can.h ****  *  XMC_CAN_NODE_DisableLoopBack().
 975:D:/Workspace/Development/my/DAVE/Infineon_CANopen/Libraries/XMCLib/inc\xmc_can.h ****  *
 976:D:/Workspace/Development/my/DAVE/Infineon_CANopen/Libraries/XMCLib/inc\xmc_can.h ****  *  \par<b>Note:</b><br>
 977:D:/Workspace/Development/my/DAVE/Infineon_CANopen/Libraries/XMCLib/inc\xmc_can.h ****  *  NPCRx can be written only if bit NCRx.CCE is set.
 978:D:/Workspace/Development/my/DAVE/Infineon_CANopen/Libraries/XMCLib/inc\xmc_can.h ****  *
 979:D:/Workspace/Development/my/DAVE/Infineon_CANopen/Libraries/XMCLib/inc\xmc_can.h ****  */
 980:D:/Workspace/Development/my/DAVE/Infineon_CANopen/Libraries/XMCLib/inc\xmc_can.h **** 
 981:D:/Workspace/Development/my/DAVE/Infineon_CANopen/Libraries/XMCLib/inc\xmc_can.h **** __STATIC_INLINE void XMC_CAN_NODE_EnableLoopBack(XMC_CAN_NODE_t *const can_node)
 982:D:/Workspace/Development/my/DAVE/Infineon_CANopen/Libraries/XMCLib/inc\xmc_can.h **** {
 983:D:/Workspace/Development/my/DAVE/Infineon_CANopen/Libraries/XMCLib/inc\xmc_can.h ****   can_node->NPCR |= (uint32_t)CAN_NODE_NPCR_LBM_Msk;
 984:D:/Workspace/Development/my/DAVE/Infineon_CANopen/Libraries/XMCLib/inc\xmc_can.h **** }
 985:D:/Workspace/Development/my/DAVE/Infineon_CANopen/Libraries/XMCLib/inc\xmc_can.h **** 
 986:D:/Workspace/Development/my/DAVE/Infineon_CANopen/Libraries/XMCLib/inc\xmc_can.h **** 
 987:D:/Workspace/Development/my/DAVE/Infineon_CANopen/Libraries/XMCLib/inc\xmc_can.h **** /**
 988:D:/Workspace/Development/my/DAVE/Infineon_CANopen/Libraries/XMCLib/inc\xmc_can.h ****  * @param can_node Pointer Pointing to CAN_NODE Structure. Defines CAN_NODE registers, Range :CAN_N
 989:D:/Workspace/Development/my/DAVE/Infineon_CANopen/Libraries/XMCLib/inc\xmc_can.h ****  *
 990:D:/Workspace/Development/my/DAVE/Infineon_CANopen/Libraries/XMCLib/inc\xmc_can.h ****  * @return None
 991:D:/Workspace/Development/my/DAVE/Infineon_CANopen/Libraries/XMCLib/inc\xmc_can.h ****  *
 992:D:/Workspace/Development/my/DAVE/Infineon_CANopen/Libraries/XMCLib/inc\xmc_can.h ****  * \par<b>Description:</b><br>
 993:D:/Workspace/Development/my/DAVE/Infineon_CANopen/Libraries/XMCLib/inc\xmc_can.h ****  * Disable Node Loop-Back Mode, disables internal (virtual) loop-back CAN bus. This API Configures 
 994:D:/Workspace/Development/my/DAVE/Infineon_CANopen/Libraries/XMCLib/inc\xmc_can.h ****  * Call XMC_CAN_NODE_EnableConfigurationChange() API before NPCRx configuration, same way XMC_CAN_N
 995:D:/Workspace/Development/my/DAVE/Infineon_CANopen/Libraries/XMCLib/inc\xmc_can.h ****  * API after NPCRx configuration.
 996:D:/Workspace/Development/my/DAVE/Infineon_CANopen/Libraries/XMCLib/inc\xmc_can.h ****  *
 997:D:/Workspace/Development/my/DAVE/Infineon_CANopen/Libraries/XMCLib/inc\xmc_can.h ****  * \par<b>Related APIs:</b><BR>]
 998:D:/Workspace/Development/my/DAVE/Infineon_CANopen/Libraries/XMCLib/inc\xmc_can.h ****  * XMC_CAN_NODE_EnableLoopBack()
 999:D:/Workspace/Development/my/DAVE/Infineon_CANopen/Libraries/XMCLib/inc\xmc_can.h ****  *
1000:D:/Workspace/Development/my/DAVE/Infineon_CANopen/Libraries/XMCLib/inc\xmc_can.h ****  *
1001:D:/Workspace/Development/my/DAVE/Infineon_CANopen/Libraries/XMCLib/inc\xmc_can.h ****  * \par<b>Note:</b><br>
1002:D:/Workspace/Development/my/DAVE/Infineon_CANopen/Libraries/XMCLib/inc\xmc_can.h ****  * NPCRx can be written only if bit NCRx.CCE is set.
1003:D:/Workspace/Development/my/DAVE/Infineon_CANopen/Libraries/XMCLib/inc\xmc_can.h ****  *
1004:D:/Workspace/Development/my/DAVE/Infineon_CANopen/Libraries/XMCLib/inc\xmc_can.h ****  */
1005:D:/Workspace/Development/my/DAVE/Infineon_CANopen/Libraries/XMCLib/inc\xmc_can.h **** 
1006:D:/Workspace/Development/my/DAVE/Infineon_CANopen/Libraries/XMCLib/inc\xmc_can.h **** __STATIC_INLINE void XMC_CAN_NODE_DisableLoopBack(XMC_CAN_NODE_t *const can_node)
1007:D:/Workspace/Development/my/DAVE/Infineon_CANopen/Libraries/XMCLib/inc\xmc_can.h **** {
1008:D:/Workspace/Development/my/DAVE/Infineon_CANopen/Libraries/XMCLib/inc\xmc_can.h ****   can_node->NPCR &= ~(uint32_t)CAN_NODE_NPCR_LBM_Msk;
1009:D:/Workspace/Development/my/DAVE/Infineon_CANopen/Libraries/XMCLib/inc\xmc_can.h **** }
1010:D:/Workspace/Development/my/DAVE/Infineon_CANopen/Libraries/XMCLib/inc\xmc_can.h **** 
1011:D:/Workspace/Development/my/DAVE/Infineon_CANopen/Libraries/XMCLib/inc\xmc_can.h **** 
1012:D:/Workspace/Development/my/DAVE/Infineon_CANopen/Libraries/XMCLib/inc\xmc_can.h **** /**
1013:D:/Workspace/Development/my/DAVE/Infineon_CANopen/Libraries/XMCLib/inc\xmc_can.h ****  *
1014:D:/Workspace/Development/my/DAVE/Infineon_CANopen/Libraries/XMCLib/inc\xmc_can.h ****  * @param can_node Pointer Pointing to CAN_NODE Structure. Defines CAN_NODE registers, Range :CAN_N
1015:D:/Workspace/Development/my/DAVE/Infineon_CANopen/Libraries/XMCLib/inc\xmc_can.h ****  * @param event    CAN node event mask value. Refer @ref XMC_CAN_NODE_EVENT_t structure for valid v
1016:D:/Workspace/Development/my/DAVE/Infineon_CANopen/Libraries/XMCLib/inc\xmc_can.h ****  *           multiple events can be ORed.
1017:D:/Workspace/Development/my/DAVE/Infineon_CANopen/Libraries/XMCLib/inc\xmc_can.h ****  *
1018:D:/Workspace/Development/my/DAVE/Infineon_CANopen/Libraries/XMCLib/inc\xmc_can.h ****  * @return None
1019:D:/Workspace/Development/my/DAVE/Infineon_CANopen/Libraries/XMCLib/inc\xmc_can.h ****  *
1020:D:/Workspace/Development/my/DAVE/Infineon_CANopen/Libraries/XMCLib/inc\xmc_can.h ****  * \par<b>Description:</b><br>
1021:D:/Workspace/Development/my/DAVE/Infineon_CANopen/Libraries/XMCLib/inc\xmc_can.h ****  *  Enable CAN Node events. It configures NFCR register.
1022:D:/Workspace/Development/my/DAVE/Infineon_CANopen/Libraries/XMCLib/inc\xmc_can.h ****  *
1023:D:/Workspace/Development/my/DAVE/Infineon_CANopen/Libraries/XMCLib/inc\xmc_can.h ****  * \par<b>Related APIs:</b><BR>
1024:D:/Workspace/Development/my/DAVE/Infineon_CANopen/Libraries/XMCLib/inc\xmc_can.h ****  * XMC_CAN_NODE_DisableEvent()
1025:D:/Workspace/Development/my/DAVE/Infineon_CANopen/Libraries/XMCLib/inc\xmc_can.h ****  *
1026:D:/Workspace/Development/my/DAVE/Infineon_CANopen/Libraries/XMCLib/inc\xmc_can.h ****  */
1027:D:/Workspace/Development/my/DAVE/Infineon_CANopen/Libraries/XMCLib/inc\xmc_can.h **** 
1028:D:/Workspace/Development/my/DAVE/Infineon_CANopen/Libraries/XMCLib/inc\xmc_can.h **** void XMC_CAN_NODE_EnableEvent(XMC_CAN_NODE_t *const can_node, const XMC_CAN_NODE_EVENT_t event);
1029:D:/Workspace/Development/my/DAVE/Infineon_CANopen/Libraries/XMCLib/inc\xmc_can.h **** 
1030:D:/Workspace/Development/my/DAVE/Infineon_CANopen/Libraries/XMCLib/inc\xmc_can.h **** 
1031:D:/Workspace/Development/my/DAVE/Infineon_CANopen/Libraries/XMCLib/inc\xmc_can.h **** /**
1032:D:/Workspace/Development/my/DAVE/Infineon_CANopen/Libraries/XMCLib/inc\xmc_can.h ****  *
1033:D:/Workspace/Development/my/DAVE/Infineon_CANopen/Libraries/XMCLib/inc\xmc_can.h ****  * @param can_node Pointer Pointing to CAN_NODE Structure. Defines CAN_NODE registers, Range :CAN_N
1034:D:/Workspace/Development/my/DAVE/Infineon_CANopen/Libraries/XMCLib/inc\xmc_can.h ****  * @param event    CAN node event mask value. Refer @ref XMC_CAN_NODE_EVENT_t structure for valid v
1035:D:/Workspace/Development/my/DAVE/Infineon_CANopen/Libraries/XMCLib/inc\xmc_can.h ****  *           multiple events can be ORed.
1036:D:/Workspace/Development/my/DAVE/Infineon_CANopen/Libraries/XMCLib/inc\xmc_can.h ****  *
1037:D:/Workspace/Development/my/DAVE/Infineon_CANopen/Libraries/XMCLib/inc\xmc_can.h ****  * @return None
1038:D:/Workspace/Development/my/DAVE/Infineon_CANopen/Libraries/XMCLib/inc\xmc_can.h ****  *
1039:D:/Workspace/Development/my/DAVE/Infineon_CANopen/Libraries/XMCLib/inc\xmc_can.h ****  * \par<b>Description:</b><br>
1040:D:/Workspace/Development/my/DAVE/Infineon_CANopen/Libraries/XMCLib/inc\xmc_can.h ****  *  Disable CAN Node events. It configures NFCR register.
1041:D:/Workspace/Development/my/DAVE/Infineon_CANopen/Libraries/XMCLib/inc\xmc_can.h ****  *
1042:D:/Workspace/Development/my/DAVE/Infineon_CANopen/Libraries/XMCLib/inc\xmc_can.h ****  * \par<b>Related APIs:</b><BR>
1043:D:/Workspace/Development/my/DAVE/Infineon_CANopen/Libraries/XMCLib/inc\xmc_can.h ****  * XMC_CAN_NODE_EnableEvent()
1044:D:/Workspace/Development/my/DAVE/Infineon_CANopen/Libraries/XMCLib/inc\xmc_can.h ****  *
1045:D:/Workspace/Development/my/DAVE/Infineon_CANopen/Libraries/XMCLib/inc\xmc_can.h ****  */
1046:D:/Workspace/Development/my/DAVE/Infineon_CANopen/Libraries/XMCLib/inc\xmc_can.h **** 
1047:D:/Workspace/Development/my/DAVE/Infineon_CANopen/Libraries/XMCLib/inc\xmc_can.h **** void XMC_CAN_NODE_DisableEvent(XMC_CAN_NODE_t *const can_node, const XMC_CAN_NODE_EVENT_t event);
1048:D:/Workspace/Development/my/DAVE/Infineon_CANopen/Libraries/XMCLib/inc\xmc_can.h **** 
1049:D:/Workspace/Development/my/DAVE/Infineon_CANopen/Libraries/XMCLib/inc\xmc_can.h **** 
1050:D:/Workspace/Development/my/DAVE/Infineon_CANopen/Libraries/XMCLib/inc\xmc_can.h **** /**
1051:D:/Workspace/Development/my/DAVE/Infineon_CANopen/Libraries/XMCLib/inc\xmc_can.h ****  *
1052:D:/Workspace/Development/my/DAVE/Infineon_CANopen/Libraries/XMCLib/inc\xmc_can.h ****  * @param node Pointer Pointing to CAN_NODE Structure. Defines CAN_NODE registers, Range :CAN_NODE0
1053:D:/Workspace/Development/my/DAVE/Infineon_CANopen/Libraries/XMCLib/inc\xmc_can.h ****  *
1054:D:/Workspace/Development/my/DAVE/Infineon_CANopen/Libraries/XMCLib/inc\xmc_can.h ****  * @return XMC_CAN_NODE_LAST_ERROR_DIR_t Last error transfer direction. Refer @ref XMC_CAN_NODE_LAS
1055:D:/Workspace/Development/my/DAVE/Infineon_CANopen/Libraries/XMCLib/inc\xmc_can.h ****  *
1056:D:/Workspace/Development/my/DAVE/Infineon_CANopen/Libraries/XMCLib/inc\xmc_can.h ****  * \par<b>Description:</b><br>
1057:D:/Workspace/Development/my/DAVE/Infineon_CANopen/Libraries/XMCLib/inc\xmc_can.h ****  * Returns NODE Last Error occurred during Transmit/receive direction. It returns value of NFCR reg
1058:D:/Workspace/Development/my/DAVE/Infineon_CANopen/Libraries/XMCLib/inc\xmc_can.h ****  *
1059:D:/Workspace/Development/my/DAVE/Infineon_CANopen/Libraries/XMCLib/inc\xmc_can.h ****  * \par<b>Related APIs:</b><BR>
1060:D:/Workspace/Development/my/DAVE/Infineon_CANopen/Libraries/XMCLib/inc\xmc_can.h ****  * XMC_CAN_NODE_GetLastErrTransferInc()\n\n\n
1061:D:/Workspace/Development/my/DAVE/Infineon_CANopen/Libraries/XMCLib/inc\xmc_can.h ****  *
1062:D:/Workspace/Development/my/DAVE/Infineon_CANopen/Libraries/XMCLib/inc\xmc_can.h ****  */
1063:D:/Workspace/Development/my/DAVE/Infineon_CANopen/Libraries/XMCLib/inc\xmc_can.h **** 
1064:D:/Workspace/Development/my/DAVE/Infineon_CANopen/Libraries/XMCLib/inc\xmc_can.h **** __STATIC_INLINE XMC_CAN_NODE_LAST_ERROR_DIR_t XMC_CAN_NODE_GetLastErrTransferDir(XMC_CAN_NODE_t *co
1065:D:/Workspace/Development/my/DAVE/Infineon_CANopen/Libraries/XMCLib/inc\xmc_can.h **** {
1066:D:/Workspace/Development/my/DAVE/Infineon_CANopen/Libraries/XMCLib/inc\xmc_can.h ****   return (XMC_CAN_NODE_LAST_ERROR_DIR_t)(((node->NECNT) & CAN_NODE_NECNT_LETD_Msk) >> CAN_NODE_NECN
1067:D:/Workspace/Development/my/DAVE/Infineon_CANopen/Libraries/XMCLib/inc\xmc_can.h **** }
1068:D:/Workspace/Development/my/DAVE/Infineon_CANopen/Libraries/XMCLib/inc\xmc_can.h **** 
1069:D:/Workspace/Development/my/DAVE/Infineon_CANopen/Libraries/XMCLib/inc\xmc_can.h **** 
1070:D:/Workspace/Development/my/DAVE/Infineon_CANopen/Libraries/XMCLib/inc\xmc_can.h **** /**
1071:D:/Workspace/Development/my/DAVE/Infineon_CANopen/Libraries/XMCLib/inc\xmc_can.h ****  *
1072:D:/Workspace/Development/my/DAVE/Infineon_CANopen/Libraries/XMCLib/inc\xmc_can.h ****  * @param node Pointer Pointing to CAN_NODE Structure. Defines CAN_NODE registers, Range :CAN_NODE0
1073:D:/Workspace/Development/my/DAVE/Infineon_CANopen/Libraries/XMCLib/inc\xmc_can.h ****  *
1074:D:/Workspace/Development/my/DAVE/Infineon_CANopen/Libraries/XMCLib/inc\xmc_can.h ****  * @return XMC_CAN_NODE_LAST_ERROR_INC_t Last error transfer increment. Refer @ref XMC_CAN_NODE_LAS
1075:D:/Workspace/Development/my/DAVE/Infineon_CANopen/Libraries/XMCLib/inc\xmc_can.h ****  *
1076:D:/Workspace/Development/my/DAVE/Infineon_CANopen/Libraries/XMCLib/inc\xmc_can.h ****  * \par<b>Description:</b><br>
1077:D:/Workspace/Development/my/DAVE/Infineon_CANopen/Libraries/XMCLib/inc\xmc_can.h ****  *  Returns NODE Last Error Transfer Increment. It returns value of NFCR register.
1078:D:/Workspace/Development/my/DAVE/Infineon_CANopen/Libraries/XMCLib/inc\xmc_can.h ****  *
1079:D:/Workspace/Development/my/DAVE/Infineon_CANopen/Libraries/XMCLib/inc\xmc_can.h ****  * \par<b>Related APIs:</b><BR>
1080:D:/Workspace/Development/my/DAVE/Infineon_CANopen/Libraries/XMCLib/inc\xmc_can.h ****  * XMC_CAN_NODE_GetLastErrTransferDir()\n\n\n
1081:D:/Workspace/Development/my/DAVE/Infineon_CANopen/Libraries/XMCLib/inc\xmc_can.h ****  *
1082:D:/Workspace/Development/my/DAVE/Infineon_CANopen/Libraries/XMCLib/inc\xmc_can.h ****  */
1083:D:/Workspace/Development/my/DAVE/Infineon_CANopen/Libraries/XMCLib/inc\xmc_can.h **** 
1084:D:/Workspace/Development/my/DAVE/Infineon_CANopen/Libraries/XMCLib/inc\xmc_can.h **** __STATIC_INLINE XMC_CAN_NODE_LAST_ERROR_INC_t XMC_CAN_NODE_GetLastErrTransferInc(XMC_CAN_NODE_t *co
1085:D:/Workspace/Development/my/DAVE/Infineon_CANopen/Libraries/XMCLib/inc\xmc_can.h **** {
1086:D:/Workspace/Development/my/DAVE/Infineon_CANopen/Libraries/XMCLib/inc\xmc_can.h ****   return (XMC_CAN_NODE_LAST_ERROR_INC_t)(((node->NECNT) & CAN_NODE_NECNT_LEINC_Msk) >> CAN_NODE_NEC
1087:D:/Workspace/Development/my/DAVE/Infineon_CANopen/Libraries/XMCLib/inc\xmc_can.h **** }
1088:D:/Workspace/Development/my/DAVE/Infineon_CANopen/Libraries/XMCLib/inc\xmc_can.h **** 
1089:D:/Workspace/Development/my/DAVE/Infineon_CANopen/Libraries/XMCLib/inc\xmc_can.h **** 
1090:D:/Workspace/Development/my/DAVE/Infineon_CANopen/Libraries/XMCLib/inc\xmc_can.h **** /**
1091:D:/Workspace/Development/my/DAVE/Infineon_CANopen/Libraries/XMCLib/inc\xmc_can.h ****  *
1092:D:/Workspace/Development/my/DAVE/Infineon_CANopen/Libraries/XMCLib/inc\xmc_can.h ****  * @param can_node Pointer Pointing to CAN_NODE Structure. Defines CAN_NODE registers, Range :CAN_N
1093:D:/Workspace/Development/my/DAVE/Infineon_CANopen/Libraries/XMCLib/inc\xmc_can.h ****  * @param  error_warning_level  Error Warning level value. Range :0-255.
1094:D:/Workspace/Development/my/DAVE/Infineon_CANopen/Libraries/XMCLib/inc\xmc_can.h ****  *
1095:D:/Workspace/Development/my/DAVE/Infineon_CANopen/Libraries/XMCLib/inc\xmc_can.h ****  * @return None
1096:D:/Workspace/Development/my/DAVE/Infineon_CANopen/Libraries/XMCLib/inc\xmc_can.h ****  *
1097:D:/Workspace/Development/my/DAVE/Infineon_CANopen/Libraries/XMCLib/inc\xmc_can.h ****  * \par<b>Description:</b><br>
1098:D:/Workspace/Development/my/DAVE/Infineon_CANopen/Libraries/XMCLib/inc\xmc_can.h ****  * Configures error warning level in order to set the corresponding error warning bit EWRN. It conf
1099:D:/Workspace/Development/my/DAVE/Infineon_CANopen/Libraries/XMCLib/inc\xmc_can.h ****  * into NECNT register. Before this configuration call XMC_CAN_NODE_EnableConfigurationChange() API
1100:D:/Workspace/Development/my/DAVE/Infineon_CANopen/Libraries/XMCLib/inc\xmc_can.h ****  *
1101:D:/Workspace/Development/my/DAVE/Infineon_CANopen/Libraries/XMCLib/inc\xmc_can.h ****  * \par<b>Related APIs:</b><BR>
1102:D:/Workspace/Development/my/DAVE/Infineon_CANopen/Libraries/XMCLib/inc\xmc_can.h ****  * XMC_CAN_NODE_GetErrorWarningLevel()\n\n\n
1103:D:/Workspace/Development/my/DAVE/Infineon_CANopen/Libraries/XMCLib/inc\xmc_can.h ****  *
1104:D:/Workspace/Development/my/DAVE/Infineon_CANopen/Libraries/XMCLib/inc\xmc_can.h ****  * \par<b>Note:</b><br>
1105:D:/Workspace/Development/my/DAVE/Infineon_CANopen/Libraries/XMCLib/inc\xmc_can.h ****  *  NECNTx can be written only if bit NCRx.CCE is set.
1106:D:/Workspace/Development/my/DAVE/Infineon_CANopen/Libraries/XMCLib/inc\xmc_can.h ****  *
1107:D:/Workspace/Development/my/DAVE/Infineon_CANopen/Libraries/XMCLib/inc\xmc_can.h ****  */
1108:D:/Workspace/Development/my/DAVE/Infineon_CANopen/Libraries/XMCLib/inc\xmc_can.h **** 
1109:D:/Workspace/Development/my/DAVE/Infineon_CANopen/Libraries/XMCLib/inc\xmc_can.h **** __STATIC_INLINE void XMC_CAN_NODE_SetErrorWarningLevel(XMC_CAN_NODE_t *const can_node, uint8_t erro
1110:D:/Workspace/Development/my/DAVE/Infineon_CANopen/Libraries/XMCLib/inc\xmc_can.h **** {
1111:D:/Workspace/Development/my/DAVE/Infineon_CANopen/Libraries/XMCLib/inc\xmc_can.h ****   can_node->NECNT = ((can_node->NECNT) & ~(uint32_t)(CAN_NODE_NECNT_EWRNLVL_Msk)) |
1112:D:/Workspace/Development/my/DAVE/Infineon_CANopen/Libraries/XMCLib/inc\xmc_can.h ****                     (((uint32_t)error_warning_level << CAN_NODE_NECNT_EWRNLVL_Pos) & (uint32_t)CAN_
1113:D:/Workspace/Development/my/DAVE/Infineon_CANopen/Libraries/XMCLib/inc\xmc_can.h **** }
1114:D:/Workspace/Development/my/DAVE/Infineon_CANopen/Libraries/XMCLib/inc\xmc_can.h **** 
1115:D:/Workspace/Development/my/DAVE/Infineon_CANopen/Libraries/XMCLib/inc\xmc_can.h **** 
1116:D:/Workspace/Development/my/DAVE/Infineon_CANopen/Libraries/XMCLib/inc\xmc_can.h **** /**
1117:D:/Workspace/Development/my/DAVE/Infineon_CANopen/Libraries/XMCLib/inc\xmc_can.h ****  *
1118:D:/Workspace/Development/my/DAVE/Infineon_CANopen/Libraries/XMCLib/inc\xmc_can.h ****  * @param can_node Pointer Pointing to CAN_NODE Structure. Defines CAN_NODE registers, Range :CAN_N
1119:D:/Workspace/Development/my/DAVE/Infineon_CANopen/Libraries/XMCLib/inc\xmc_can.h ****  * @param can_tec  transmit error counter value. Range :0-255
1120:D:/Workspace/Development/my/DAVE/Infineon_CANopen/Libraries/XMCLib/inc\xmc_can.h ****  *
1121:D:/Workspace/Development/my/DAVE/Infineon_CANopen/Libraries/XMCLib/inc\xmc_can.h ****  * @return None
1122:D:/Workspace/Development/my/DAVE/Infineon_CANopen/Libraries/XMCLib/inc\xmc_can.h ****  *
1123:D:/Workspace/Development/my/DAVE/Infineon_CANopen/Libraries/XMCLib/inc\xmc_can.h ****  * \par<b>Description:</b><br>
1124:D:/Workspace/Development/my/DAVE/Infineon_CANopen/Libraries/XMCLib/inc\xmc_can.h ****  *  Configures Transmit error counter. It configures \a can_tec into NECNT register. Before this co
1125:D:/Workspace/Development/my/DAVE/Infineon_CANopen/Libraries/XMCLib/inc\xmc_can.h ****  *  XMC_CAN_NODE_EnableConfigurationChange() API.
1126:D:/Workspace/Development/my/DAVE/Infineon_CANopen/Libraries/XMCLib/inc\xmc_can.h ****  *
1127:D:/Workspace/Development/my/DAVE/Infineon_CANopen/Libraries/XMCLib/inc\xmc_can.h ****  * \par<b>Related APIs:</b><BR>
1128:D:/Workspace/Development/my/DAVE/Infineon_CANopen/Libraries/XMCLib/inc\xmc_can.h ****  * XMC_CAN_NODE_GetTransmitErrorCounter()\n\n\n
1129:D:/Workspace/Development/my/DAVE/Infineon_CANopen/Libraries/XMCLib/inc\xmc_can.h ****  *
1130:D:/Workspace/Development/my/DAVE/Infineon_CANopen/Libraries/XMCLib/inc\xmc_can.h ****  *  \par<b>Note:</b><br>
1131:D:/Workspace/Development/my/DAVE/Infineon_CANopen/Libraries/XMCLib/inc\xmc_can.h ****  *  NECNTx can be written only if bit NCRx.CCE is set.
1132:D:/Workspace/Development/my/DAVE/Infineon_CANopen/Libraries/XMCLib/inc\xmc_can.h ****  *
1133:D:/Workspace/Development/my/DAVE/Infineon_CANopen/Libraries/XMCLib/inc\xmc_can.h ****  */
1134:D:/Workspace/Development/my/DAVE/Infineon_CANopen/Libraries/XMCLib/inc\xmc_can.h **** 
1135:D:/Workspace/Development/my/DAVE/Infineon_CANopen/Libraries/XMCLib/inc\xmc_can.h **** 
1136:D:/Workspace/Development/my/DAVE/Infineon_CANopen/Libraries/XMCLib/inc\xmc_can.h **** __STATIC_INLINE void XMC_CAN_NODE_SetTransmitErrorCounter(XMC_CAN_NODE_t *const can_node, uint8_t c
1137:D:/Workspace/Development/my/DAVE/Infineon_CANopen/Libraries/XMCLib/inc\xmc_can.h **** {
1138:D:/Workspace/Development/my/DAVE/Infineon_CANopen/Libraries/XMCLib/inc\xmc_can.h ****   can_node->NECNT = ((can_node->NECNT) & ~(uint32_t)(CAN_NODE_NECNT_TEC_Msk)) |
1139:D:/Workspace/Development/my/DAVE/Infineon_CANopen/Libraries/XMCLib/inc\xmc_can.h ****                     (((uint32_t)can_tec << CAN_NODE_NECNT_TEC_Pos) & (uint32_t)CAN_NODE_NECNT_TEC_M
1140:D:/Workspace/Development/my/DAVE/Infineon_CANopen/Libraries/XMCLib/inc\xmc_can.h **** }
1141:D:/Workspace/Development/my/DAVE/Infineon_CANopen/Libraries/XMCLib/inc\xmc_can.h **** 
1142:D:/Workspace/Development/my/DAVE/Infineon_CANopen/Libraries/XMCLib/inc\xmc_can.h **** 
1143:D:/Workspace/Development/my/DAVE/Infineon_CANopen/Libraries/XMCLib/inc\xmc_can.h **** /**
1144:D:/Workspace/Development/my/DAVE/Infineon_CANopen/Libraries/XMCLib/inc\xmc_can.h ****  *
1145:D:/Workspace/Development/my/DAVE/Infineon_CANopen/Libraries/XMCLib/inc\xmc_can.h ****  * @param can_node Pointer Pointing to CAN_NODE Structure. Defines CAN_NODE registers, Range :CAN_N
1146:D:/Workspace/Development/my/DAVE/Infineon_CANopen/Libraries/XMCLib/inc\xmc_can.h ****  * @param can_rec  receive error counter value. Range :0-255
1147:D:/Workspace/Development/my/DAVE/Infineon_CANopen/Libraries/XMCLib/inc\xmc_can.h ****  *
1148:D:/Workspace/Development/my/DAVE/Infineon_CANopen/Libraries/XMCLib/inc\xmc_can.h ****  * @return None
1149:D:/Workspace/Development/my/DAVE/Infineon_CANopen/Libraries/XMCLib/inc\xmc_can.h ****  *
1150:D:/Workspace/Development/my/DAVE/Infineon_CANopen/Libraries/XMCLib/inc\xmc_can.h ****  * \par<b>Description:</b><br>
1151:D:/Workspace/Development/my/DAVE/Infineon_CANopen/Libraries/XMCLib/inc\xmc_can.h ****  * Configures Receive Error Counter. It configures \a can_rec into NECNT register. Before this conf
1152:D:/Workspace/Development/my/DAVE/Infineon_CANopen/Libraries/XMCLib/inc\xmc_can.h ****  * XMC_CAN_NODE_EnableConfigurationChange() API.
1153:D:/Workspace/Development/my/DAVE/Infineon_CANopen/Libraries/XMCLib/inc\xmc_can.h ****  *
1154:D:/Workspace/Development/my/DAVE/Infineon_CANopen/Libraries/XMCLib/inc\xmc_can.h ****  * \par<b>Related APIs:</b><BR>
1155:D:/Workspace/Development/my/DAVE/Infineon_CANopen/Libraries/XMCLib/inc\xmc_can.h ****  * XMC_CAN_NODE_GetReceiveErrorCounter()\n\n\n
1156:D:/Workspace/Development/my/DAVE/Infineon_CANopen/Libraries/XMCLib/inc\xmc_can.h ****  *
1157:D:/Workspace/Development/my/DAVE/Infineon_CANopen/Libraries/XMCLib/inc\xmc_can.h ****  * \par<b>Note:</b><br>
1158:D:/Workspace/Development/my/DAVE/Infineon_CANopen/Libraries/XMCLib/inc\xmc_can.h ****  *  NECNTx can be written only if bit NCRx.CCE is set.
1159:D:/Workspace/Development/my/DAVE/Infineon_CANopen/Libraries/XMCLib/inc\xmc_can.h ****  *
1160:D:/Workspace/Development/my/DAVE/Infineon_CANopen/Libraries/XMCLib/inc\xmc_can.h ****  */
1161:D:/Workspace/Development/my/DAVE/Infineon_CANopen/Libraries/XMCLib/inc\xmc_can.h **** 
1162:D:/Workspace/Development/my/DAVE/Infineon_CANopen/Libraries/XMCLib/inc\xmc_can.h **** __STATIC_INLINE void XMC_CAN_NODE_SetReceiveErrorCounter(XMC_CAN_NODE_t *const can_node, uint8_t ca
1163:D:/Workspace/Development/my/DAVE/Infineon_CANopen/Libraries/XMCLib/inc\xmc_can.h **** {
1164:D:/Workspace/Development/my/DAVE/Infineon_CANopen/Libraries/XMCLib/inc\xmc_can.h ****   can_node->NECNT = ((can_node->NECNT) & ~(uint32_t)(CAN_NODE_NECNT_REC_Msk)) |
1165:D:/Workspace/Development/my/DAVE/Infineon_CANopen/Libraries/XMCLib/inc\xmc_can.h ****                     (((uint32_t)can_rec << CAN_NODE_NECNT_REC_Pos) & (uint32_t)CAN_NODE_NECNT_REC_M
1166:D:/Workspace/Development/my/DAVE/Infineon_CANopen/Libraries/XMCLib/inc\xmc_can.h **** }
1167:D:/Workspace/Development/my/DAVE/Infineon_CANopen/Libraries/XMCLib/inc\xmc_can.h **** 
1168:D:/Workspace/Development/my/DAVE/Infineon_CANopen/Libraries/XMCLib/inc\xmc_can.h **** 
1169:D:/Workspace/Development/my/DAVE/Infineon_CANopen/Libraries/XMCLib/inc\xmc_can.h **** /**
1170:D:/Workspace/Development/my/DAVE/Infineon_CANopen/Libraries/XMCLib/inc\xmc_can.h ****  *
1171:D:/Workspace/Development/my/DAVE/Infineon_CANopen/Libraries/XMCLib/inc\xmc_can.h ****  * @param can_node Pointer Pointing to CAN_NODE Structure. Defines CAN_NODE registers, Range :CAN_N
1172:D:/Workspace/Development/my/DAVE/Infineon_CANopen/Libraries/XMCLib/inc\xmc_can.h ****  *
1173:D:/Workspace/Development/my/DAVE/Infineon_CANopen/Libraries/XMCLib/inc\xmc_can.h ****  * @return uint8_t Error Warning Level. Range :0 - 255
1174:D:/Workspace/Development/my/DAVE/Infineon_CANopen/Libraries/XMCLib/inc\xmc_can.h ****  *
1175:D:/Workspace/Development/my/DAVE/Infineon_CANopen/Libraries/XMCLib/inc\xmc_can.h ****  * \par<b>Description:</b><br>
1176:D:/Workspace/Development/my/DAVE/Infineon_CANopen/Libraries/XMCLib/inc\xmc_can.h ****  *  Returns error warning level. This determines the threshold value (warning level, default 96) to
1177:D:/Workspace/Development/my/DAVE/Infineon_CANopen/Libraries/XMCLib/inc\xmc_can.h ****  *  to set the corresponding error warning bit EWRN. It reads NECNT register.
1178:D:/Workspace/Development/my/DAVE/Infineon_CANopen/Libraries/XMCLib/inc\xmc_can.h ****  *
1179:D:/Workspace/Development/my/DAVE/Infineon_CANopen/Libraries/XMCLib/inc\xmc_can.h ****  * \par<b>Related APIs:</b><BR>
1180:D:/Workspace/Development/my/DAVE/Infineon_CANopen/Libraries/XMCLib/inc\xmc_can.h ****  * XMC_CAN_NODE_SetErrorWarningLevel()\n\n\n
1181:D:/Workspace/Development/my/DAVE/Infineon_CANopen/Libraries/XMCLib/inc\xmc_can.h ****  *
1182:D:/Workspace/Development/my/DAVE/Infineon_CANopen/Libraries/XMCLib/inc\xmc_can.h ****  */
1183:D:/Workspace/Development/my/DAVE/Infineon_CANopen/Libraries/XMCLib/inc\xmc_can.h **** 
1184:D:/Workspace/Development/my/DAVE/Infineon_CANopen/Libraries/XMCLib/inc\xmc_can.h **** 
1185:D:/Workspace/Development/my/DAVE/Infineon_CANopen/Libraries/XMCLib/inc\xmc_can.h **** __STATIC_INLINE uint8_t XMC_CAN_NODE_GetErrorWarningLevel(XMC_CAN_NODE_t *const can_node)
1186:D:/Workspace/Development/my/DAVE/Infineon_CANopen/Libraries/XMCLib/inc\xmc_can.h **** {
1187:D:/Workspace/Development/my/DAVE/Infineon_CANopen/Libraries/XMCLib/inc\xmc_can.h ****   return (uint8_t)((uint32_t)((can_node->NECNT)  & CAN_NODE_NECNT_EWRNLVL_Msk) >> CAN_NODE_NECNT_EW
1188:D:/Workspace/Development/my/DAVE/Infineon_CANopen/Libraries/XMCLib/inc\xmc_can.h **** }
1189:D:/Workspace/Development/my/DAVE/Infineon_CANopen/Libraries/XMCLib/inc\xmc_can.h **** 
1190:D:/Workspace/Development/my/DAVE/Infineon_CANopen/Libraries/XMCLib/inc\xmc_can.h **** 
1191:D:/Workspace/Development/my/DAVE/Infineon_CANopen/Libraries/XMCLib/inc\xmc_can.h **** /**
1192:D:/Workspace/Development/my/DAVE/Infineon_CANopen/Libraries/XMCLib/inc\xmc_can.h ****  *
1193:D:/Workspace/Development/my/DAVE/Infineon_CANopen/Libraries/XMCLib/inc\xmc_can.h ****  * @param can_node Pointer Pointing to CAN_NODE Structure. Defines CAN_NODE registers, Range :CAN_N
1194:D:/Workspace/Development/my/DAVE/Infineon_CANopen/Libraries/XMCLib/inc\xmc_can.h ****  *
1195:D:/Workspace/Development/my/DAVE/Infineon_CANopen/Libraries/XMCLib/inc\xmc_can.h ****  * @return uint8_t transmit error counter value. Range :0 - 255
1196:D:/Workspace/Development/my/DAVE/Infineon_CANopen/Libraries/XMCLib/inc\xmc_can.h ****  *
1197:D:/Workspace/Development/my/DAVE/Infineon_CANopen/Libraries/XMCLib/inc\xmc_can.h ****  * \par<b>Description:</b><br>
1198:D:/Workspace/Development/my/DAVE/Infineon_CANopen/Libraries/XMCLib/inc\xmc_can.h ****  *  Returns Transmit Error Counter value. If the Bitstream Processor detects an error while a trans
1199:D:/Workspace/Development/my/DAVE/Infineon_CANopen/Libraries/XMCLib/inc\xmc_can.h ****  *  running, the Transmit Error Counter is incremented by 8. An increment of 1 is used when the err
1200:D:/Workspace/Development/my/DAVE/Infineon_CANopen/Libraries/XMCLib/inc\xmc_can.h ****  *  reported by an external CAN node via an Error Frame generation. It reads NECNT register.
1201:D:/Workspace/Development/my/DAVE/Infineon_CANopen/Libraries/XMCLib/inc\xmc_can.h ****  *
1202:D:/Workspace/Development/my/DAVE/Infineon_CANopen/Libraries/XMCLib/inc\xmc_can.h ****  * \par<b>Related APIs:</b><BR>
1203:D:/Workspace/Development/my/DAVE/Infineon_CANopen/Libraries/XMCLib/inc\xmc_can.h ****  * XMC_CAN_NODE_SetTransmitErrorCounter()
1204:D:/Workspace/Development/my/DAVE/Infineon_CANopen/Libraries/XMCLib/inc\xmc_can.h ****  *
1205:D:/Workspace/Development/my/DAVE/Infineon_CANopen/Libraries/XMCLib/inc\xmc_can.h ****  * \par<b>Note:</b><br>
1206:D:/Workspace/Development/my/DAVE/Infineon_CANopen/Libraries/XMCLib/inc\xmc_can.h ****  *  NECNTx can be written only if bit NCRx.CCE is set.
1207:D:/Workspace/Development/my/DAVE/Infineon_CANopen/Libraries/XMCLib/inc\xmc_can.h ****  *
1208:D:/Workspace/Development/my/DAVE/Infineon_CANopen/Libraries/XMCLib/inc\xmc_can.h ****  */
1209:D:/Workspace/Development/my/DAVE/Infineon_CANopen/Libraries/XMCLib/inc\xmc_can.h **** 
1210:D:/Workspace/Development/my/DAVE/Infineon_CANopen/Libraries/XMCLib/inc\xmc_can.h **** __STATIC_INLINE uint8_t XMC_CAN_NODE_GetTransmitErrorCounter(XMC_CAN_NODE_t *const can_node)
1211:D:/Workspace/Development/my/DAVE/Infineon_CANopen/Libraries/XMCLib/inc\xmc_can.h **** {
1212:D:/Workspace/Development/my/DAVE/Infineon_CANopen/Libraries/XMCLib/inc\xmc_can.h ****   return (uint8_t)((uint32_t)((can_node->NECNT)  & CAN_NODE_NECNT_TEC_Msk) >> CAN_NODE_NECNT_TEC_Po
1213:D:/Workspace/Development/my/DAVE/Infineon_CANopen/Libraries/XMCLib/inc\xmc_can.h **** }
1214:D:/Workspace/Development/my/DAVE/Infineon_CANopen/Libraries/XMCLib/inc\xmc_can.h **** 
1215:D:/Workspace/Development/my/DAVE/Infineon_CANopen/Libraries/XMCLib/inc\xmc_can.h **** 
1216:D:/Workspace/Development/my/DAVE/Infineon_CANopen/Libraries/XMCLib/inc\xmc_can.h **** /**
1217:D:/Workspace/Development/my/DAVE/Infineon_CANopen/Libraries/XMCLib/inc\xmc_can.h ****  *
1218:D:/Workspace/Development/my/DAVE/Infineon_CANopen/Libraries/XMCLib/inc\xmc_can.h ****  * @param can_node Pointer Pointing to CAN_NODE Structure. Defines CAN_NODE registers, Range :CAN_N
1219:D:/Workspace/Development/my/DAVE/Infineon_CANopen/Libraries/XMCLib/inc\xmc_can.h ****  *
1220:D:/Workspace/Development/my/DAVE/Infineon_CANopen/Libraries/XMCLib/inc\xmc_can.h ****  * @return uint8_t  receive error counter value.
1221:D:/Workspace/Development/my/DAVE/Infineon_CANopen/Libraries/XMCLib/inc\xmc_can.h ****  *
1222:D:/Workspace/Development/my/DAVE/Infineon_CANopen/Libraries/XMCLib/inc\xmc_can.h ****  * \par<b>Description:</b><br>
1223:D:/Workspace/Development/my/DAVE/Infineon_CANopen/Libraries/XMCLib/inc\xmc_can.h ****  *  Returns Receive Error Counter value. It reads NECNT register.
1224:D:/Workspace/Development/my/DAVE/Infineon_CANopen/Libraries/XMCLib/inc\xmc_can.h ****  *
1225:D:/Workspace/Development/my/DAVE/Infineon_CANopen/Libraries/XMCLib/inc\xmc_can.h ****  * \par<b>Related APIs:</b><BR>
1226:D:/Workspace/Development/my/DAVE/Infineon_CANopen/Libraries/XMCLib/inc\xmc_can.h ****  * XMC_CAN_NODE_SetReceiveErrorCounter()
1227:D:/Workspace/Development/my/DAVE/Infineon_CANopen/Libraries/XMCLib/inc\xmc_can.h ****  *
1228:D:/Workspace/Development/my/DAVE/Infineon_CANopen/Libraries/XMCLib/inc\xmc_can.h ****  */
1229:D:/Workspace/Development/my/DAVE/Infineon_CANopen/Libraries/XMCLib/inc\xmc_can.h **** 
1230:D:/Workspace/Development/my/DAVE/Infineon_CANopen/Libraries/XMCLib/inc\xmc_can.h **** __STATIC_INLINE uint8_t XMC_CAN_NODE_GetReceiveErrorCounter(XMC_CAN_NODE_t *const can_node)
1231:D:/Workspace/Development/my/DAVE/Infineon_CANopen/Libraries/XMCLib/inc\xmc_can.h **** {
1232:D:/Workspace/Development/my/DAVE/Infineon_CANopen/Libraries/XMCLib/inc\xmc_can.h ****   return (uint8_t)((uint32_t)((can_node->NECNT)  & CAN_NODE_NECNT_REC_Msk) >> CAN_NODE_NECNT_REC_Po
1233:D:/Workspace/Development/my/DAVE/Infineon_CANopen/Libraries/XMCLib/inc\xmc_can.h **** }
1234:D:/Workspace/Development/my/DAVE/Infineon_CANopen/Libraries/XMCLib/inc\xmc_can.h **** 
1235:D:/Workspace/Development/my/DAVE/Infineon_CANopen/Libraries/XMCLib/inc\xmc_can.h **** 
1236:D:/Workspace/Development/my/DAVE/Infineon_CANopen/Libraries/XMCLib/inc\xmc_can.h **** /**
1237:D:/Workspace/Development/my/DAVE/Infineon_CANopen/Libraries/XMCLib/inc\xmc_can.h ****  *
1238:D:/Workspace/Development/my/DAVE/Infineon_CANopen/Libraries/XMCLib/inc\xmc_can.h ****  * @param can_node Pointer Pointing to CAN_NODE Structure. Defines CAN_NODE registers, Range :CAN_N
1239:D:/Workspace/Development/my/DAVE/Infineon_CANopen/Libraries/XMCLib/inc\xmc_can.h ****  *
1240:D:/Workspace/Development/my/DAVE/Infineon_CANopen/Libraries/XMCLib/inc\xmc_can.h ****  * @return uint32_t Current status of the node.
1241:D:/Workspace/Development/my/DAVE/Infineon_CANopen/Libraries/XMCLib/inc\xmc_can.h ****  *
1242:D:/Workspace/Development/my/DAVE/Infineon_CANopen/Libraries/XMCLib/inc\xmc_can.h ****  * \par<b>Description:</b><br>
1243:D:/Workspace/Development/my/DAVE/Infineon_CANopen/Libraries/XMCLib/inc\xmc_can.h ****  * Returns errors status as well as successfully transferred CAN frames status.
1244:D:/Workspace/Development/my/DAVE/Infineon_CANopen/Libraries/XMCLib/inc\xmc_can.h ****  *
1245:D:/Workspace/Development/my/DAVE/Infineon_CANopen/Libraries/XMCLib/inc\xmc_can.h ****  * \par<b>Related APIs:</b><BR>
1246:D:/Workspace/Development/my/DAVE/Infineon_CANopen/Libraries/XMCLib/inc\xmc_can.h ****  *  XMC_CAN_NODE_ClearStatus()
1247:D:/Workspace/Development/my/DAVE/Infineon_CANopen/Libraries/XMCLib/inc\xmc_can.h ****  *
1248:D:/Workspace/Development/my/DAVE/Infineon_CANopen/Libraries/XMCLib/inc\xmc_can.h ****  */
1249:D:/Workspace/Development/my/DAVE/Infineon_CANopen/Libraries/XMCLib/inc\xmc_can.h **** 
1250:D:/Workspace/Development/my/DAVE/Infineon_CANopen/Libraries/XMCLib/inc\xmc_can.h **** __STATIC_INLINE uint32_t XMC_CAN_NODE_GetStatus(XMC_CAN_NODE_t *const can_node)
1251:D:/Workspace/Development/my/DAVE/Infineon_CANopen/Libraries/XMCLib/inc\xmc_can.h **** {
1252:D:/Workspace/Development/my/DAVE/Infineon_CANopen/Libraries/XMCLib/inc\xmc_can.h ****   return ((can_node->NSR));
1253:D:/Workspace/Development/my/DAVE/Infineon_CANopen/Libraries/XMCLib/inc\xmc_can.h **** }
1254:D:/Workspace/Development/my/DAVE/Infineon_CANopen/Libraries/XMCLib/inc\xmc_can.h **** 
1255:D:/Workspace/Development/my/DAVE/Infineon_CANopen/Libraries/XMCLib/inc\xmc_can.h **** /**
1256:D:/Workspace/Development/my/DAVE/Infineon_CANopen/Libraries/XMCLib/inc\xmc_can.h ****  *
1257:D:/Workspace/Development/my/DAVE/Infineon_CANopen/Libraries/XMCLib/inc\xmc_can.h ****  * @param can_node Pointer Pointing to CAN_NODE Structure. Defines CAN_NODE registers, Range :CAN_N
1258:D:/Workspace/Development/my/DAVE/Infineon_CANopen/Libraries/XMCLib/inc\xmc_can.h ****  * @param can_node_status Status to clear.Refer @ref XMC_CAN_NODE_STATUS_t for valid values.
1259:D:/Workspace/Development/my/DAVE/Infineon_CANopen/Libraries/XMCLib/inc\xmc_can.h ****  *
1260:D:/Workspace/Development/my/DAVE/Infineon_CANopen/Libraries/XMCLib/inc\xmc_can.h ****  * @return None
1261:D:/Workspace/Development/my/DAVE/Infineon_CANopen/Libraries/XMCLib/inc\xmc_can.h ****  *
1262:D:/Workspace/Development/my/DAVE/Infineon_CANopen/Libraries/XMCLib/inc\xmc_can.h ****  * \par<b>Description:</b><br>
1263:D:/Workspace/Development/my/DAVE/Infineon_CANopen/Libraries/XMCLib/inc\xmc_can.h ****  * Clear errors status as well as successfully transferred CAN frames status.
1264:D:/Workspace/Development/my/DAVE/Infineon_CANopen/Libraries/XMCLib/inc\xmc_can.h ****  *
1265:D:/Workspace/Development/my/DAVE/Infineon_CANopen/Libraries/XMCLib/inc\xmc_can.h ****  * \par<b>Related APIs:</b><BR>
1266:D:/Workspace/Development/my/DAVE/Infineon_CANopen/Libraries/XMCLib/inc\xmc_can.h ****  * XMC_CAN_NODE_GetStatus()
1267:D:/Workspace/Development/my/DAVE/Infineon_CANopen/Libraries/XMCLib/inc\xmc_can.h ****  *
1268:D:/Workspace/Development/my/DAVE/Infineon_CANopen/Libraries/XMCLib/inc\xmc_can.h ****  */
1269:D:/Workspace/Development/my/DAVE/Infineon_CANopen/Libraries/XMCLib/inc\xmc_can.h **** 
1270:D:/Workspace/Development/my/DAVE/Infineon_CANopen/Libraries/XMCLib/inc\xmc_can.h **** __STATIC_INLINE void XMC_CAN_NODE_ClearStatus(XMC_CAN_NODE_t *const can_node, XMC_CAN_NODE_STATUS_t
1271:D:/Workspace/Development/my/DAVE/Infineon_CANopen/Libraries/XMCLib/inc\xmc_can.h **** {
1272:D:/Workspace/Development/my/DAVE/Infineon_CANopen/Libraries/XMCLib/inc\xmc_can.h ****   can_node->NSR &= ~(uint32_t)can_node_status;
1273:D:/Workspace/Development/my/DAVE/Infineon_CANopen/Libraries/XMCLib/inc\xmc_can.h **** }
1274:D:/Workspace/Development/my/DAVE/Infineon_CANopen/Libraries/XMCLib/inc\xmc_can.h **** 
1275:D:/Workspace/Development/my/DAVE/Infineon_CANopen/Libraries/XMCLib/inc\xmc_can.h **** 
1276:D:/Workspace/Development/my/DAVE/Infineon_CANopen/Libraries/XMCLib/inc\xmc_can.h **** /**
1277:D:/Workspace/Development/my/DAVE/Infineon_CANopen/Libraries/XMCLib/inc\xmc_can.h ****  *
1278:D:/Workspace/Development/my/DAVE/Infineon_CANopen/Libraries/XMCLib/inc\xmc_can.h ****  * @param can_node Pointer Pointing to CAN_NODE Structure. Defines CAN_NODE registers, Range :CAN_N
1279:D:/Workspace/Development/my/DAVE/Infineon_CANopen/Libraries/XMCLib/inc\xmc_can.h ****  *
1280:D:/Workspace/Development/my/DAVE/Infineon_CANopen/Libraries/XMCLib/inc\xmc_can.h ****  * @return None
1281:D:/Workspace/Development/my/DAVE/Infineon_CANopen/Libraries/XMCLib/inc\xmc_can.h ****  *
1282:D:/Workspace/Development/my/DAVE/Infineon_CANopen/Libraries/XMCLib/inc\xmc_can.h ****  * \par<b>Description:</b><br>
1283:D:/Workspace/Development/my/DAVE/Infineon_CANopen/Libraries/XMCLib/inc\xmc_can.h ****  * Allow to change the configuration of the CAN node, like bit timing, CAN bus transmit/receive por
1284:D:/Workspace/Development/my/DAVE/Infineon_CANopen/Libraries/XMCLib/inc\xmc_can.h ****  * counters read. It configures NCRx.CCE bit.
1285:D:/Workspace/Development/my/DAVE/Infineon_CANopen/Libraries/XMCLib/inc\xmc_can.h ****  *
1286:D:/Workspace/Development/my/DAVE/Infineon_CANopen/Libraries/XMCLib/inc\xmc_can.h ****  * \par<b>Related APIs:</b><BR>
1287:D:/Workspace/Development/my/DAVE/Infineon_CANopen/Libraries/XMCLib/inc\xmc_can.h ****  * XMC_CAN_NODE_DisableConfigurationChange()
1288:D:/Workspace/Development/my/DAVE/Infineon_CANopen/Libraries/XMCLib/inc\xmc_can.h ****  *
1289:D:/Workspace/Development/my/DAVE/Infineon_CANopen/Libraries/XMCLib/inc\xmc_can.h ****  */
1290:D:/Workspace/Development/my/DAVE/Infineon_CANopen/Libraries/XMCLib/inc\xmc_can.h **** 
1291:D:/Workspace/Development/my/DAVE/Infineon_CANopen/Libraries/XMCLib/inc\xmc_can.h **** __STATIC_INLINE void XMC_CAN_NODE_EnableConfigurationChange(XMC_CAN_NODE_t *const can_node)
1292:D:/Workspace/Development/my/DAVE/Infineon_CANopen/Libraries/XMCLib/inc\xmc_can.h **** {
 140              	 .loc 1 1292 0
 141              	 .cfi_startproc
 142              	 
 143              	 
 144              	 
 145 0000 80B4     	 push {r7}
 146              	.LCFI12:
 147              	 .cfi_def_cfa_offset 4
 148              	 .cfi_offset 7,-4
 149 0002 83B0     	 sub sp,sp,#12
 150              	.LCFI13:
 151              	 .cfi_def_cfa_offset 16
 152 0004 00AF     	 add r7,sp,#0
 153              	.LCFI14:
 154              	 .cfi_def_cfa_register 7
 155 0006 7860     	 str r0,[r7,#4]
1293:D:/Workspace/Development/my/DAVE/Infineon_CANopen/Libraries/XMCLib/inc\xmc_can.h ****   can_node->NCR |= (uint32_t)CAN_NODE_NCR_CCE_Msk;
 156              	 .loc 1 1293 0
 157 0008 7B68     	 ldr r3,[r7,#4]
 158 000a 1B68     	 ldr r3,[r3]
 159 000c 43F04002 	 orr r2,r3,#64
 160 0010 7B68     	 ldr r3,[r7,#4]
 161 0012 1A60     	 str r2,[r3]
1294:D:/Workspace/Development/my/DAVE/Infineon_CANopen/Libraries/XMCLib/inc\xmc_can.h **** }
 162              	 .loc 1 1294 0
 163 0014 0C37     	 adds r7,r7,#12
 164              	.LCFI15:
 165              	 .cfi_def_cfa_offset 4
 166 0016 BD46     	 mov sp,r7
 167              	.LCFI16:
 168              	 .cfi_def_cfa_register 13
 169              	 
 170 0018 5DF8047B 	 ldr r7,[sp],#4
 171              	.LCFI17:
 172              	 .cfi_restore 7
 173              	 .cfi_def_cfa_offset 0
 174 001c 7047     	 bx lr
 175              	 .cfi_endproc
 176              	.LFE191:
 178 001e 00BF     	 .section .text.XMC_CAN_NODE_DisableConfigurationChange,"ax",%progbits
 179              	 .align 2
 180              	 .thumb
 181              	 .thumb_func
 183              	XMC_CAN_NODE_DisableConfigurationChange:
 184              	.LFB192:
1295:D:/Workspace/Development/my/DAVE/Infineon_CANopen/Libraries/XMCLib/inc\xmc_can.h **** 
1296:D:/Workspace/Development/my/DAVE/Infineon_CANopen/Libraries/XMCLib/inc\xmc_can.h **** 
1297:D:/Workspace/Development/my/DAVE/Infineon_CANopen/Libraries/XMCLib/inc\xmc_can.h **** /**
1298:D:/Workspace/Development/my/DAVE/Infineon_CANopen/Libraries/XMCLib/inc\xmc_can.h ****  *
1299:D:/Workspace/Development/my/DAVE/Infineon_CANopen/Libraries/XMCLib/inc\xmc_can.h ****  * @param can_node Pointer Pointing to CAN_NODE Structure. Defines CAN_NODE registers, Range :CAN_N
1300:D:/Workspace/Development/my/DAVE/Infineon_CANopen/Libraries/XMCLib/inc\xmc_can.h ****  *
1301:D:/Workspace/Development/my/DAVE/Infineon_CANopen/Libraries/XMCLib/inc\xmc_can.h ****  * @return None
1302:D:/Workspace/Development/my/DAVE/Infineon_CANopen/Libraries/XMCLib/inc\xmc_can.h ****  *
1303:D:/Workspace/Development/my/DAVE/Infineon_CANopen/Libraries/XMCLib/inc\xmc_can.h ****  * \par<b>Description:</b><br>
1304:D:/Workspace/Development/my/DAVE/Infineon_CANopen/Libraries/XMCLib/inc\xmc_can.h ****  *  Forbid to change the configuration of the CAN node. It configures NCRx.CCE bit.
1305:D:/Workspace/Development/my/DAVE/Infineon_CANopen/Libraries/XMCLib/inc\xmc_can.h ****  *
1306:D:/Workspace/Development/my/DAVE/Infineon_CANopen/Libraries/XMCLib/inc\xmc_can.h ****  * \par<b>Related API's:</b><br>
1307:D:/Workspace/Development/my/DAVE/Infineon_CANopen/Libraries/XMCLib/inc\xmc_can.h ****  * XMC_CAN_NODE_EnableConfigurationChange()
1308:D:/Workspace/Development/my/DAVE/Infineon_CANopen/Libraries/XMCLib/inc\xmc_can.h ****  *
1309:D:/Workspace/Development/my/DAVE/Infineon_CANopen/Libraries/XMCLib/inc\xmc_can.h ****  */
1310:D:/Workspace/Development/my/DAVE/Infineon_CANopen/Libraries/XMCLib/inc\xmc_can.h **** 
1311:D:/Workspace/Development/my/DAVE/Infineon_CANopen/Libraries/XMCLib/inc\xmc_can.h **** __STATIC_INLINE void XMC_CAN_NODE_DisableConfigurationChange(XMC_CAN_NODE_t *const can_node)
1312:D:/Workspace/Development/my/DAVE/Infineon_CANopen/Libraries/XMCLib/inc\xmc_can.h **** {
 185              	 .loc 1 1312 0
 186              	 .cfi_startproc
 187              	 
 188              	 
 189              	 
 190 0000 80B4     	 push {r7}
 191              	.LCFI18:
 192              	 .cfi_def_cfa_offset 4
 193              	 .cfi_offset 7,-4
 194 0002 83B0     	 sub sp,sp,#12
 195              	.LCFI19:
 196              	 .cfi_def_cfa_offset 16
 197 0004 00AF     	 add r7,sp,#0
 198              	.LCFI20:
 199              	 .cfi_def_cfa_register 7
 200 0006 7860     	 str r0,[r7,#4]
1313:D:/Workspace/Development/my/DAVE/Infineon_CANopen/Libraries/XMCLib/inc\xmc_can.h ****   can_node->NCR &= ~(uint32_t)CAN_NODE_NCR_CCE_Msk;
 201              	 .loc 1 1313 0
 202 0008 7B68     	 ldr r3,[r7,#4]
 203 000a 1B68     	 ldr r3,[r3]
 204 000c 23F04002 	 bic r2,r3,#64
 205 0010 7B68     	 ldr r3,[r7,#4]
 206 0012 1A60     	 str r2,[r3]
1314:D:/Workspace/Development/my/DAVE/Infineon_CANopen/Libraries/XMCLib/inc\xmc_can.h **** }
 207              	 .loc 1 1314 0
 208 0014 0C37     	 adds r7,r7,#12
 209              	.LCFI21:
 210              	 .cfi_def_cfa_offset 4
 211 0016 BD46     	 mov sp,r7
 212              	.LCFI22:
 213              	 .cfi_def_cfa_register 13
 214              	 
 215 0018 5DF8047B 	 ldr r7,[sp],#4
 216              	.LCFI23:
 217              	 .cfi_restore 7
 218              	 .cfi_def_cfa_offset 0
 219 001c 7047     	 bx lr
 220              	 .cfi_endproc
 221              	.LFE192:
 223 001e 00BF     	 .section .text.max,"ax",%progbits
 224              	 .align 2
 225              	 .thumb
 226              	 .thumb_func
 228              	max:
 229              	.LFB232:
 230              	 .file 2 "../Libraries/XMCLib/src/xmc_can.c"
   1:../Libraries/XMCLib/src/xmc_can.c **** /**
   2:../Libraries/XMCLib/src/xmc_can.c ****  * @file xmc_can.c
   3:../Libraries/XMCLib/src/xmc_can.c ****  * @date 2020-03-17
   4:../Libraries/XMCLib/src/xmc_can.c ****  *
   5:../Libraries/XMCLib/src/xmc_can.c ****  * @cond
   6:../Libraries/XMCLib/src/xmc_can.c ****  *****************************************************************************
   7:../Libraries/XMCLib/src/xmc_can.c ****  * XMClib v2.2.0 - XMC Peripheral Driver Library
   8:../Libraries/XMCLib/src/xmc_can.c ****  *
   9:../Libraries/XMCLib/src/xmc_can.c ****  * Copyright (c) 2015-2020, Infineon Technologies AG
  10:../Libraries/XMCLib/src/xmc_can.c ****  * All rights reserved.
  11:../Libraries/XMCLib/src/xmc_can.c ****  *
  12:../Libraries/XMCLib/src/xmc_can.c ****  * Boost Software License - Version 1.0 - August 17th, 2003
  13:../Libraries/XMCLib/src/xmc_can.c ****  *
  14:../Libraries/XMCLib/src/xmc_can.c ****  * Permission is hereby granted, free of charge, to any person or organization
  15:../Libraries/XMCLib/src/xmc_can.c ****  * obtaining a copy of the software and accompanying documentation covered by
  16:../Libraries/XMCLib/src/xmc_can.c ****  * this license (the "Software") to use, reproduce, display, distribute,
  17:../Libraries/XMCLib/src/xmc_can.c ****  * execute, and transmit the Software, and to prepare derivative works of the
  18:../Libraries/XMCLib/src/xmc_can.c ****  * Software, and to permit third-parties to whom the Software is furnished to
  19:../Libraries/XMCLib/src/xmc_can.c ****  * do so, all subject to the following:
  20:../Libraries/XMCLib/src/xmc_can.c ****  *
  21:../Libraries/XMCLib/src/xmc_can.c ****  * The copyright notices in the Software and this entire statement, including
  22:../Libraries/XMCLib/src/xmc_can.c ****  * the above license grant, this restriction and the following disclaimer,
  23:../Libraries/XMCLib/src/xmc_can.c ****  * must be included in all copies of the Software, in whole or in part, and
  24:../Libraries/XMCLib/src/xmc_can.c ****  * all derivative works of the Software, unless such copies or derivative
  25:../Libraries/XMCLib/src/xmc_can.c ****  * works are solely in the form of machine-executable object code generated by
  26:../Libraries/XMCLib/src/xmc_can.c ****  * a source language processor.
  27:../Libraries/XMCLib/src/xmc_can.c ****  *
  28:../Libraries/XMCLib/src/xmc_can.c ****  * THE SOFTWARE IS PROVIDED "AS IS", WITHOUT WARRANTY OF ANY KIND, EXPRESS OR
  29:../Libraries/XMCLib/src/xmc_can.c ****  * IMPLIED, INCLUDING BUT NOT LIMITED TO THE WARRANTIES OF MERCHANTABILITY,
  30:../Libraries/XMCLib/src/xmc_can.c ****  * FITNESS FOR A PARTICULAR PURPOSE, TITLE AND NON-INFRINGEMENT. IN NO EVENT
  31:../Libraries/XMCLib/src/xmc_can.c ****  * SHALL THE COPYRIGHT HOLDERS OR ANYONE DISTRIBUTING THE SOFTWARE BE LIABLE
  32:../Libraries/XMCLib/src/xmc_can.c ****  * FOR ANY DAMAGES OR OTHER LIABILITY, WHETHER IN CONTRACT, TORT OR OTHERWISE,
  33:../Libraries/XMCLib/src/xmc_can.c ****  * ARISING FROM, OUT OF OR IN CONNECTION WITH THE SOFTWARE OR THE USE OR OTHER
  34:../Libraries/XMCLib/src/xmc_can.c ****  * DEALINGS IN THE SOFTWARE.
  35:../Libraries/XMCLib/src/xmc_can.c ****  *
  36:../Libraries/XMCLib/src/xmc_can.c ****  * To improve the quality of the software, users are encouraged to share
  37:../Libraries/XMCLib/src/xmc_can.c ****  * modifications, enhancements or bug fixes with Infineon Technologies AG
  38:../Libraries/XMCLib/src/xmc_can.c ****  * at XMCSupport@infineon.com.
  39:../Libraries/XMCLib/src/xmc_can.c ****  *****************************************************************************
  40:../Libraries/XMCLib/src/xmc_can.c ****  *
  41:../Libraries/XMCLib/src/xmc_can.c ****  * Change History
  42:../Libraries/XMCLib/src/xmc_can.c ****  * --------------
  43:../Libraries/XMCLib/src/xmc_can.c ****  *
  44:../Libraries/XMCLib/src/xmc_can.c ****  * 2015-02-20:
  45:../Libraries/XMCLib/src/xmc_can.c ****  *     - Initial draft <br>
  46:../Libraries/XMCLib/src/xmc_can.c ****  *
  47:../Libraries/XMCLib/src/xmc_can.c ****  * 2015-05-20:
  48:../Libraries/XMCLib/src/xmc_can.c ****  *     - New API added: XMC_CAN_MO_ReceiveData() <br>
  49:../Libraries/XMCLib/src/xmc_can.c ****  *     - XMC_CAN_MO_Config() signature has changed <br>
  50:../Libraries/XMCLib/src/xmc_can.c ****  *     - Minor fix in XMC_CAN_TXFIFO_ConfigMOSlaveObject(). <br>
  51:../Libraries/XMCLib/src/xmc_can.c ****  *
  52:../Libraries/XMCLib/src/xmc_can.c ****  * 2015-06-20:
  53:../Libraries/XMCLib/src/xmc_can.c ****  *     - Removed version macros and declaration of GetDriverVersion API
  54:../Libraries/XMCLib/src/xmc_can.c ****  *
  55:../Libraries/XMCLib/src/xmc_can.c ****  * 2015-09-01:
  56:../Libraries/XMCLib/src/xmc_can.c ****  *     - Removed  fCANB clock support <br>
  57:../Libraries/XMCLib/src/xmc_can.c ****  *
  58:../Libraries/XMCLib/src/xmc_can.c ****  * 2015-09-08:
  59:../Libraries/XMCLib/src/xmc_can.c ****  *     - Fixed bug in XMC_CAN_Init() <br>
  60:../Libraries/XMCLib/src/xmc_can.c ****  *
  61:../Libraries/XMCLib/src/xmc_can.c ****  * 2016-06-07:
  62:../Libraries/XMCLib/src/xmc_can.c ****  *     - Changed XMC_CAN_AllocateMOtoNodeList to wait for ready status of list controller
  63:../Libraries/XMCLib/src/xmc_can.c ****  *
  64:../Libraries/XMCLib/src/xmc_can.c ****  * 2016-06-20:
  65:../Libraries/XMCLib/src/xmc_can.c ****  *     - Fixed bug in XMC_CAN_MO_Config() <br>
  66:../Libraries/XMCLib/src/xmc_can.c ****  *
  67:../Libraries/XMCLib/src/xmc_can.c ****  * 2017-11-09:
  68:../Libraries/XMCLib/src/xmc_can.c ****  *     - Added XMC_CAN_InitEx() and XMC_CAN_NODE_NominalBitTimeConfigureEx()
  69:../Libraries/XMCLib/src/xmc_can.c ****  *     - Make XMC_CAN_GetBaudrateClockSource(), XMC_CAN_SetBaudrateClockSource() and XMC_CAN_GetBau
  70:../Libraries/XMCLib/src/xmc_can.c ****  *     - Changed refactoring XMC_CAN_MO_Config() to configure MOCTR depending on transmit or receiv
  71:../Libraries/XMCLib/src/xmc_can.c ****  *
  72:../Libraries/XMCLib/src/xmc_can.c ****  * 2018-06-21:
  73:../Libraries/XMCLib/src/xmc_can.c ****  *     - Fixed XMC_CAN_NODE_NominalBitTimeConfigureEx()
  74:../Libraries/XMCLib/src/xmc_can.c ****  *
  75:../Libraries/XMCLib/src/xmc_can.c ****  * 2018-11-12:
  76:../Libraries/XMCLib/src/xmc_can.c ****  *     - Fixed assertion at XMC_CAN_InitEx()
  77:../Libraries/XMCLib/src/xmc_can.c ****  *
  78:../Libraries/XMCLib/src/xmc_can.c ****  * 2019-05-07:
  79:../Libraries/XMCLib/src/xmc_can.c ****  *     - Fixed compilation warnings
  80:../Libraries/XMCLib/src/xmc_can.c ****  *
  81:../Libraries/XMCLib/src/xmc_can.c ****  * 2019-06-26:
  82:../Libraries/XMCLib/src/xmc_can.c ****  *     - Fixed XMC_CAN_NODE_NominalBitTimeConfigureEx() non returning, decrementing ntq before cont
  83:../Libraries/XMCLib/src/xmc_can.c ****  *     - Added XMC_CAN_GetClockFrequency()
  84:../Libraries/XMCLib/src/xmc_can.c ****  *     - Fixed XMC_CAN_InitEx() so that XMC_CAN_SetBaudrateClockSource() is invoked before XMC_CAN_
  85:../Libraries/XMCLib/src/xmc_can.c ****  *
  86:../Libraries/XMCLib/src/xmc_can.c ****  * 2020-03-17:
  87:../Libraries/XMCLib/src/xmc_can.c ****  *     - Fixed XMC_CAN_MO_ReceiveData() according to description in the reference manual
  88:../Libraries/XMCLib/src/xmc_can.c ****  *     - Fixed XMC_CAN_MO_SetAcceptanceMask(), checking for matching message IDE
  89:../Libraries/XMCLib/src/xmc_can.c ****  *
  90:../Libraries/XMCLib/src/xmc_can.c ****  * @endcond
  91:../Libraries/XMCLib/src/xmc_can.c ****  *
  92:../Libraries/XMCLib/src/xmc_can.c ****  */
  93:../Libraries/XMCLib/src/xmc_can.c **** 
  94:../Libraries/XMCLib/src/xmc_can.c **** /*******************************************************************************
  95:../Libraries/XMCLib/src/xmc_can.c ****  * HEADER FILES
  96:../Libraries/XMCLib/src/xmc_can.c ****  *******************************************************************************/
  97:../Libraries/XMCLib/src/xmc_can.c **** #include "xmc_can.h"
  98:../Libraries/XMCLib/src/xmc_can.c **** 
  99:../Libraries/XMCLib/src/xmc_can.c **** #if defined(CAN)
 100:../Libraries/XMCLib/src/xmc_can.c **** #include "xmc_scu.h"
 101:../Libraries/XMCLib/src/xmc_can.c **** 
 102:../Libraries/XMCLib/src/xmc_can.c **** __STATIC_INLINE uint32_t max(uint32_t a, uint32_t b)
 103:../Libraries/XMCLib/src/xmc_can.c **** {
 231              	 .loc 2 103 0
 232              	 .cfi_startproc
 233              	 
 234              	 
 235              	 
 236 0000 80B4     	 push {r7}
 237              	.LCFI24:
 238              	 .cfi_def_cfa_offset 4
 239              	 .cfi_offset 7,-4
 240 0002 83B0     	 sub sp,sp,#12
 241              	.LCFI25:
 242              	 .cfi_def_cfa_offset 16
 243 0004 00AF     	 add r7,sp,#0
 244              	.LCFI26:
 245              	 .cfi_def_cfa_register 7
 246 0006 7860     	 str r0,[r7,#4]
 247 0008 3960     	 str r1,[r7]
 104:../Libraries/XMCLib/src/xmc_can.c ****   return (a > b) ? a : b;
 248              	 .loc 2 104 0
 249 000a 3A68     	 ldr r2,[r7]
 250 000c 7B68     	 ldr r3,[r7,#4]
 251 000e 9342     	 cmp r3,r2
 252 0010 38BF     	 it cc
 253 0012 1346     	 movcc r3,r2
 105:../Libraries/XMCLib/src/xmc_can.c **** }
 254              	 .loc 2 105 0
 255 0014 1846     	 mov r0,r3
 256 0016 0C37     	 adds r7,r7,#12
 257              	.LCFI27:
 258              	 .cfi_def_cfa_offset 4
 259 0018 BD46     	 mov sp,r7
 260              	.LCFI28:
 261              	 .cfi_def_cfa_register 13
 262              	 
 263 001a 5DF8047B 	 ldr r7,[sp],#4
 264              	.LCFI29:
 265              	 .cfi_restore 7
 266              	 .cfi_def_cfa_offset 0
 267 001e 7047     	 bx lr
 268              	 .cfi_endproc
 269              	.LFE232:
 271              	 .section .text.min,"ax",%progbits
 272              	 .align 2
 273              	 .thumb
 274              	 .thumb_func
 276              	min:
 277              	.LFB233:
 106:../Libraries/XMCLib/src/xmc_can.c **** 
 107:../Libraries/XMCLib/src/xmc_can.c **** __STATIC_INLINE uint32_t min(uint32_t a, uint32_t b)
 108:../Libraries/XMCLib/src/xmc_can.c **** {
 278              	 .loc 2 108 0
 279              	 .cfi_startproc
 280              	 
 281              	 
 282              	 
 283 0000 80B4     	 push {r7}
 284              	.LCFI30:
 285              	 .cfi_def_cfa_offset 4
 286              	 .cfi_offset 7,-4
 287 0002 83B0     	 sub sp,sp,#12
 288              	.LCFI31:
 289              	 .cfi_def_cfa_offset 16
 290 0004 00AF     	 add r7,sp,#0
 291              	.LCFI32:
 292              	 .cfi_def_cfa_register 7
 293 0006 7860     	 str r0,[r7,#4]
 294 0008 3960     	 str r1,[r7]
 109:../Libraries/XMCLib/src/xmc_can.c ****   return (a < b) ? a : b;
 295              	 .loc 2 109 0
 296 000a 3A68     	 ldr r2,[r7]
 297 000c 7B68     	 ldr r3,[r7,#4]
 298 000e 9342     	 cmp r3,r2
 299 0010 28BF     	 it cs
 300 0012 1346     	 movcs r3,r2
 110:../Libraries/XMCLib/src/xmc_can.c **** }
 301              	 .loc 2 110 0
 302 0014 1846     	 mov r0,r3
 303 0016 0C37     	 adds r7,r7,#12
 304              	.LCFI33:
 305              	 .cfi_def_cfa_offset 4
 306 0018 BD46     	 mov sp,r7
 307              	.LCFI34:
 308              	 .cfi_def_cfa_register 13
 309              	 
 310 001a 5DF8047B 	 ldr r7,[sp],#4
 311              	.LCFI35:
 312              	 .cfi_restore 7
 313              	 .cfi_def_cfa_offset 0
 314 001e 7047     	 bx lr
 315              	 .cfi_endproc
 316              	.LFE233:
 318              	 .section .text.XMC_CAN_NODE_NominalBitTimeConfigureEx,"ax",%progbits
 319              	 .align 2
 320              	 .global XMC_CAN_NODE_NominalBitTimeConfigureEx
 321              	 .thumb
 322              	 .thumb_func
 324              	XMC_CAN_NODE_NominalBitTimeConfigureEx:
 325              	.LFB234:
 111:../Libraries/XMCLib/src/xmc_can.c **** 
 112:../Libraries/XMCLib/src/xmc_can.c **** /*******************************************************************************
 113:../Libraries/XMCLib/src/xmc_can.c ****  * API IMPLEMENTATION
 114:../Libraries/XMCLib/src/xmc_can.c ****  *******************************************************************************/
 115:../Libraries/XMCLib/src/xmc_can.c **** 
 116:../Libraries/XMCLib/src/xmc_can.c **** /* The max prescaler is the equal to max BRP setting (64) multiply by 8 (DIV8) */
 117:../Libraries/XMCLib/src/xmc_can.c **** #define XMC_CAN_NODE_MAX_PRESCALER 512
 118:../Libraries/XMCLib/src/xmc_can.c **** 
 119:../Libraries/XMCLib/src/xmc_can.c **** /* maximum TSEG1 is 16 and maximum TSEG2 is 8, plus one fix sync tq */
 120:../Libraries/XMCLib/src/xmc_can.c **** #define XMC_CAN_NODE_MAX_NTQ 25
 121:../Libraries/XMCLib/src/xmc_can.c **** #define XMC_CAN_NODE_MIN_NTQ 8
 122:../Libraries/XMCLib/src/xmc_can.c **** 
 123:../Libraries/XMCLib/src/xmc_can.c **** #define XMC_CAN_NODE_MIN_TSEG1 3
 124:../Libraries/XMCLib/src/xmc_can.c **** #define XMC_CAN_NODE_MIN_TSEG2 2
 125:../Libraries/XMCLib/src/xmc_can.c **** 
 126:../Libraries/XMCLib/src/xmc_can.c **** #define XMC_CAN_NODE_MAX_TSEG1 15
 127:../Libraries/XMCLib/src/xmc_can.c **** #define XMC_CAN_NODE_MAX_TSEG2 7
 128:../Libraries/XMCLib/src/xmc_can.c **** 
 129:../Libraries/XMCLib/src/xmc_can.c **** 
 130:../Libraries/XMCLib/src/xmc_can.c **** int32_t XMC_CAN_NODE_NominalBitTimeConfigureEx(XMC_CAN_NODE_t *const can_node,
 131:../Libraries/XMCLib/src/xmc_can.c ****     const XMC_CAN_NODE_NOMINAL_BIT_TIME_CONFIG_t *const bit_time_config)
 132:../Libraries/XMCLib/src/xmc_can.c **** {
 326              	 .loc 2 132 0
 327              	 .cfi_startproc
 328              	 
 329              	 
 330 0000 80B5     	 push {r7,lr}
 331              	.LCFI36:
 332              	 .cfi_def_cfa_offset 8
 333              	 .cfi_offset 7,-8
 334              	 .cfi_offset 14,-4
 335 0002 88B0     	 sub sp,sp,#32
 336              	.LCFI37:
 337              	 .cfi_def_cfa_offset 40
 338 0004 00AF     	 add r7,sp,#0
 339              	.LCFI38:
 340              	 .cfi_def_cfa_register 7
 341 0006 7860     	 str r0,[r7,#4]
 342 0008 3960     	 str r1,[r7]
 133:../Libraries/XMCLib/src/xmc_can.c ****   /* Check that the CAN frequency is a multiple of the required baudrate */
 134:../Libraries/XMCLib/src/xmc_can.c ****   if ((bit_time_config->can_frequency % bit_time_config->baudrate) == 0)
 343              	 .loc 2 134 0
 344 000a 3B68     	 ldr r3,[r7]
 345 000c 1B68     	 ldr r3,[r3]
 346 000e 3A68     	 ldr r2,[r7]
 347 0010 5268     	 ldr r2,[r2,#4]
 348 0012 B3FBF2F1 	 udiv r1,r3,r2
 349 0016 02FB01F2 	 mul r2,r2,r1
 350 001a 9B1A     	 subs r3,r3,r2
 351 001c 002B     	 cmp r3,#0
 352 001e 40F09080 	 bne .L11
 353              	.LBB2:
 135:../Libraries/XMCLib/src/xmc_can.c ****   {
 136:../Libraries/XMCLib/src/xmc_can.c ****     uint32_t prescaler = 0;
 354              	 .loc 2 136 0
 355 0022 0023     	 movs r3,#0
 356 0024 FB61     	 str r3,[r7,#28]
 137:../Libraries/XMCLib/src/xmc_can.c ****     uint32_t div8 = 0;
 357              	 .loc 2 137 0
 358 0026 0023     	 movs r3,#0
 359 0028 BB61     	 str r3,[r7,#24]
 138:../Libraries/XMCLib/src/xmc_can.c **** 
 139:../Libraries/XMCLib/src/xmc_can.c ****     /* Calculate the factor between can frequency and required baudrate, this is equal to (prescale
 140:../Libraries/XMCLib/src/xmc_can.c ****     uint32_t fcan_div = bit_time_config->can_frequency / bit_time_config->baudrate;
 360              	 .loc 2 140 0
 361 002a 3B68     	 ldr r3,[r7]
 362 002c 1A68     	 ldr r2,[r3]
 363 002e 3B68     	 ldr r3,[r7]
 364 0030 5B68     	 ldr r3,[r3,#4]
 365 0032 B2FBF3F3 	 udiv r3,r2,r3
 366 0036 BB60     	 str r3,[r7,#8]
 141:../Libraries/XMCLib/src/xmc_can.c **** 
 142:../Libraries/XMCLib/src/xmc_can.c ****     /* start with highest ntq, i.e as much as possible time quanta should be used to construct a bi
 143:../Libraries/XMCLib/src/xmc_can.c ****     uint32_t ntq = XMC_CAN_NODE_MAX_NTQ;
 367              	 .loc 2 143 0
 368 0038 1923     	 movs r3,#25
 369 003a 7B61     	 str r3,[r7,#20]
 144:../Libraries/XMCLib/src/xmc_can.c ****     uint32_t tseg1 = 0;
 370              	 .loc 2 144 0
 371 003c 0023     	 movs r3,#0
 372 003e 3B61     	 str r3,[r7,#16]
 145:../Libraries/XMCLib/src/xmc_can.c ****     uint32_t tseg2 = 0;
 373              	 .loc 2 145 0
 374 0040 0023     	 movs r3,#0
 375 0042 FB60     	 str r3,[r7,#12]
 146:../Libraries/XMCLib/src/xmc_can.c ****     while (ntq >= XMC_CAN_NODE_MIN_NTQ)
 376              	 .loc 2 146 0
 377 0044 4BE0     	 b .L12
 378              	.L17:
 147:../Libraries/XMCLib/src/xmc_can.c ****     {
 148:../Libraries/XMCLib/src/xmc_can.c ****       /* consider this ntq, only if fcan_div is multiple of ntq */
 149:../Libraries/XMCLib/src/xmc_can.c ****       if ((fcan_div % ntq) == 0)
 379              	 .loc 2 149 0
 380 0046 BB68     	 ldr r3,[r7,#8]
 381 0048 7A69     	 ldr r2,[r7,#20]
 382 004a B3FBF2F2 	 udiv r2,r3,r2
 383 004e 7969     	 ldr r1,[r7,#20]
 384 0050 01FB02F2 	 mul r2,r1,r2
 385 0054 9B1A     	 subs r3,r3,r2
 386 0056 002B     	 cmp r3,#0
 387 0058 3ED1     	 bne .L13
 150:../Libraries/XMCLib/src/xmc_can.c ****       {
 151:../Libraries/XMCLib/src/xmc_can.c ****         div8 = 0;
 388              	 .loc 2 151 0
 389 005a 0023     	 movs r3,#0
 390 005c BB61     	 str r3,[r7,#24]
 152:../Libraries/XMCLib/src/xmc_can.c ****         prescaler = fcan_div / ntq;
 391              	 .loc 2 152 0
 392 005e BA68     	 ldr r2,[r7,#8]
 393 0060 7B69     	 ldr r3,[r7,#20]
 394 0062 B2FBF3F3 	 udiv r3,r2,r3
 395 0066 FB61     	 str r3,[r7,#28]
 153:../Libraries/XMCLib/src/xmc_can.c ****         if ((prescaler > 0) && (prescaler <= XMC_CAN_NODE_MAX_PRESCALER))
 396              	 .loc 2 153 0
 397 0068 FB69     	 ldr r3,[r7,#28]
 398 006a 002B     	 cmp r3,#0
 399 006c 34D0     	 beq .L13
 400              	 .loc 2 153 0 is_stmt 0 discriminator 1
 401 006e FB69     	 ldr r3,[r7,#28]
 402 0070 B3F5007F 	 cmp r3,#512
 403 0074 30D8     	 bhi .L13
 154:../Libraries/XMCLib/src/xmc_can.c ****         {
 155:../Libraries/XMCLib/src/xmc_can.c ****           if (prescaler >= 64)
 404              	 .loc 2 155 0 is_stmt 1
 405 0076 FB69     	 ldr r3,[r7,#28]
 406 0078 3F2B     	 cmp r3,#63
 407 007a 0AD9     	 bls .L14
 156:../Libraries/XMCLib/src/xmc_can.c ****           {
 157:../Libraries/XMCLib/src/xmc_can.c ****             /* consider prescaler >=64, if it is integer divisible by 8*/
 158:../Libraries/XMCLib/src/xmc_can.c ****             if ((prescaler & 0x7U) != 0)
 408              	 .loc 2 158 0
 409 007c FB69     	 ldr r3,[r7,#28]
 410 007e 03F00703 	 and r3,r3,#7
 411 0082 002B     	 cmp r3,#0
 412 0084 03D0     	 beq .L15
 159:../Libraries/XMCLib/src/xmc_can.c ****             {
 160:../Libraries/XMCLib/src/xmc_can.c ****               --ntq;
 413              	 .loc 2 160 0
 414 0086 7B69     	 ldr r3,[r7,#20]
 415 0088 013B     	 subs r3,r3,#1
 416 008a 7B61     	 str r3,[r7,#20]
 161:../Libraries/XMCLib/src/xmc_can.c ****               continue;
 417              	 .loc 2 161 0
 418 008c 27E0     	 b .L12
 419              	.L15:
 162:../Libraries/XMCLib/src/xmc_can.c ****             }
 163:../Libraries/XMCLib/src/xmc_can.c ****             else
 164:../Libraries/XMCLib/src/xmc_can.c ****             {
 165:../Libraries/XMCLib/src/xmc_can.c ****               div8 = 1;
 420              	 .loc 2 165 0
 421 008e 0123     	 movs r3,#1
 422 0090 BB61     	 str r3,[r7,#24]
 423              	.L14:
 166:../Libraries/XMCLib/src/xmc_can.c ****             }
 167:../Libraries/XMCLib/src/xmc_can.c ****           }
 168:../Libraries/XMCLib/src/xmc_can.c **** 
 169:../Libraries/XMCLib/src/xmc_can.c ****           tseg1 = ((ntq - 1) * bit_time_config->sample_point) / 10000;
 424              	 .loc 2 169 0
 425 0092 7B69     	 ldr r3,[r7,#20]
 426 0094 013B     	 subs r3,r3,#1
 427 0096 3A68     	 ldr r2,[r7]
 428 0098 1289     	 ldrh r2,[r2,#8]
 429 009a 02FB03F3 	 mul r3,r2,r3
 430 009e 2B4A     	 ldr r2,.L19
 431 00a0 A2FB0323 	 umull r2,r3,r2,r3
 432 00a4 5B0B     	 lsrs r3,r3,#13
 433 00a6 3B61     	 str r3,[r7,#16]
 170:../Libraries/XMCLib/src/xmc_can.c ****           tseg2 = ntq - tseg1 - 1;
 434              	 .loc 2 170 0
 435 00a8 7A69     	 ldr r2,[r7,#20]
 436 00aa 3B69     	 ldr r3,[r7,#16]
 437 00ac D31A     	 subs r3,r2,r3
 438 00ae 013B     	 subs r3,r3,#1
 439 00b0 FB60     	 str r3,[r7,#12]
 171:../Libraries/XMCLib/src/xmc_can.c **** 
 172:../Libraries/XMCLib/src/xmc_can.c ****           if ((XMC_CAN_NODE_MIN_TSEG1 <= tseg1) && (tseg1 <= XMC_CAN_NODE_MAX_TSEG1) &&
 440              	 .loc 2 172 0
 441 00b2 3B69     	 ldr r3,[r7,#16]
 442 00b4 022B     	 cmp r3,#2
 443 00b6 0FD9     	 bls .L13
 444              	 .loc 2 172 0 is_stmt 0 discriminator 1
 445 00b8 3B69     	 ldr r3,[r7,#16]
 446 00ba 0F2B     	 cmp r3,#15
 447 00bc 0CD8     	 bhi .L13
 448              	 .loc 2 172 0 discriminator 2
 449 00be FB68     	 ldr r3,[r7,#12]
 450 00c0 012B     	 cmp r3,#1
 451 00c2 09D9     	 bls .L13
 173:../Libraries/XMCLib/src/xmc_can.c ****               (XMC_CAN_NODE_MIN_TSEG2 <= tseg2) && (tseg2 < XMC_CAN_NODE_MAX_TSEG2) && (tseg2 >= bi
 452              	 .loc 2 173 0 is_stmt 1
 453 00c4 FB68     	 ldr r3,[r7,#12]
 454 00c6 062B     	 cmp r3,#6
 455 00c8 06D8     	 bhi .L13
 456              	 .loc 2 173 0 is_stmt 0 discriminator 1
 457 00ca 3B68     	 ldr r3,[r7]
 458 00cc 5B89     	 ldrh r3,[r3,#10]
 459 00ce 1A46     	 mov r2,r3
 460 00d0 FB68     	 ldr r3,[r7,#12]
 461 00d2 9A42     	 cmp r2,r3
 462 00d4 00D8     	 bhi .L13
 174:../Libraries/XMCLib/src/xmc_can.c ****           {
 175:../Libraries/XMCLib/src/xmc_can.c ****             break;
 463              	 .loc 2 175 0 is_stmt 1
 464 00d6 05E0     	 b .L16
 465              	.L13:
 176:../Libraries/XMCLib/src/xmc_can.c ****           }
 177:../Libraries/XMCLib/src/xmc_can.c **** 
 178:../Libraries/XMCLib/src/xmc_can.c **** 
 179:../Libraries/XMCLib/src/xmc_can.c ****         }
 180:../Libraries/XMCLib/src/xmc_can.c ****       }
 181:../Libraries/XMCLib/src/xmc_can.c ****       --ntq;
 466              	 .loc 2 181 0
 467 00d8 7B69     	 ldr r3,[r7,#20]
 468 00da 013B     	 subs r3,r3,#1
 469 00dc 7B61     	 str r3,[r7,#20]
 470              	.L12:
 146:../Libraries/XMCLib/src/xmc_can.c ****     {
 471              	 .loc 2 146 0
 472 00de 7B69     	 ldr r3,[r7,#20]
 473 00e0 072B     	 cmp r3,#7
 474 00e2 B0D8     	 bhi .L17
 475              	.L16:
 182:../Libraries/XMCLib/src/xmc_can.c ****     }
 183:../Libraries/XMCLib/src/xmc_can.c **** 
 184:../Libraries/XMCLib/src/xmc_can.c ****     if (ntq >= XMC_CAN_NODE_MIN_NTQ)
 476              	 .loc 2 184 0
 477 00e4 7B69     	 ldr r3,[r7,#20]
 478 00e6 072B     	 cmp r3,#7
 479 00e8 2BD9     	 bls .L11
 185:../Libraries/XMCLib/src/xmc_can.c ****     {
 186:../Libraries/XMCLib/src/xmc_can.c **** 
 187:../Libraries/XMCLib/src/xmc_can.c ****       XMC_ASSERT("XMC_CAN_NODE_NominalBitTimeConfigureEx: prescaler", (prescaler != 0));
 188:../Libraries/XMCLib/src/xmc_can.c ****       XMC_ASSERT("XMC_CAN_NODE_NominalBitTimeConfigureEx: tseg1", (tseg1 != 0));
 189:../Libraries/XMCLib/src/xmc_can.c ****       XMC_ASSERT("XMC_CAN_NODE_NominalBitTimeConfigureEx: tseg2", (tseg2 != 0));
 190:../Libraries/XMCLib/src/xmc_can.c **** 
 191:../Libraries/XMCLib/src/xmc_can.c ****       XMC_CAN_NODE_EnableConfigurationChange(can_node);
 480              	 .loc 2 191 0
 481 00ea 7868     	 ldr r0,[r7,#4]
 482 00ec FFF7FEFF 	 bl XMC_CAN_NODE_EnableConfigurationChange
 192:../Libraries/XMCLib/src/xmc_can.c **** 
 193:../Libraries/XMCLib/src/xmc_can.c ****       /* Configure bit timing register */
 194:../Libraries/XMCLib/src/xmc_can.c ****       can_node->NBTR = (((tseg2 - 1u) << CAN_NODE_NBTR_TSEG2_Pos) & (uint32_t)CAN_NODE_NBTR_TSEG2_M
 483              	 .loc 2 194 0
 484 00f0 FB68     	 ldr r3,[r7,#12]
 485 00f2 013B     	 subs r3,r3,#1
 486 00f4 1B03     	 lsls r3,r3,#12
 487 00f6 03F4E042 	 and r2,r3,#28672
 195:../Libraries/XMCLib/src/xmc_can.c ****                        (((bit_time_config->sjw - 1U) << CAN_NODE_NBTR_SJW_Pos) & (uint32_t)CAN_NODE
 488              	 .loc 2 195 0
 489 00fa 3B68     	 ldr r3,[r7]
 490 00fc 5B89     	 ldrh r3,[r3,#10]
 491 00fe 013B     	 subs r3,r3,#1
 492 0100 9B01     	 lsls r3,r3,#6
 493 0102 DBB2     	 uxtb r3,r3
 194:../Libraries/XMCLib/src/xmc_can.c ****                        (((bit_time_config->sjw - 1U) << CAN_NODE_NBTR_SJW_Pos) & (uint32_t)CAN_NODE
 494              	 .loc 2 194 0
 495 0104 1A43     	 orrs r2,r2,r3
 196:../Libraries/XMCLib/src/xmc_can.c ****                        (((tseg1 - 1U) << CAN_NODE_NBTR_TSEG1_Pos) & (uint32_t)CAN_NODE_NBTR_TSEG1_M
 496              	 .loc 2 196 0
 497 0106 3B69     	 ldr r3,[r7,#16]
 498 0108 013B     	 subs r3,r3,#1
 499 010a 1B02     	 lsls r3,r3,#8
 500 010c 03F47063 	 and r3,r3,#3840
 195:../Libraries/XMCLib/src/xmc_can.c ****                        (((bit_time_config->sjw - 1U) << CAN_NODE_NBTR_SJW_Pos) & (uint32_t)CAN_NODE
 501              	 .loc 2 195 0
 502 0110 42EA0301 	 orr r1,r2,r3
 197:../Libraries/XMCLib/src/xmc_can.c ****                        ((((prescaler >> (3 * div8)) - 1U) << CAN_NODE_NBTR_BRP_Pos) & (uint32_t)CAN
 503              	 .loc 2 197 0
 504 0114 BA69     	 ldr r2,[r7,#24]
 505 0116 1346     	 mov r3,r2
 506 0118 5B00     	 lsls r3,r3,#1
 507 011a 1344     	 add r3,r3,r2
 508 011c 1A46     	 mov r2,r3
 509 011e FB69     	 ldr r3,[r7,#28]
 510 0120 D340     	 lsrs r3,r3,r2
 511 0122 013B     	 subs r3,r3,#1
 512 0124 03F03F03 	 and r3,r3,#63
 196:../Libraries/XMCLib/src/xmc_can.c ****                        (((tseg1 - 1U) << CAN_NODE_NBTR_TSEG1_Pos) & (uint32_t)CAN_NODE_NBTR_TSEG1_M
 513              	 .loc 2 196 0
 514 0128 41EA0302 	 orr r2,r1,r3
 198:../Libraries/XMCLib/src/xmc_can.c ****                        ((div8 << CAN_NODE_NBTR_DIV8_Pos) & (uint32_t)CAN_NODE_NBTR_DIV8_Msk);
 515              	 .loc 2 198 0
 516 012c BB69     	 ldr r3,[r7,#24]
 517 012e DB03     	 lsls r3,r3,#15
 518 0130 9BB2     	 uxth r3,r3
 197:../Libraries/XMCLib/src/xmc_can.c ****                        ((((prescaler >> (3 * div8)) - 1U) << CAN_NODE_NBTR_BRP_Pos) & (uint32_t)CAN
 519              	 .loc 2 197 0
 520 0132 1A43     	 orrs r2,r2,r3
 194:../Libraries/XMCLib/src/xmc_can.c ****                        (((bit_time_config->sjw - 1U) << CAN_NODE_NBTR_SJW_Pos) & (uint32_t)CAN_NODE
 521              	 .loc 2 194 0
 522 0134 7B68     	 ldr r3,[r7,#4]
 523 0136 1A61     	 str r2,[r3,#16]
 199:../Libraries/XMCLib/src/xmc_can.c **** 
 200:../Libraries/XMCLib/src/xmc_can.c ****       XMC_CAN_NODE_DisableConfigurationChange(can_node);
 524              	 .loc 2 200 0
 525 0138 7868     	 ldr r0,[r7,#4]
 526 013a FFF7FEFF 	 bl XMC_CAN_NODE_DisableConfigurationChange
 201:../Libraries/XMCLib/src/xmc_can.c **** 
 202:../Libraries/XMCLib/src/xmc_can.c ****       return XMC_CAN_STATUS_SUCCESS;
 527              	 .loc 2 202 0
 528 013e 0023     	 movs r3,#0
 529 0140 00E0     	 b .L18
 530              	.L11:
 531              	.LBE2:
 203:../Libraries/XMCLib/src/xmc_can.c ****     }
 204:../Libraries/XMCLib/src/xmc_can.c ****   }
 205:../Libraries/XMCLib/src/xmc_can.c **** 
 206:../Libraries/XMCLib/src/xmc_can.c ****   return XMC_CAN_STATUS_ERROR;
 532              	 .loc 2 206 0
 533 0142 0123     	 movs r3,#1
 534              	.L18:
 207:../Libraries/XMCLib/src/xmc_can.c **** }
 535              	 .loc 2 207 0
 536 0144 1846     	 mov r0,r3
 537 0146 2037     	 adds r7,r7,#32
 538              	.LCFI39:
 539              	 .cfi_def_cfa_offset 8
 540 0148 BD46     	 mov sp,r7
 541              	.LCFI40:
 542              	 .cfi_def_cfa_register 13
 543              	 
 544 014a 80BD     	 pop {r7,pc}
 545              	.L20:
 546              	 .align 2
 547              	.L19:
 548 014c 5917B7D1 	 .word -776530087
 549              	 .cfi_endproc
 550              	.LFE234:
 552              	 .section .text.XMC_CAN_NODE_NominalBitTimeConfigure,"ax",%progbits
 553              	 .align 2
 554              	 .global XMC_CAN_NODE_NominalBitTimeConfigure
 555              	 .thumb
 556              	 .thumb_func
 558              	XMC_CAN_NODE_NominalBitTimeConfigure:
 559              	.LFB235:
 208:../Libraries/XMCLib/src/xmc_can.c **** 
 209:../Libraries/XMCLib/src/xmc_can.c **** /* Baudrate Configuration */
 210:../Libraries/XMCLib/src/xmc_can.c **** void XMC_CAN_NODE_NominalBitTimeConfigure (XMC_CAN_NODE_t *const can_node,
 211:../Libraries/XMCLib/src/xmc_can.c ****     const XMC_CAN_NODE_NOMINAL_BIT_TIME_CONFIG_t *const can_bit_time)
 212:../Libraries/XMCLib/src/xmc_can.c **** {
 560              	 .loc 2 212 0
 561              	 .cfi_startproc
 562              	 
 563              	 
 564 0000 80B5     	 push {r7,lr}
 565              	.LCFI41:
 566              	 .cfi_def_cfa_offset 8
 567              	 .cfi_offset 7,-8
 568              	 .cfi_offset 14,-4
 569 0002 90B0     	 sub sp,sp,#64
 570              	.LCFI42:
 571              	 .cfi_def_cfa_offset 72
 572 0004 00AF     	 add r7,sp,#0
 573              	.LCFI43:
 574              	 .cfi_def_cfa_register 7
 575 0006 7860     	 str r0,[r7,#4]
 576 0008 3960     	 str r1,[r7]
 213:../Libraries/XMCLib/src/xmc_can.c ****   uint32_t temp_brp = 12U ;
 577              	 .loc 2 213 0
 578 000a 0C23     	 movs r3,#12
 579 000c FB63     	 str r3,[r7,#60]
 214:../Libraries/XMCLib/src/xmc_can.c ****   uint32_t temp_tseg1 = 12U;
 580              	 .loc 2 214 0
 581 000e 0C23     	 movs r3,#12
 582 0010 BB63     	 str r3,[r7,#56]
 215:../Libraries/XMCLib/src/xmc_can.c ****   uint32_t best_brp = 0U;
 583              	 .loc 2 215 0
 584 0012 0023     	 movs r3,#0
 585 0014 7B63     	 str r3,[r7,#52]
 216:../Libraries/XMCLib/src/xmc_can.c ****   uint32_t best_tseg1 = 1U;
 586              	 .loc 2 216 0
 587 0016 0123     	 movs r3,#1
 588 0018 3B63     	 str r3,[r7,#48]
 217:../Libraries/XMCLib/src/xmc_can.c ****   uint32_t best_tseg2 = 0U;
 589              	 .loc 2 217 0
 590 001a 0023     	 movs r3,#0
 591 001c 7B61     	 str r3,[r7,#20]
 218:../Libraries/XMCLib/src/xmc_can.c ****   uint32_t best_tbaud = 0U;
 592              	 .loc 2 218 0
 593 001e 0023     	 movs r3,#0
 594 0020 FB62     	 str r3,[r7,#44]
 219:../Libraries/XMCLib/src/xmc_can.c ****   uint32_t best_error = 10000U;
 595              	 .loc 2 219 0
 596 0022 42F21073 	 movw r3,#10000
 597 0026 BB62     	 str r3,[r7,#40]
 220:../Libraries/XMCLib/src/xmc_can.c **** 
 221:../Libraries/XMCLib/src/xmc_can.c ****   XMC_ASSERT("XMC_CAN_NODE_NOMINAL_BIT_TIME_Configure: rate not supported", (can_bit_time->baudrate
 222:../Libraries/XMCLib/src/xmc_can.c ****              (can_bit_time->baudrate >= 100000U));
 223:../Libraries/XMCLib/src/xmc_can.c ****   XMC_ASSERT("XMC_CAN_NODE_NOMINAL_BIT_TIME_Configure: fCAN not supported",
 224:../Libraries/XMCLib/src/xmc_can.c ****              can_bit_time->can_frequency <= 120000000U);
 225:../Libraries/XMCLib/src/xmc_can.c ****   XMC_ASSERT("XMC_CAN_NODE_NOMINAL_BIT_TIME_Configure: fCAN not supported",
 226:../Libraries/XMCLib/src/xmc_can.c ****              can_bit_time->can_frequency > 5000000U);
 227:../Libraries/XMCLib/src/xmc_can.c ****   XMC_ASSERT("XMC_CAN_NODE_NOMINAL_BIT_TIME_Configure: sample point not supported",
 228:../Libraries/XMCLib/src/xmc_can.c ****              (can_bit_time->sample_point < 10000U) && ((can_bit_time->sample_point > 0U)));
 229:../Libraries/XMCLib/src/xmc_can.c **** 
 230:../Libraries/XMCLib/src/xmc_can.c ****   /*
 231:../Libraries/XMCLib/src/xmc_can.c ****    * Bit timing & sampling
 232:../Libraries/XMCLib/src/xmc_can.c ****    * Tq = (BRP+1)/Fcan if DIV8 = 0
 233:../Libraries/XMCLib/src/xmc_can.c ****    * Tq = 8*(BRP+1)/Fcan if DIV8 = 1
 234:../Libraries/XMCLib/src/xmc_can.c ****    * TSync = 1.Tq
 235:../Libraries/XMCLib/src/xmc_can.c ****    * TSeg1 = (TSEG1+1)*Tq                >= 3Tq
 236:../Libraries/XMCLib/src/xmc_can.c ****    * TSeg2 = (TSEG2+1)*Tq                >= 2Tq
 237:../Libraries/XMCLib/src/xmc_can.c ****    * Bit Time = TSync + TSeg1 + TSeg2    >= 8Tq
 238:../Libraries/XMCLib/src/xmc_can.c ****    *
 239:../Libraries/XMCLib/src/xmc_can.c ****    * Resynchronization:
 240:../Libraries/XMCLib/src/xmc_can.c ****    *
 241:../Libraries/XMCLib/src/xmc_can.c ****    * Tsjw = (SJW + 1)*Tq
 242:../Libraries/XMCLib/src/xmc_can.c ****    * TSeg1 >= Tsjw + Tprop
 243:../Libraries/XMCLib/src/xmc_can.c ****    * TSeg2 >= Tsjw
 244:../Libraries/XMCLib/src/xmc_can.c ****    */
 245:../Libraries/XMCLib/src/xmc_can.c ****   /* search for best baudrate */
 246:../Libraries/XMCLib/src/xmc_can.c ****   for (temp_brp = 1U; temp_brp <= 64U; temp_brp++)
 598              	 .loc 2 246 0
 599 0028 0123     	 movs r3,#1
 600 002a FB63     	 str r3,[r7,#60]
 601 002c 67E0     	 b .L22
 602              	.L31:
 603              	.LBB3:
 247:../Libraries/XMCLib/src/xmc_can.c ****   {
 248:../Libraries/XMCLib/src/xmc_can.c **** 
 249:../Libraries/XMCLib/src/xmc_can.c ****     uint32_t f_quanta = (uint32_t)((can_bit_time->can_frequency * 10U) / temp_brp);
 604              	 .loc 2 249 0
 605 002e 3B68     	 ldr r3,[r7]
 606 0030 1A68     	 ldr r2,[r3]
 607 0032 1346     	 mov r3,r2
 608 0034 9B00     	 lsls r3,r3,#2
 609 0036 1344     	 add r3,r3,r2
 610 0038 5B00     	 lsls r3,r3,#1
 611 003a 1A46     	 mov r2,r3
 612 003c FB6B     	 ldr r3,[r7,#60]
 613 003e B2FBF3F3 	 udiv r3,r2,r3
 614 0042 3B61     	 str r3,[r7,#16]
 250:../Libraries/XMCLib/src/xmc_can.c ****     uint32_t temp_tbaud = (uint32_t)(f_quanta / (can_bit_time->baudrate));
 615              	 .loc 2 250 0
 616 0044 3B68     	 ldr r3,[r7]
 617 0046 5B68     	 ldr r3,[r3,#4]
 618 0048 3A69     	 ldr r2,[r7,#16]
 619 004a B2FBF3F3 	 udiv r3,r2,r3
 620 004e 7B62     	 str r3,[r7,#36]
 251:../Libraries/XMCLib/src/xmc_can.c ****     uint32_t temp_baudrate;
 252:../Libraries/XMCLib/src/xmc_can.c ****     uint32_t error;
 253:../Libraries/XMCLib/src/xmc_can.c **** 
 254:../Libraries/XMCLib/src/xmc_can.c ****     if ((temp_tbaud % 10U) > 5U)
 621              	 .loc 2 254 0
 622 0050 796A     	 ldr r1,[r7,#36]
 623 0052 5B4B     	 ldr r3,.L39
 624 0054 A3FB0123 	 umull r2,r3,r3,r1
 625 0058 DA08     	 lsrs r2,r3,#3
 626 005a 1346     	 mov r3,r2
 627 005c 9B00     	 lsls r3,r3,#2
 628 005e 1344     	 add r3,r3,r2
 629 0060 5B00     	 lsls r3,r3,#1
 630 0062 CA1A     	 subs r2,r1,r3
 631 0064 052A     	 cmp r2,#5
 632 0066 09D9     	 bls .L23
 255:../Libraries/XMCLib/src/xmc_can.c ****     {
 256:../Libraries/XMCLib/src/xmc_can.c ****       temp_tbaud = (uint32_t)(temp_tbaud / 10U);
 633              	 .loc 2 256 0
 634 0068 7B6A     	 ldr r3,[r7,#36]
 635 006a 554A     	 ldr r2,.L39
 636 006c A2FB0323 	 umull r2,r3,r2,r3
 637 0070 DB08     	 lsrs r3,r3,#3
 638 0072 7B62     	 str r3,[r7,#36]
 257:../Libraries/XMCLib/src/xmc_can.c ****       temp_tbaud++;
 639              	 .loc 2 257 0
 640 0074 7B6A     	 ldr r3,[r7,#36]
 641 0076 0133     	 adds r3,r3,#1
 642 0078 7B62     	 str r3,[r7,#36]
 643 007a 05E0     	 b .L24
 644              	.L23:
 258:../Libraries/XMCLib/src/xmc_can.c ****     }
 259:../Libraries/XMCLib/src/xmc_can.c ****     else
 260:../Libraries/XMCLib/src/xmc_can.c ****     {
 261:../Libraries/XMCLib/src/xmc_can.c ****       temp_tbaud = (uint32_t)(temp_tbaud / 10U);
 645              	 .loc 2 261 0
 646 007c 7B6A     	 ldr r3,[r7,#36]
 647 007e 504A     	 ldr r2,.L39
 648 0080 A2FB0323 	 umull r2,r3,r2,r3
 649 0084 DB08     	 lsrs r3,r3,#3
 650 0086 7B62     	 str r3,[r7,#36]
 651              	.L24:
 262:../Libraries/XMCLib/src/xmc_can.c ****     }
 263:../Libraries/XMCLib/src/xmc_can.c **** 
 264:../Libraries/XMCLib/src/xmc_can.c ****     if (temp_tbaud > 0U)
 652              	 .loc 2 264 0
 653 0088 7B6A     	 ldr r3,[r7,#36]
 654 008a 002B     	 cmp r3,#0
 655 008c 0AD0     	 beq .L25
 265:../Libraries/XMCLib/src/xmc_can.c ****     {
 266:../Libraries/XMCLib/src/xmc_can.c ****       temp_baudrate = (uint32_t) (f_quanta / (temp_tbaud * 10U));
 656              	 .loc 2 266 0
 657 008e 7A6A     	 ldr r2,[r7,#36]
 658 0090 1346     	 mov r3,r2
 659 0092 9B00     	 lsls r3,r3,#2
 660 0094 1344     	 add r3,r3,r2
 661 0096 5B00     	 lsls r3,r3,#1
 662 0098 1A46     	 mov r2,r3
 663 009a 3B69     	 ldr r3,[r7,#16]
 664 009c B3FBF2F3 	 udiv r3,r3,r2
 665 00a0 3B62     	 str r3,[r7,#32]
 666 00a2 07E0     	 b .L26
 667              	.L25:
 267:../Libraries/XMCLib/src/xmc_can.c ****     }
 268:../Libraries/XMCLib/src/xmc_can.c ****     else
 269:../Libraries/XMCLib/src/xmc_can.c ****     {
 270:../Libraries/XMCLib/src/xmc_can.c ****       temp_baudrate = f_quanta / 10U;
 668              	 .loc 2 270 0
 669 00a4 3B69     	 ldr r3,[r7,#16]
 670 00a6 464A     	 ldr r2,.L39
 671 00a8 A2FB0323 	 umull r2,r3,r2,r3
 672 00ac DB08     	 lsrs r3,r3,#3
 673 00ae 3B62     	 str r3,[r7,#32]
 271:../Libraries/XMCLib/src/xmc_can.c ****       temp_tbaud = 1;
 674              	 .loc 2 271 0
 675 00b0 0123     	 movs r3,#1
 676 00b2 7B62     	 str r3,[r7,#36]
 677              	.L26:
 272:../Libraries/XMCLib/src/xmc_can.c ****     }
 273:../Libraries/XMCLib/src/xmc_can.c **** 
 274:../Libraries/XMCLib/src/xmc_can.c ****     if (temp_baudrate >= can_bit_time->baudrate)
 678              	 .loc 2 274 0
 679 00b4 3B68     	 ldr r3,[r7]
 680 00b6 5A68     	 ldr r2,[r3,#4]
 681 00b8 3B6A     	 ldr r3,[r7,#32]
 682 00ba 9A42     	 cmp r2,r3
 683 00bc 05D8     	 bhi .L27
 275:../Libraries/XMCLib/src/xmc_can.c ****     {
 276:../Libraries/XMCLib/src/xmc_can.c ****       error = temp_baudrate - can_bit_time->baudrate;
 684              	 .loc 2 276 0
 685 00be 3B68     	 ldr r3,[r7]
 686 00c0 5B68     	 ldr r3,[r3,#4]
 687 00c2 3A6A     	 ldr r2,[r7,#32]
 688 00c4 D31A     	 subs r3,r2,r3
 689 00c6 FB61     	 str r3,[r7,#28]
 690 00c8 04E0     	 b .L28
 691              	.L27:
 277:../Libraries/XMCLib/src/xmc_can.c ****     }
 278:../Libraries/XMCLib/src/xmc_can.c ****     else
 279:../Libraries/XMCLib/src/xmc_can.c ****     {
 280:../Libraries/XMCLib/src/xmc_can.c ****       error = can_bit_time->baudrate - temp_baudrate;
 692              	 .loc 2 280 0
 693 00ca 3B68     	 ldr r3,[r7]
 694 00cc 5A68     	 ldr r2,[r3,#4]
 695 00ce 3B6A     	 ldr r3,[r7,#32]
 696 00d0 D31A     	 subs r3,r2,r3
 697 00d2 FB61     	 str r3,[r7,#28]
 698              	.L28:
 281:../Libraries/XMCLib/src/xmc_can.c ****     }
 282:../Libraries/XMCLib/src/xmc_can.c **** 
 283:../Libraries/XMCLib/src/xmc_can.c ****     if ((temp_tbaud <= 20U) && (best_error > error))
 699              	 .loc 2 283 0
 700 00d4 7B6A     	 ldr r3,[r7,#36]
 701 00d6 142B     	 cmp r3,#20
 702 00d8 0ED8     	 bhi .L29
 703              	 .loc 2 283 0 is_stmt 0 discriminator 1
 704 00da BA6A     	 ldr r2,[r7,#40]
 705 00dc FB69     	 ldr r3,[r7,#28]
 706 00de 9A42     	 cmp r2,r3
 707 00e0 0AD9     	 bls .L29
 284:../Libraries/XMCLib/src/xmc_can.c ****     {
 285:../Libraries/XMCLib/src/xmc_can.c ****       best_brp = temp_brp;
 708              	 .loc 2 285 0 is_stmt 1
 709 00e2 FB6B     	 ldr r3,[r7,#60]
 710 00e4 7B63     	 str r3,[r7,#52]
 286:../Libraries/XMCLib/src/xmc_can.c ****       best_tbaud = temp_tbaud;
 711              	 .loc 2 286 0
 712 00e6 7B6A     	 ldr r3,[r7,#36]
 713 00e8 FB62     	 str r3,[r7,#44]
 287:../Libraries/XMCLib/src/xmc_can.c ****       best_error = (error);
 714              	 .loc 2 287 0
 715 00ea FB69     	 ldr r3,[r7,#28]
 716 00ec BB62     	 str r3,[r7,#40]
 288:../Libraries/XMCLib/src/xmc_can.c **** 
 289:../Libraries/XMCLib/src/xmc_can.c ****       if (error < 1000U)
 717              	 .loc 2 289 0
 718 00ee FB69     	 ldr r3,[r7,#28]
 719 00f0 B3F57A7F 	 cmp r3,#1000
 720 00f4 00D2     	 bcs .L29
 290:../Libraries/XMCLib/src/xmc_can.c ****       {
 291:../Libraries/XMCLib/src/xmc_can.c ****         break;
 721              	 .loc 2 291 0
 722 00f6 05E0     	 b .L30
 723              	.L29:
 724              	.LBE3:
 246:../Libraries/XMCLib/src/xmc_can.c ****   {
 725              	 .loc 2 246 0 discriminator 2
 726 00f8 FB6B     	 ldr r3,[r7,#60]
 727 00fa 0133     	 adds r3,r3,#1
 728 00fc FB63     	 str r3,[r7,#60]
 729              	.L22:
 246:../Libraries/XMCLib/src/xmc_can.c ****   {
 730              	 .loc 2 246 0 is_stmt 0 discriminator 1
 731 00fe FB6B     	 ldr r3,[r7,#60]
 732 0100 402B     	 cmp r3,#64
 733 0102 94D9     	 bls .L31
 734              	.L30:
 292:../Libraries/XMCLib/src/xmc_can.c ****       }
 293:../Libraries/XMCLib/src/xmc_can.c ****     }
 294:../Libraries/XMCLib/src/xmc_can.c ****   }
 295:../Libraries/XMCLib/src/xmc_can.c ****   /* search for best sample point */
 296:../Libraries/XMCLib/src/xmc_can.c ****   best_error = 10000U;
 735              	 .loc 2 296 0 is_stmt 1
 736 0104 42F21073 	 movw r3,#10000
 737 0108 BB62     	 str r3,[r7,#40]
 297:../Libraries/XMCLib/src/xmc_can.c **** 
 298:../Libraries/XMCLib/src/xmc_can.c ****   for (temp_tseg1 = 64U; temp_tseg1 >= 3U; temp_tseg1--)
 738              	 .loc 2 298 0
 739 010a 4023     	 movs r3,#64
 740 010c BB63     	 str r3,[r7,#56]
 741 010e 2EE0     	 b .L32
 742              	.L38:
 743              	.LBB4:
 299:../Libraries/XMCLib/src/xmc_can.c ****   {
 300:../Libraries/XMCLib/src/xmc_can.c ****     uint32_t tempSamplePoint = ((temp_tseg1 + 1U) * 10000U) / best_tbaud;
 744              	 .loc 2 300 0
 745 0110 BB6B     	 ldr r3,[r7,#56]
 746 0112 0133     	 adds r3,r3,#1
 747 0114 42F21072 	 movw r2,#10000
 748 0118 02FB03F2 	 mul r2,r2,r3
 749 011c FB6A     	 ldr r3,[r7,#44]
 750 011e B2FBF3F3 	 udiv r3,r2,r3
 751 0122 FB60     	 str r3,[r7,#12]
 301:../Libraries/XMCLib/src/xmc_can.c ****     uint32_t error;
 302:../Libraries/XMCLib/src/xmc_can.c ****     if (tempSamplePoint >= can_bit_time->sample_point)
 752              	 .loc 2 302 0
 753 0124 3B68     	 ldr r3,[r7]
 754 0126 1B89     	 ldrh r3,[r3,#8]
 755 0128 1A46     	 mov r2,r3
 756 012a FB68     	 ldr r3,[r7,#12]
 757 012c 9A42     	 cmp r2,r3
 758 012e 06D8     	 bhi .L33
 303:../Libraries/XMCLib/src/xmc_can.c ****     {
 304:../Libraries/XMCLib/src/xmc_can.c ****       error = tempSamplePoint  - can_bit_time->sample_point;
 759              	 .loc 2 304 0
 760 0130 3B68     	 ldr r3,[r7]
 761 0132 1B89     	 ldrh r3,[r3,#8]
 762 0134 1A46     	 mov r2,r3
 763 0136 FB68     	 ldr r3,[r7,#12]
 764 0138 9B1A     	 subs r3,r3,r2
 765 013a BB61     	 str r3,[r7,#24]
 766 013c 05E0     	 b .L34
 767              	.L33:
 305:../Libraries/XMCLib/src/xmc_can.c ****     }
 306:../Libraries/XMCLib/src/xmc_can.c ****     else
 307:../Libraries/XMCLib/src/xmc_can.c ****     {
 308:../Libraries/XMCLib/src/xmc_can.c ****       error = can_bit_time->sample_point  - tempSamplePoint;
 768              	 .loc 2 308 0
 769 013e 3B68     	 ldr r3,[r7]
 770 0140 1B89     	 ldrh r3,[r3,#8]
 771 0142 1A46     	 mov r2,r3
 772 0144 FB68     	 ldr r3,[r7,#12]
 773 0146 D31A     	 subs r3,r2,r3
 774 0148 BB61     	 str r3,[r7,#24]
 775              	.L34:
 309:../Libraries/XMCLib/src/xmc_can.c ****     }
 310:../Libraries/XMCLib/src/xmc_can.c ****     if (best_error > error)
 776              	 .loc 2 310 0
 777 014a BA6A     	 ldr r2,[r7,#40]
 778 014c BB69     	 ldr r3,[r7,#24]
 779 014e 9A42     	 cmp r2,r3
 780 0150 03D9     	 bls .L35
 311:../Libraries/XMCLib/src/xmc_can.c ****     {
 312:../Libraries/XMCLib/src/xmc_can.c ****       best_tseg1 = temp_tseg1;
 781              	 .loc 2 312 0
 782 0152 BB6B     	 ldr r3,[r7,#56]
 783 0154 3B63     	 str r3,[r7,#48]
 313:../Libraries/XMCLib/src/xmc_can.c ****       best_error = error;
 784              	 .loc 2 313 0
 785 0156 BB69     	 ldr r3,[r7,#24]
 786 0158 BB62     	 str r3,[r7,#40]
 787              	.L35:
 314:../Libraries/XMCLib/src/xmc_can.c ****     }
 315:../Libraries/XMCLib/src/xmc_can.c ****     if (tempSamplePoint < (can_bit_time->sample_point))
 788              	 .loc 2 315 0
 789 015a 3B68     	 ldr r3,[r7]
 790 015c 1B89     	 ldrh r3,[r3,#8]
 791 015e 1A46     	 mov r2,r3
 792 0160 FB68     	 ldr r3,[r7,#12]
 793 0162 9A42     	 cmp r2,r3
 794 0164 00D9     	 bls .L36
 316:../Libraries/XMCLib/src/xmc_can.c ****     {
 317:../Libraries/XMCLib/src/xmc_can.c ****       break;
 795              	 .loc 2 317 0
 796 0166 05E0     	 b .L37
 797              	.L36:
 798              	.LBE4:
 298:../Libraries/XMCLib/src/xmc_can.c ****   {
 799              	 .loc 2 298 0 discriminator 2
 800 0168 BB6B     	 ldr r3,[r7,#56]
 801 016a 013B     	 subs r3,r3,#1
 802 016c BB63     	 str r3,[r7,#56]
 803              	.L32:
 298:../Libraries/XMCLib/src/xmc_can.c ****   {
 804              	 .loc 2 298 0 is_stmt 0 discriminator 1
 805 016e BB6B     	 ldr r3,[r7,#56]
 806 0170 022B     	 cmp r3,#2
 807 0172 CDD8     	 bhi .L38
 808              	.L37:
 318:../Libraries/XMCLib/src/xmc_can.c ****     }
 319:../Libraries/XMCLib/src/xmc_can.c ****   }
 320:../Libraries/XMCLib/src/xmc_can.c **** 
 321:../Libraries/XMCLib/src/xmc_can.c ****   best_tseg2 = best_tbaud - best_tseg1 - 1U;
 809              	 .loc 2 321 0 is_stmt 1
 810 0174 FA6A     	 ldr r2,[r7,#44]
 811 0176 3B6B     	 ldr r3,[r7,#48]
 812 0178 D31A     	 subs r3,r2,r3
 813 017a 013B     	 subs r3,r3,#1
 814 017c 7B61     	 str r3,[r7,#20]
 322:../Libraries/XMCLib/src/xmc_can.c **** 
 323:../Libraries/XMCLib/src/xmc_can.c ****   XMC_CAN_NODE_EnableConfigurationChange(can_node);
 815              	 .loc 2 323 0
 816 017e 7868     	 ldr r0,[r7,#4]
 817 0180 FFF7FEFF 	 bl XMC_CAN_NODE_EnableConfigurationChange
 324:../Libraries/XMCLib/src/xmc_can.c ****   /* Configure bit timing register */
 325:../Libraries/XMCLib/src/xmc_can.c ****   can_node->NBTR = (((uint32_t)(best_tseg2 - 1u) << CAN_NODE_NBTR_TSEG2_Pos) & (uint32_t)CAN_NODE_N
 818              	 .loc 2 325 0
 819 0184 7B69     	 ldr r3,[r7,#20]
 820 0186 013B     	 subs r3,r3,#1
 821 0188 1B03     	 lsls r3,r3,#12
 822 018a 03F4E042 	 and r2,r3,#28672
 326:../Libraries/XMCLib/src/xmc_can.c ****                    ((((uint32_t)((uint32_t)(can_bit_time->sjw) - 1U) << CAN_NODE_NBTR_SJW_Pos)) & (
 823              	 .loc 2 326 0
 824 018e 3B68     	 ldr r3,[r7]
 825 0190 5B89     	 ldrh r3,[r3,#10]
 826 0192 013B     	 subs r3,r3,#1
 827 0194 9B01     	 lsls r3,r3,#6
 828 0196 DBB2     	 uxtb r3,r3
 325:../Libraries/XMCLib/src/xmc_can.c ****                    ((((uint32_t)((uint32_t)(can_bit_time->sjw) - 1U) << CAN_NODE_NBTR_SJW_Pos)) & (
 829              	 .loc 2 325 0
 830 0198 1A43     	 orrs r2,r2,r3
 327:../Libraries/XMCLib/src/xmc_can.c ****                    (((uint32_t)(best_tseg1 - 1U) << CAN_NODE_NBTR_TSEG1_Pos) & (uint32_t)CAN_NODE_N
 831              	 .loc 2 327 0
 832 019a 3B6B     	 ldr r3,[r7,#48]
 833 019c 013B     	 subs r3,r3,#1
 834 019e 1B02     	 lsls r3,r3,#8
 835 01a0 03F47063 	 and r3,r3,#3840
 326:../Libraries/XMCLib/src/xmc_can.c ****                    ((((uint32_t)((uint32_t)(can_bit_time->sjw) - 1U) << CAN_NODE_NBTR_SJW_Pos)) & (
 836              	 .loc 2 326 0
 837 01a4 1A43     	 orrs r2,r2,r3
 328:../Libraries/XMCLib/src/xmc_can.c ****                    (((uint32_t)(best_brp - 1U) << CAN_NODE_NBTR_BRP_Pos) & (uint32_t)CAN_NODE_NBTR_
 838              	 .loc 2 328 0
 839 01a6 7B6B     	 ldr r3,[r7,#52]
 840 01a8 013B     	 subs r3,r3,#1
 841 01aa 03F03F03 	 and r3,r3,#63
 842 01ae 1A43     	 orrs r2,r2,r3
 325:../Libraries/XMCLib/src/xmc_can.c ****                    ((((uint32_t)((uint32_t)(can_bit_time->sjw) - 1U) << CAN_NODE_NBTR_SJW_Pos)) & (
 843              	 .loc 2 325 0
 844 01b0 7B68     	 ldr r3,[r7,#4]
 845 01b2 1A61     	 str r2,[r3,#16]
 329:../Libraries/XMCLib/src/xmc_can.c ****                    (((uint32_t)0U << CAN_NODE_NBTR_DIV8_Pos) & (uint32_t)CAN_NODE_NBTR_DIV8_Msk);
 330:../Libraries/XMCLib/src/xmc_can.c ****   XMC_CAN_NODE_DisableConfigurationChange(can_node);
 846              	 .loc 2 330 0
 847 01b4 7868     	 ldr r0,[r7,#4]
 848 01b6 FFF7FEFF 	 bl XMC_CAN_NODE_DisableConfigurationChange
 331:../Libraries/XMCLib/src/xmc_can.c **** }
 849              	 .loc 2 331 0
 850 01ba 4037     	 adds r7,r7,#64
 851              	.LCFI44:
 852              	 .cfi_def_cfa_offset 8
 853 01bc BD46     	 mov sp,r7
 854              	.LCFI45:
 855              	 .cfi_def_cfa_register 13
 856              	 
 857 01be 80BD     	 pop {r7,pc}
 858              	.L40:
 859              	 .align 2
 860              	.L39:
 861 01c0 CDCCCCCC 	 .word -858993459
 862              	 .cfi_endproc
 863              	.LFE235:
 865              	 .section .text.XMC_CAN_AllocateMOtoNodeList,"ax",%progbits
 866              	 .align 2
 867              	 .global XMC_CAN_AllocateMOtoNodeList
 868              	 .thumb
 869              	 .thumb_func
 871              	XMC_CAN_AllocateMOtoNodeList:
 872              	.LFB236:
 332:../Libraries/XMCLib/src/xmc_can.c **** /* Function to allocate message object from free list to node list */
 333:../Libraries/XMCLib/src/xmc_can.c **** void XMC_CAN_AllocateMOtoNodeList(XMC_CAN_t *const obj, const uint8_t node_num, const uint8_t mo_nu
 334:../Libraries/XMCLib/src/xmc_can.c **** {
 873              	 .loc 2 334 0
 874              	 .cfi_startproc
 875              	 
 876              	 
 877 0000 80B5     	 push {r7,lr}
 878              	.LCFI46:
 879              	 .cfi_def_cfa_offset 8
 880              	 .cfi_offset 7,-8
 881              	 .cfi_offset 14,-4
 882 0002 82B0     	 sub sp,sp,#8
 883              	.LCFI47:
 884              	 .cfi_def_cfa_offset 16
 885 0004 00AF     	 add r7,sp,#0
 886              	.LCFI48:
 887              	 .cfi_def_cfa_register 7
 888 0006 7860     	 str r0,[r7,#4]
 889 0008 0B46     	 mov r3,r1
 890 000a FB70     	 strb r3,[r7,#3]
 891 000c 1346     	 mov r3,r2
 892 000e BB70     	 strb r3,[r7,#2]
 335:../Libraries/XMCLib/src/xmc_can.c ****   /* wait while panel operation is in progress. */
 336:../Libraries/XMCLib/src/xmc_can.c ****   while (XMC_CAN_IsPanelControlReady(obj) == false)
 893              	 .loc 2 336 0
 894 0010 00BF     	 nop
 895              	.L42:
 896              	 .loc 2 336 0 is_stmt 0 discriminator 1
 897 0012 7868     	 ldr r0,[r7,#4]
 898 0014 FFF7FEFF 	 bl XMC_CAN_IsPanelControlReady
 899 0018 0346     	 mov r3,r0
 900 001a 83F00103 	 eor r3,r3,#1
 901 001e DBB2     	 uxtb r3,r3
 902 0020 002B     	 cmp r3,#0
 903 0022 F6D1     	 bne .L42
 337:../Libraries/XMCLib/src/xmc_can.c ****   {
 338:../Libraries/XMCLib/src/xmc_can.c ****     /*Do nothing*/
 339:../Libraries/XMCLib/src/xmc_can.c ****   };
 340:../Libraries/XMCLib/src/xmc_can.c **** 
 341:../Libraries/XMCLib/src/xmc_can.c ****   /* Panel Command for  allocation of MO to node list */
 342:../Libraries/XMCLib/src/xmc_can.c ****   XMC_CAN_PanelControl(obj, XMC_CAN_PANCMD_STATIC_ALLOCATE, mo_num, (node_num + 1U));
 904              	 .loc 2 342 0 is_stmt 1
 905 0024 FB78     	 ldrb r3,[r7,#3]
 906 0026 0133     	 adds r3,r3,#1
 907 0028 DBB2     	 uxtb r3,r3
 908 002a BA78     	 ldrb r2,[r7,#2]
 909 002c 7868     	 ldr r0,[r7,#4]
 910 002e 0221     	 movs r1,#2
 911 0030 FFF7FEFF 	 bl XMC_CAN_PanelControl
 343:../Libraries/XMCLib/src/xmc_can.c **** }
 912              	 .loc 2 343 0
 913 0034 0837     	 adds r7,r7,#8
 914              	.LCFI49:
 915              	 .cfi_def_cfa_offset 8
 916 0036 BD46     	 mov sp,r7
 917              	.LCFI50:
 918              	 .cfi_def_cfa_register 13
 919              	 
 920 0038 80BD     	 pop {r7,pc}
 921              	 .cfi_endproc
 922              	.LFE236:
 924 003a 00BF     	 .section .text.XMC_CAN_Disable,"ax",%progbits
 925              	 .align 2
 926              	 .global XMC_CAN_Disable
 927              	 .thumb
 928              	 .thumb_func
 930              	XMC_CAN_Disable:
 931              	.LFB237:
 344:../Libraries/XMCLib/src/xmc_can.c **** 
 345:../Libraries/XMCLib/src/xmc_can.c **** /* Disable XMC_CAN Peripheral */
 346:../Libraries/XMCLib/src/xmc_can.c **** void XMC_CAN_Disable(XMC_CAN_t *const obj)
 347:../Libraries/XMCLib/src/xmc_can.c **** {
 932              	 .loc 2 347 0
 933              	 .cfi_startproc
 934              	 
 935              	 
 936 0000 80B5     	 push {r7,lr}
 937              	.LCFI51:
 938              	 .cfi_def_cfa_offset 8
 939              	 .cfi_offset 7,-8
 940              	 .cfi_offset 14,-4
 941 0002 82B0     	 sub sp,sp,#8
 942              	.LCFI52:
 943              	 .cfi_def_cfa_offset 16
 944 0004 00AF     	 add r7,sp,#0
 945              	.LCFI53:
 946              	 .cfi_def_cfa_register 7
 947 0006 7860     	 str r0,[r7,#4]
 348:../Libraries/XMCLib/src/xmc_can.c ****   /* Disable CAN Module */
 349:../Libraries/XMCLib/src/xmc_can.c ****   obj->CLC = CAN_CLC_DISR_Msk;
 948              	 .loc 2 349 0
 949 0008 7B68     	 ldr r3,[r7,#4]
 950 000a 0122     	 movs r2,#1
 951 000c 1A60     	 str r2,[r3]
 350:../Libraries/XMCLib/src/xmc_can.c **** #if defined(PERIPHERAL_RESET_SUPPORTED)
 351:../Libraries/XMCLib/src/xmc_can.c ****   XMC_SCU_RESET_AssertPeripheralReset(XMC_SCU_PERIPHERAL_RESET_MCAN);
 952              	 .loc 2 351 0
 953 000e 0448     	 ldr r0,.L44
 954 0010 FFF7FEFF 	 bl XMC_SCU_RESET_AssertPeripheralReset
 352:../Libraries/XMCLib/src/xmc_can.c **** #endif
 353:../Libraries/XMCLib/src/xmc_can.c **** #if defined(CLOCK_GATING_SUPPORTED)
 354:../Libraries/XMCLib/src/xmc_can.c ****   XMC_SCU_CLOCK_GatePeripheralClock(XMC_SCU_PERIPHERAL_CLOCK_MCAN);
 955              	 .loc 2 354 0
 956 0014 0248     	 ldr r0,.L44
 957 0016 FFF7FEFF 	 bl XMC_SCU_CLOCK_GatePeripheralClock
 355:../Libraries/XMCLib/src/xmc_can.c **** #endif
 356:../Libraries/XMCLib/src/xmc_can.c **** }
 958              	 .loc 2 356 0
 959 001a 0837     	 adds r7,r7,#8
 960              	.LCFI54:
 961              	 .cfi_def_cfa_offset 8
 962 001c BD46     	 mov sp,r7
 963              	.LCFI55:
 964              	 .cfi_def_cfa_register 13
 965              	 
 966 001e 80BD     	 pop {r7,pc}
 967              	.L45:
 968              	 .align 2
 969              	.L44:
 970 0020 10000010 	 .word 268435472
 971              	 .cfi_endproc
 972              	.LFE237:
 974              	 .section .text.XMC_CAN_Enable,"ax",%progbits
 975              	 .align 2
 976              	 .global XMC_CAN_Enable
 977              	 .thumb
 978              	 .thumb_func
 980              	XMC_CAN_Enable:
 981              	.LFB238:
 357:../Libraries/XMCLib/src/xmc_can.c **** 
 358:../Libraries/XMCLib/src/xmc_can.c **** /* Enable XMC_CAN Peripheral */
 359:../Libraries/XMCLib/src/xmc_can.c **** void XMC_CAN_Enable(XMC_CAN_t *const obj)
 360:../Libraries/XMCLib/src/xmc_can.c **** {
 982              	 .loc 2 360 0
 983              	 .cfi_startproc
 984              	 
 985              	 
 986 0000 80B5     	 push {r7,lr}
 987              	.LCFI56:
 988              	 .cfi_def_cfa_offset 8
 989              	 .cfi_offset 7,-8
 990              	 .cfi_offset 14,-4
 991 0002 82B0     	 sub sp,sp,#8
 992              	.LCFI57:
 993              	 .cfi_def_cfa_offset 16
 994 0004 00AF     	 add r7,sp,#0
 995              	.LCFI58:
 996              	 .cfi_def_cfa_register 7
 997 0006 7860     	 str r0,[r7,#4]
 361:../Libraries/XMCLib/src/xmc_can.c **** #if defined(CLOCK_GATING_SUPPORTED)
 362:../Libraries/XMCLib/src/xmc_can.c ****   XMC_SCU_CLOCK_UngatePeripheralClock(XMC_SCU_PERIPHERAL_CLOCK_MCAN);
 998              	 .loc 2 362 0
 999 0008 0A48     	 ldr r0,.L48
 1000 000a FFF7FEFF 	 bl XMC_SCU_CLOCK_UngatePeripheralClock
 363:../Libraries/XMCLib/src/xmc_can.c **** #endif
 364:../Libraries/XMCLib/src/xmc_can.c **** #if defined(PERIPHERAL_RESET_SUPPORTED)
 365:../Libraries/XMCLib/src/xmc_can.c ****   XMC_SCU_RESET_DeassertPeripheralReset(XMC_SCU_PERIPHERAL_RESET_MCAN);
 1001              	 .loc 2 365 0
 1002 000e 0948     	 ldr r0,.L48
 1003 0010 FFF7FEFF 	 bl XMC_SCU_RESET_DeassertPeripheralReset
 366:../Libraries/XMCLib/src/xmc_can.c **** #endif
 367:../Libraries/XMCLib/src/xmc_can.c ****   /* Enable CAN Module */
 368:../Libraries/XMCLib/src/xmc_can.c ****   obj->CLC &= ~(uint32_t)CAN_CLC_DISR_Msk;
 1004              	 .loc 2 368 0
 1005 0014 7B68     	 ldr r3,[r7,#4]
 1006 0016 1B68     	 ldr r3,[r3]
 1007 0018 23F00102 	 bic r2,r3,#1
 1008 001c 7B68     	 ldr r3,[r7,#4]
 1009 001e 1A60     	 str r2,[r3]
 369:../Libraries/XMCLib/src/xmc_can.c ****   while (obj->CLC & CAN_CLC_DISS_Msk)
 1010              	 .loc 2 369 0
 1011 0020 00BF     	 nop
 1012              	.L47:
 1013              	 .loc 2 369 0 is_stmt 0 discriminator 1
 1014 0022 7B68     	 ldr r3,[r7,#4]
 1015 0024 1B68     	 ldr r3,[r3]
 1016 0026 03F00203 	 and r3,r3,#2
 1017 002a 002B     	 cmp r3,#0
 1018 002c F9D1     	 bne .L47
 370:../Libraries/XMCLib/src/xmc_can.c ****   {
 371:../Libraries/XMCLib/src/xmc_can.c ****     /*Do nothing*/
 372:../Libraries/XMCLib/src/xmc_can.c ****   };
 373:../Libraries/XMCLib/src/xmc_can.c **** }
 1019              	 .loc 2 373 0 is_stmt 1
 1020 002e 0837     	 adds r7,r7,#8
 1021              	.LCFI59:
 1022              	 .cfi_def_cfa_offset 8
 1023 0030 BD46     	 mov sp,r7
 1024              	.LCFI60:
 1025              	 .cfi_def_cfa_register 13
 1026              	 
 1027 0032 80BD     	 pop {r7,pc}
 1028              	.L49:
 1029              	 .align 2
 1030              	.L48:
 1031 0034 10000010 	 .word 268435472
 1032              	 .cfi_endproc
 1033              	.LFE238:
 1035              	 .section .text.XMC_CAN_Init,"ax",%progbits
 1036              	 .align 2
 1037              	 .global XMC_CAN_Init
 1038              	 .thumb
 1039              	 .thumb_func
 1041              	XMC_CAN_Init:
 1042              	.LFB239:
 374:../Libraries/XMCLib/src/xmc_can.c **** 
 375:../Libraries/XMCLib/src/xmc_can.c **** #if defined(MULTICAN_PLUS)
 376:../Libraries/XMCLib/src/xmc_can.c **** void XMC_CAN_Init(XMC_CAN_t *const obj, XMC_CAN_CANCLKSRC_t clksrc, uint32_t can_frequency)
 377:../Libraries/XMCLib/src/xmc_can.c **** {
 1043              	 .loc 2 377 0
 1044              	 .cfi_startproc
 1045              	 
 1046              	 
 1047 0000 80B5     	 push {r7,lr}
 1048              	.LCFI61:
 1049              	 .cfi_def_cfa_offset 8
 1050              	 .cfi_offset 7,-8
 1051              	 .cfi_offset 14,-4
 1052 0002 8EB0     	 sub sp,sp,#56
 1053              	.LCFI62:
 1054              	 .cfi_def_cfa_offset 64
 1055 0004 00AF     	 add r7,sp,#0
 1056              	.LCFI63:
 1057              	 .cfi_def_cfa_register 7
 1058 0006 F860     	 str r0,[r7,#12]
 1059 0008 0B46     	 mov r3,r1
 1060 000a 7A60     	 str r2,[r7,#4]
 1061 000c FB72     	 strb r3,[r7,#11]
 378:../Libraries/XMCLib/src/xmc_can.c ****   uint32_t  step_n, step_f;
 379:../Libraries/XMCLib/src/xmc_can.c ****   bool normal_divider;
 380:../Libraries/XMCLib/src/xmc_can.c ****   uint32_t freq_n, freq_f;
 381:../Libraries/XMCLib/src/xmc_can.c ****   uint32_t step;
 382:../Libraries/XMCLib/src/xmc_can.c ****   uint32_t can_frequency_khz;
 383:../Libraries/XMCLib/src/xmc_can.c ****   uint32_t peripheral_frequency_khz;
 384:../Libraries/XMCLib/src/xmc_can.c ****   XMC_CAN_DM_t can_divider_mode;
 385:../Libraries/XMCLib/src/xmc_can.c **** 
 386:../Libraries/XMCLib/src/xmc_can.c ****   uint32_t peripheral_frequency;
 387:../Libraries/XMCLib/src/xmc_can.c ****   /*Enabling the module*/
 388:../Libraries/XMCLib/src/xmc_can.c ****   XMC_CAN_Enable(obj);
 1062              	 .loc 2 388 0
 1063 000e F868     	 ldr r0,[r7,#12]
 1064 0010 FFF7FEFF 	 bl XMC_CAN_Enable
 389:../Libraries/XMCLib/src/xmc_can.c **** 
 390:../Libraries/XMCLib/src/xmc_can.c ****   XMC_CAN_SetBaudrateClockSource(obj, clksrc);
 1065              	 .loc 2 390 0
 1066 0014 FB7A     	 ldrb r3,[r7,#11]
 1067 0016 F868     	 ldr r0,[r7,#12]
 1068 0018 1946     	 mov r1,r3
 1069 001a FFF7FEFF 	 bl XMC_CAN_SetBaudrateClockSource
 391:../Libraries/XMCLib/src/xmc_can.c **** 
 392:../Libraries/XMCLib/src/xmc_can.c ****   peripheral_frequency = XMC_CAN_GetBaudrateClockFrequency(obj);
 1070              	 .loc 2 392 0
 1071 001e F868     	 ldr r0,[r7,#12]
 1072 0020 FFF7FEFF 	 bl XMC_CAN_GetBaudrateClockFrequency
 1073 0024 7863     	 str r0,[r7,#52]
 393:../Libraries/XMCLib/src/xmc_can.c **** 
 394:../Libraries/XMCLib/src/xmc_can.c ****   XMC_ASSERT("XMC_CAN_Init: frequency not supported", can_frequency <= peripheral_frequency);
 395:../Libraries/XMCLib/src/xmc_can.c **** 
 396:../Libraries/XMCLib/src/xmc_can.c ****   /* Normal divider mode */
 397:../Libraries/XMCLib/src/xmc_can.c ****   step_n = (uint32_t)min(max(0U, (1024U - (peripheral_frequency / can_frequency))), 1023U);
 1074              	 .loc 2 397 0
 1075 0026 7A6B     	 ldr r2,[r7,#52]
 1076 0028 7B68     	 ldr r3,[r7,#4]
 1077 002a B2FBF3F3 	 udiv r3,r2,r3
 1078 002e C3F58063 	 rsb r3,r3,#1024
 1079 0032 0020     	 movs r0,#0
 1080 0034 1946     	 mov r1,r3
 1081 0036 FFF7FEFF 	 bl max
 1082 003a 0346     	 mov r3,r0
 1083 003c 1846     	 mov r0,r3
 1084 003e 40F2FF31 	 movw r1,#1023
 1085 0042 FFF7FEFF 	 bl min
 1086 0046 3863     	 str r0,[r7,#48]
 398:../Libraries/XMCLib/src/xmc_can.c ****   freq_n = (uint32_t) (peripheral_frequency / (1024U - step_n));
 1087              	 .loc 2 398 0
 1088 0048 3B6B     	 ldr r3,[r7,#48]
 1089 004a C3F58063 	 rsb r3,r3,#1024
 1090 004e 7A6B     	 ldr r2,[r7,#52]
 1091 0050 B2FBF3F3 	 udiv r3,r2,r3
 1092 0054 FB62     	 str r3,[r7,#44]
 399:../Libraries/XMCLib/src/xmc_can.c **** 
 400:../Libraries/XMCLib/src/xmc_can.c ****   /* Fractional divider mode */
 401:../Libraries/XMCLib/src/xmc_can.c ****   can_frequency_khz = (uint32_t) (can_frequency >> 6);
 1093              	 .loc 2 401 0
 1094 0056 7B68     	 ldr r3,[r7,#4]
 1095 0058 9B09     	 lsrs r3,r3,#6
 1096 005a BB62     	 str r3,[r7,#40]
 402:../Libraries/XMCLib/src/xmc_can.c ****   peripheral_frequency_khz = (uint32_t)(peripheral_frequency >> 6);
 1097              	 .loc 2 402 0
 1098 005c 7B6B     	 ldr r3,[r7,#52]
 1099 005e 9B09     	 lsrs r3,r3,#6
 1100 0060 7B62     	 str r3,[r7,#36]
 403:../Libraries/XMCLib/src/xmc_can.c **** 
 404:../Libraries/XMCLib/src/xmc_can.c ****   step_f = (uint32_t)(min( (((1024U * can_frequency_khz) / peripheral_frequency_khz) ), 1023U ));
 1101              	 .loc 2 404 0
 1102 0062 BB6A     	 ldr r3,[r7,#40]
 1103 0064 9A02     	 lsls r2,r3,#10
 1104 0066 7B6A     	 ldr r3,[r7,#36]
 1105 0068 B2FBF3F3 	 udiv r3,r2,r3
 1106 006c 1846     	 mov r0,r3
 1107 006e 40F2FF31 	 movw r1,#1023
 1108 0072 FFF7FEFF 	 bl min
 1109 0076 3862     	 str r0,[r7,#32]
 405:../Libraries/XMCLib/src/xmc_can.c ****   freq_f = (uint32_t)((peripheral_frequency_khz * step_f) / 1024U);
 1110              	 .loc 2 405 0
 1111 0078 7B6A     	 ldr r3,[r7,#36]
 1112 007a 3A6A     	 ldr r2,[r7,#32]
 1113 007c 02FB03F3 	 mul r3,r2,r3
 1114 0080 9B0A     	 lsrs r3,r3,#10
 1115 0082 FB61     	 str r3,[r7,#28]
 406:../Libraries/XMCLib/src/xmc_can.c ****   freq_f = freq_f << 6;
 1116              	 .loc 2 406 0
 1117 0084 FB69     	 ldr r3,[r7,#28]
 1118 0086 9B01     	 lsls r3,r3,#6
 1119 0088 FB61     	 str r3,[r7,#28]
 407:../Libraries/XMCLib/src/xmc_can.c **** 
 408:../Libraries/XMCLib/src/xmc_can.c ****   normal_divider  = (uint32_t)(can_frequency - freq_n) <= (can_frequency - freq_f);
 1120              	 .loc 2 408 0
 1121 008a 7A68     	 ldr r2,[r7,#4]
 1122 008c FB6A     	 ldr r3,[r7,#44]
 1123 008e D21A     	 subs r2,r2,r3
 1124 0090 7968     	 ldr r1,[r7,#4]
 1125 0092 FB69     	 ldr r3,[r7,#28]
 1126 0094 CB1A     	 subs r3,r1,r3
 1127 0096 9A42     	 cmp r2,r3
 1128 0098 94BF     	 ite ls
 1129 009a 0123     	 movls r3,#1
 1130 009c 0023     	 movhi r3,#0
 1131 009e FB76     	 strb r3,[r7,#27]
 409:../Libraries/XMCLib/src/xmc_can.c **** 
 410:../Libraries/XMCLib/src/xmc_can.c ****   step   = (normal_divider != 0U) ? step_n : step_f;
 1132              	 .loc 2 410 0
 1133 00a0 FB7E     	 ldrb r3,[r7,#27]
 1134 00a2 002B     	 cmp r3,#0
 1135 00a4 01D0     	 beq .L51
 1136              	 .loc 2 410 0 is_stmt 0 discriminator 1
 1137 00a6 3B6B     	 ldr r3,[r7,#48]
 1138 00a8 00E0     	 b .L52
 1139              	.L51:
 1140              	 .loc 2 410 0 discriminator 2
 1141 00aa 3B6A     	 ldr r3,[r7,#32]
 1142              	.L52:
 1143              	 .loc 2 410 0 discriminator 4
 1144 00ac 7B61     	 str r3,[r7,#20]
 411:../Libraries/XMCLib/src/xmc_can.c ****   can_divider_mode = (normal_divider != 0U) ? XMC_CAN_DM_NORMAL : XMC_CAN_DM_FRACTIONAL;
 1145              	 .loc 2 411 0 is_stmt 1 discriminator 4
 1146 00ae FB7E     	 ldrb r3,[r7,#27]
 1147 00b0 002B     	 cmp r3,#0
 1148 00b2 01D0     	 beq .L53
 1149              	 .loc 2 411 0 is_stmt 0 discriminator 1
 1150 00b4 0123     	 movs r3,#1
 1151 00b6 00E0     	 b .L54
 1152              	.L53:
 1153              	 .loc 2 411 0 discriminator 2
 1154 00b8 0223     	 movs r3,#2
 1155              	.L54:
 1156              	 .loc 2 411 0 discriminator 4
 1157 00ba FB74     	 strb r3,[r7,#19]
 412:../Libraries/XMCLib/src/xmc_can.c **** 
 413:../Libraries/XMCLib/src/xmc_can.c ****   obj->FDR &= (uint32_t) ~(CAN_FDR_DM_Msk | CAN_FDR_STEP_Msk);
 1158              	 .loc 2 413 0 is_stmt 1 discriminator 4
 1159 00bc FB68     	 ldr r3,[r7,#12]
 1160 00be DB68     	 ldr r3,[r3,#12]
 1161 00c0 23F44343 	 bic r3,r3,#49920
 1162 00c4 23F0FF03 	 bic r3,r3,#255
 1163 00c8 FA68     	 ldr r2,[r7,#12]
 1164 00ca D360     	 str r3,[r2,#12]
 414:../Libraries/XMCLib/src/xmc_can.c ****   obj->FDR |= ((uint32_t)can_divider_mode << CAN_FDR_DM_Pos) | ((uint32_t)step << CAN_FDR_STEP_Pos)
 1165              	 .loc 2 414 0 discriminator 4
 1166 00cc FB68     	 ldr r3,[r7,#12]
 1167 00ce DA68     	 ldr r2,[r3,#12]
 1168 00d0 FB7C     	 ldrb r3,[r7,#19]
 1169 00d2 9903     	 lsls r1,r3,#14
 1170 00d4 7B69     	 ldr r3,[r7,#20]
 1171 00d6 0B43     	 orrs r3,r3,r1
 1172 00d8 1A43     	 orrs r2,r2,r3
 1173 00da FB68     	 ldr r3,[r7,#12]
 1174 00dc DA60     	 str r2,[r3,#12]
 415:../Libraries/XMCLib/src/xmc_can.c **** 
 416:../Libraries/XMCLib/src/xmc_can.c **** }
 1175              	 .loc 2 416 0 discriminator 4
 1176 00de 3837     	 adds r7,r7,#56
 1177              	.LCFI64:
 1178              	 .cfi_def_cfa_offset 8
 1179 00e0 BD46     	 mov sp,r7
 1180              	.LCFI65:
 1181              	 .cfi_def_cfa_register 13
 1182              	 
 1183 00e2 80BD     	 pop {r7,pc}
 1184              	 .cfi_endproc
 1185              	.LFE239:
 1187              	 .section .text.XMC_CAN_SetBaudrateClockSource,"ax",%progbits
 1188              	 .align 2
 1189              	 .global XMC_CAN_SetBaudrateClockSource
 1190              	 .thumb
 1191              	 .thumb_func
 1193              	XMC_CAN_SetBaudrateClockSource:
 1194              	.LFB240:
 417:../Libraries/XMCLib/src/xmc_can.c **** 
 418:../Libraries/XMCLib/src/xmc_can.c **** #else
 419:../Libraries/XMCLib/src/xmc_can.c **** /* Initialization of XMC_CAN GLOBAL Object */
 420:../Libraries/XMCLib/src/xmc_can.c **** void XMC_CAN_Init(XMC_CAN_t *const obj, uint32_t can_frequency)
 421:../Libraries/XMCLib/src/xmc_can.c **** {
 422:../Libraries/XMCLib/src/xmc_can.c ****   uint32_t  step_n, step_f;
 423:../Libraries/XMCLib/src/xmc_can.c ****   bool normal_divider;
 424:../Libraries/XMCLib/src/xmc_can.c ****   uint32_t freq_n, freq_f;
 425:../Libraries/XMCLib/src/xmc_can.c ****   uint32_t step;
 426:../Libraries/XMCLib/src/xmc_can.c ****   uint32_t can_frequency_khz;
 427:../Libraries/XMCLib/src/xmc_can.c ****   uint32_t peripheral_frequency_khz;
 428:../Libraries/XMCLib/src/xmc_can.c ****   XMC_CAN_DM_t can_divider_mode;
 429:../Libraries/XMCLib/src/xmc_can.c **** 
 430:../Libraries/XMCLib/src/xmc_can.c ****   uint32_t peripheral_frequency = (XMC_SCU_CLOCK_GetPeripheralClockFrequency());
 431:../Libraries/XMCLib/src/xmc_can.c **** 
 432:../Libraries/XMCLib/src/xmc_can.c ****   XMC_ASSERT("XMC_CAN_Init: frequency not supported", can_frequency <= peripheral_frequency);
 433:../Libraries/XMCLib/src/xmc_can.c **** 
 434:../Libraries/XMCLib/src/xmc_can.c ****   /*Enabling the module*/
 435:../Libraries/XMCLib/src/xmc_can.c ****   XMC_CAN_Enable(obj);
 436:../Libraries/XMCLib/src/xmc_can.c **** 
 437:../Libraries/XMCLib/src/xmc_can.c ****   /* Normal divider mode */
 438:../Libraries/XMCLib/src/xmc_can.c ****   step_n = (uint32_t)min(max(0U, (1024U - (peripheral_frequency / can_frequency))), 1023U);
 439:../Libraries/XMCLib/src/xmc_can.c ****   freq_n = (uint32_t) (peripheral_frequency / (1024U - step_n));
 440:../Libraries/XMCLib/src/xmc_can.c **** 
 441:../Libraries/XMCLib/src/xmc_can.c ****   /* Fractional divider mode */
 442:../Libraries/XMCLib/src/xmc_can.c ****   can_frequency_khz = (uint32_t) (can_frequency >> 6);
 443:../Libraries/XMCLib/src/xmc_can.c ****   peripheral_frequency_khz = (uint32_t)(peripheral_frequency >> 6);
 444:../Libraries/XMCLib/src/xmc_can.c **** 
 445:../Libraries/XMCLib/src/xmc_can.c ****   step_f = (uint32_t)(min( (((1024U * can_frequency_khz) / peripheral_frequency_khz) ), 1023U ));
 446:../Libraries/XMCLib/src/xmc_can.c ****   freq_f = (uint32_t)((peripheral_frequency_khz * step_f) / 1024U);
 447:../Libraries/XMCLib/src/xmc_can.c ****   freq_f = freq_f << 6;
 448:../Libraries/XMCLib/src/xmc_can.c **** 
 449:../Libraries/XMCLib/src/xmc_can.c ****   normal_divider  = (uint32_t)(can_frequency - freq_n) <= (can_frequency - freq_f);
 450:../Libraries/XMCLib/src/xmc_can.c **** 
 451:../Libraries/XMCLib/src/xmc_can.c ****   step   = (normal_divider != 0U) ? step_n : step_f;
 452:../Libraries/XMCLib/src/xmc_can.c ****   can_divider_mode = (normal_divider != 0U) ? XMC_CAN_DM_NORMAL : XMC_CAN_DM_FRACTIONAL;
 453:../Libraries/XMCLib/src/xmc_can.c **** 
 454:../Libraries/XMCLib/src/xmc_can.c ****   obj->FDR &= (uint32_t) ~(CAN_FDR_DM_Msk | CAN_FDR_STEP_Msk);
 455:../Libraries/XMCLib/src/xmc_can.c ****   obj->FDR |= ((uint32_t)can_divider_mode << CAN_FDR_DM_Pos) | ((uint32_t)step << CAN_FDR_STEP_Pos)
 456:../Libraries/XMCLib/src/xmc_can.c **** }
 457:../Libraries/XMCLib/src/xmc_can.c **** #endif
 458:../Libraries/XMCLib/src/xmc_can.c **** 
 459:../Libraries/XMCLib/src/xmc_can.c **** void XMC_CAN_SetBaudrateClockSource(XMC_CAN_t *const obj, const XMC_CAN_CANCLKSRC_t source)
 460:../Libraries/XMCLib/src/xmc_can.c **** {
 1195              	 .loc 2 460 0
 1196              	 .cfi_startproc
 1197              	 
 1198              	 
 1199              	 
 1200 0000 80B4     	 push {r7}
 1201              	.LCFI66:
 1202              	 .cfi_def_cfa_offset 4
 1203              	 .cfi_offset 7,-4
 1204 0002 83B0     	 sub sp,sp,#12
 1205              	.LCFI67:
 1206              	 .cfi_def_cfa_offset 16
 1207 0004 00AF     	 add r7,sp,#0
 1208              	.LCFI68:
 1209              	 .cfi_def_cfa_register 7
 1210 0006 7860     	 str r0,[r7,#4]
 1211 0008 0B46     	 mov r3,r1
 1212 000a FB70     	 strb r3,[r7,#3]
 461:../Libraries/XMCLib/src/xmc_can.c **** #if defined(MULTICAN_PLUS)
 462:../Libraries/XMCLib/src/xmc_can.c ****   obj->MCR = (obj->MCR & ~CAN_MCR_CLKSEL_Msk) | source ;
 1213              	 .loc 2 462 0
 1214 000c 7B68     	 ldr r3,[r7,#4]
 1215 000e D3F8C831 	 ldr r3,[r3,#456]
 1216 0012 23F00F02 	 bic r2,r3,#15
 1217 0016 FB78     	 ldrb r3,[r7,#3]
 1218 0018 1A43     	 orrs r2,r2,r3
 1219 001a 7B68     	 ldr r3,[r7,#4]
 1220 001c C3F8C821 	 str r2,[r3,#456]
 463:../Libraries/XMCLib/src/xmc_can.c **** #else
 464:../Libraries/XMCLib/src/xmc_can.c ****   XMC_UNUSED_ARG(obj);
 465:../Libraries/XMCLib/src/xmc_can.c ****   XMC_UNUSED_ARG(source);
 466:../Libraries/XMCLib/src/xmc_can.c **** #endif
 467:../Libraries/XMCLib/src/xmc_can.c **** }
 1221              	 .loc 2 467 0
 1222 0020 0C37     	 adds r7,r7,#12
 1223              	.LCFI69:
 1224              	 .cfi_def_cfa_offset 4
 1225 0022 BD46     	 mov sp,r7
 1226              	.LCFI70:
 1227              	 .cfi_def_cfa_register 13
 1228              	 
 1229 0024 5DF8047B 	 ldr r7,[sp],#4
 1230              	.LCFI71:
 1231              	 .cfi_restore 7
 1232              	 .cfi_def_cfa_offset 0
 1233 0028 7047     	 bx lr
 1234              	 .cfi_endproc
 1235              	.LFE240:
 1237 002a 00BF     	 .section .text.XMC_CAN_GetBaudrateClockSource,"ax",%progbits
 1238              	 .align 2
 1239              	 .global XMC_CAN_GetBaudrateClockSource
 1240              	 .thumb
 1241              	 .thumb_func
