   1              	 .syntax unified
   2              	 .cpu cortex-m4
   3              	 .eabi_attribute 27,3
   4              	 .fpu fpv4-sp-d16
   5              	 .eabi_attribute 20,1
   6              	 .eabi_attribute 21,1
   7              	 .eabi_attribute 23,3
   8              	 .eabi_attribute 24,1
   9              	 .eabi_attribute 25,1
  10              	 .eabi_attribute 26,1
  11              	 .eabi_attribute 30,6
  12              	 .eabi_attribute 34,1
  13              	 .eabi_attribute 18,4
  14              	 .thumb
  15              	 .file "xmc_eth_mac.c"
  16              	 .text
  17              	.Ltext0:
  18              	 .cfi_sections .debug_frame
  19              	 .section .text.XMC_ETH_MAC_Reset,"ax",%progbits
  20              	 .align 2
  21              	 .thumb
  22              	 .thumb_func
  24              	XMC_ETH_MAC_Reset:
  25              	.LFB133:
  26              	 .file 1 "D:/Workspace/Development/my/DAVE/Infineon_CANopen/Libraries/XMCLib/inc/xmc_eth_mac.h"
   1:D:/Workspace/Development/my/DAVE/Infineon_CANopen/Libraries/XMCLib/inc\xmc_eth_mac.h **** 
   2:D:/Workspace/Development/my/DAVE/Infineon_CANopen/Libraries/XMCLib/inc\xmc_eth_mac.h **** /**
   3:D:/Workspace/Development/my/DAVE/Infineon_CANopen/Libraries/XMCLib/inc\xmc_eth_mac.h ****  * @file xmc_eth_mac.h
   4:D:/Workspace/Development/my/DAVE/Infineon_CANopen/Libraries/XMCLib/inc\xmc_eth_mac.h ****  * @date 2019-12-16
   5:D:/Workspace/Development/my/DAVE/Infineon_CANopen/Libraries/XMCLib/inc\xmc_eth_mac.h ****  *
   6:D:/Workspace/Development/my/DAVE/Infineon_CANopen/Libraries/XMCLib/inc\xmc_eth_mac.h ****  * @cond
   7:D:/Workspace/Development/my/DAVE/Infineon_CANopen/Libraries/XMCLib/inc\xmc_eth_mac.h ****  *****************************************************************************
   8:D:/Workspace/Development/my/DAVE/Infineon_CANopen/Libraries/XMCLib/inc\xmc_eth_mac.h ****  * XMClib v2.2.0 - XMC Peripheral Driver Library
   9:D:/Workspace/Development/my/DAVE/Infineon_CANopen/Libraries/XMCLib/inc\xmc_eth_mac.h ****  *
  10:D:/Workspace/Development/my/DAVE/Infineon_CANopen/Libraries/XMCLib/inc\xmc_eth_mac.h ****  * Copyright (c) 2015-2020, Infineon Technologies AG
  11:D:/Workspace/Development/my/DAVE/Infineon_CANopen/Libraries/XMCLib/inc\xmc_eth_mac.h ****  * All rights reserved.
  12:D:/Workspace/Development/my/DAVE/Infineon_CANopen/Libraries/XMCLib/inc\xmc_eth_mac.h ****  *
  13:D:/Workspace/Development/my/DAVE/Infineon_CANopen/Libraries/XMCLib/inc\xmc_eth_mac.h ****  * Boost Software License - Version 1.0 - August 17th, 2003
  14:D:/Workspace/Development/my/DAVE/Infineon_CANopen/Libraries/XMCLib/inc\xmc_eth_mac.h ****  *
  15:D:/Workspace/Development/my/DAVE/Infineon_CANopen/Libraries/XMCLib/inc\xmc_eth_mac.h ****  * Permission is hereby granted, free of charge, to any person or organization
  16:D:/Workspace/Development/my/DAVE/Infineon_CANopen/Libraries/XMCLib/inc\xmc_eth_mac.h ****  * obtaining a copy of the software and accompanying documentation covered by
  17:D:/Workspace/Development/my/DAVE/Infineon_CANopen/Libraries/XMCLib/inc\xmc_eth_mac.h ****  * this license (the "Software") to use, reproduce, display, distribute,
  18:D:/Workspace/Development/my/DAVE/Infineon_CANopen/Libraries/XMCLib/inc\xmc_eth_mac.h ****  * execute, and transmit the Software, and to prepare derivative works of the
  19:D:/Workspace/Development/my/DAVE/Infineon_CANopen/Libraries/XMCLib/inc\xmc_eth_mac.h ****  * Software, and to permit third-parties to whom the Software is furnished to
  20:D:/Workspace/Development/my/DAVE/Infineon_CANopen/Libraries/XMCLib/inc\xmc_eth_mac.h ****  * do so, all subject to the following:
  21:D:/Workspace/Development/my/DAVE/Infineon_CANopen/Libraries/XMCLib/inc\xmc_eth_mac.h ****  *
  22:D:/Workspace/Development/my/DAVE/Infineon_CANopen/Libraries/XMCLib/inc\xmc_eth_mac.h ****  * The copyright notices in the Software and this entire statement, including
  23:D:/Workspace/Development/my/DAVE/Infineon_CANopen/Libraries/XMCLib/inc\xmc_eth_mac.h ****  * the above license grant, this restriction and the following disclaimer,
  24:D:/Workspace/Development/my/DAVE/Infineon_CANopen/Libraries/XMCLib/inc\xmc_eth_mac.h ****  * must be included in all copies of the Software, in whole or in part, and
  25:D:/Workspace/Development/my/DAVE/Infineon_CANopen/Libraries/XMCLib/inc\xmc_eth_mac.h ****  * all derivative works of the Software, unless such copies or derivative
  26:D:/Workspace/Development/my/DAVE/Infineon_CANopen/Libraries/XMCLib/inc\xmc_eth_mac.h ****  * works are solely in the form of machine-executable object code generated by
  27:D:/Workspace/Development/my/DAVE/Infineon_CANopen/Libraries/XMCLib/inc\xmc_eth_mac.h ****  * a source language processor.
  28:D:/Workspace/Development/my/DAVE/Infineon_CANopen/Libraries/XMCLib/inc\xmc_eth_mac.h ****  *
  29:D:/Workspace/Development/my/DAVE/Infineon_CANopen/Libraries/XMCLib/inc\xmc_eth_mac.h ****  * THE SOFTWARE IS PROVIDED "AS IS", WITHOUT WARRANTY OF ANY KIND, EXPRESS OR
  30:D:/Workspace/Development/my/DAVE/Infineon_CANopen/Libraries/XMCLib/inc\xmc_eth_mac.h ****  * IMPLIED, INCLUDING BUT NOT LIMITED TO THE WARRANTIES OF MERCHANTABILITY,
  31:D:/Workspace/Development/my/DAVE/Infineon_CANopen/Libraries/XMCLib/inc\xmc_eth_mac.h ****  * FITNESS FOR A PARTICULAR PURPOSE, TITLE AND NON-INFRINGEMENT. IN NO EVENT
  32:D:/Workspace/Development/my/DAVE/Infineon_CANopen/Libraries/XMCLib/inc\xmc_eth_mac.h ****  * SHALL THE COPYRIGHT HOLDERS OR ANYONE DISTRIBUTING THE SOFTWARE BE LIABLE
  33:D:/Workspace/Development/my/DAVE/Infineon_CANopen/Libraries/XMCLib/inc\xmc_eth_mac.h ****  * FOR ANY DAMAGES OR OTHER LIABILITY, WHETHER IN CONTRACT, TORT OR OTHERWISE,
  34:D:/Workspace/Development/my/DAVE/Infineon_CANopen/Libraries/XMCLib/inc\xmc_eth_mac.h ****  * ARISING FROM, OUT OF OR IN CONNECTION WITH THE SOFTWARE OR THE USE OR OTHER
  35:D:/Workspace/Development/my/DAVE/Infineon_CANopen/Libraries/XMCLib/inc\xmc_eth_mac.h ****  * DEALINGS IN THE SOFTWARE.
  36:D:/Workspace/Development/my/DAVE/Infineon_CANopen/Libraries/XMCLib/inc\xmc_eth_mac.h ****  *
  37:D:/Workspace/Development/my/DAVE/Infineon_CANopen/Libraries/XMCLib/inc\xmc_eth_mac.h ****  * To improve the quality of the software, users are encouraged to share
  38:D:/Workspace/Development/my/DAVE/Infineon_CANopen/Libraries/XMCLib/inc\xmc_eth_mac.h ****  * modifications, enhancements or bug fixes with Infineon Technologies AG
  39:D:/Workspace/Development/my/DAVE/Infineon_CANopen/Libraries/XMCLib/inc\xmc_eth_mac.h ****  * at XMCSupport@infineon.com.
  40:D:/Workspace/Development/my/DAVE/Infineon_CANopen/Libraries/XMCLib/inc\xmc_eth_mac.h ****  *****************************************************************************
  41:D:/Workspace/Development/my/DAVE/Infineon_CANopen/Libraries/XMCLib/inc\xmc_eth_mac.h ****  *
  42:D:/Workspace/Development/my/DAVE/Infineon_CANopen/Libraries/XMCLib/inc\xmc_eth_mac.h ****  * Change History
  43:D:/Workspace/Development/my/DAVE/Infineon_CANopen/Libraries/XMCLib/inc\xmc_eth_mac.h ****  * --------------
  44:D:/Workspace/Development/my/DAVE/Infineon_CANopen/Libraries/XMCLib/inc\xmc_eth_mac.h ****  *
  45:D:/Workspace/Development/my/DAVE/Infineon_CANopen/Libraries/XMCLib/inc\xmc_eth_mac.h ****  * 2015-06-20:
  46:D:/Workspace/Development/my/DAVE/Infineon_CANopen/Libraries/XMCLib/inc\xmc_eth_mac.h ****  *     - Initial
  47:D:/Workspace/Development/my/DAVE/Infineon_CANopen/Libraries/XMCLib/inc\xmc_eth_mac.h ****  *
  48:D:/Workspace/Development/my/DAVE/Infineon_CANopen/Libraries/XMCLib/inc\xmc_eth_mac.h ****  * 2016-04-25:
  49:D:/Workspace/Development/my/DAVE/Infineon_CANopen/Libraries/XMCLib/inc\xmc_eth_mac.h ****  *     - Change XMC_ETH_MAC_BUF_SIZE to 1524 to allow for Tagged MAC frame format
  50:D:/Workspace/Development/my/DAVE/Infineon_CANopen/Libraries/XMCLib/inc\xmc_eth_mac.h ****  *
  51:D:/Workspace/Development/my/DAVE/Infineon_CANopen/Libraries/XMCLib/inc\xmc_eth_mac.h ****  * 2016-05-19:
  52:D:/Workspace/Development/my/DAVE/Infineon_CANopen/Libraries/XMCLib/inc\xmc_eth_mac.h ****  *      - Added XMC_ETH_MAC_GetTxBuffer() and XMC_ETH_MAC_GetRxBuffer()
  53:D:/Workspace/Development/my/DAVE/Infineon_CANopen/Libraries/XMCLib/inc\xmc_eth_mac.h ****  *      - Added XMC_ETH_MAC_SetTxBufferSize()
  54:D:/Workspace/Development/my/DAVE/Infineon_CANopen/Libraries/XMCLib/inc\xmc_eth_mac.h ****  *
  55:D:/Workspace/Development/my/DAVE/Infineon_CANopen/Libraries/XMCLib/inc\xmc_eth_mac.h ****  * 2016-06-08:
  56:D:/Workspace/Development/my/DAVE/Infineon_CANopen/Libraries/XMCLib/inc\xmc_eth_mac.h ****  *      - Added XMC_ETH_MAC_IsRxDescriptorOwnedByDma()
  57:D:/Workspace/Development/my/DAVE/Infineon_CANopen/Libraries/XMCLib/inc\xmc_eth_mac.h ****  *
  58:D:/Workspace/Development/my/DAVE/Infineon_CANopen/Libraries/XMCLib/inc\xmc_eth_mac.h ****  * 2017-02-25:
  59:D:/Workspace/Development/my/DAVE/Infineon_CANopen/Libraries/XMCLib/inc\xmc_eth_mac.h ****  *      - XMC_ETH_MAC_SetPortControl() fixed compilation warning
  60:D:/Workspace/Development/my/DAVE/Infineon_CANopen/Libraries/XMCLib/inc\xmc_eth_mac.h ****  *
  61:D:/Workspace/Development/my/DAVE/Infineon_CANopen/Libraries/XMCLib/inc\xmc_eth_mac.h ****  * 2017-04-02:
  62:D:/Workspace/Development/my/DAVE/Infineon_CANopen/Libraries/XMCLib/inc\xmc_eth_mac.h ****  *     - Added XMC_ETH_MAC_InitPTPEx()
  63:D:/Workspace/Development/my/DAVE/Infineon_CANopen/Libraries/XMCLib/inc\xmc_eth_mac.h ****  *     - Added XMC_ETH_MAC_SetPTPTime()
  64:D:/Workspace/Development/my/DAVE/Infineon_CANopen/Libraries/XMCLib/inc\xmc_eth_mac.h ****  *     - Added XMC_ETH_MAC_UpdateAddend()
  65:D:/Workspace/Development/my/DAVE/Infineon_CANopen/Libraries/XMCLib/inc\xmc_eth_mac.h ****  *
  66:D:/Workspace/Development/my/DAVE/Infineon_CANopen/Libraries/XMCLib/inc\xmc_eth_mac.h ****  * 2017-04-11:
  67:D:/Workspace/Development/my/DAVE/Infineon_CANopen/Libraries/XMCLib/inc\xmc_eth_mac.h ****  *     - Added XMC_ETH_MAC_EnablePTPAlarm() and XMC_ETH_MAC_DisablePTPAlarm
  68:D:/Workspace/Development/my/DAVE/Infineon_CANopen/Libraries/XMCLib/inc\xmc_eth_mac.h ****  *
  69:D:/Workspace/Development/my/DAVE/Infineon_CANopen/Libraries/XMCLib/inc\xmc_eth_mac.h ****  * 2017-04-17:
  70:D:/Workspace/Development/my/DAVE/Infineon_CANopen/Libraries/XMCLib/inc\xmc_eth_mac.h ****  *     - Fixed ordering of PTP nanoseconds and seconds in XMC_ETH_MAC_DMA_DESC_t
  71:D:/Workspace/Development/my/DAVE/Infineon_CANopen/Libraries/XMCLib/inc\xmc_eth_mac.h ****  *
  72:D:/Workspace/Development/my/DAVE/Infineon_CANopen/Libraries/XMCLib/inc\xmc_eth_mac.h ****  * 2017-08-07:
  73:D:/Workspace/Development/my/DAVE/Infineon_CANopen/Libraries/XMCLib/inc\xmc_eth_mac.h ****  *     - Added XMC_ETH_MAC_TIMESTAMP_STATUS_t
  74:D:/Workspace/Development/my/DAVE/Infineon_CANopen/Libraries/XMCLib/inc\xmc_eth_mac.h ****  *
  75:D:/Workspace/Development/my/DAVE/Infineon_CANopen/Libraries/XMCLib/inc\xmc_eth_mac.h ****  * 2017-09-27:
  76:D:/Workspace/Development/my/DAVE/Infineon_CANopen/Libraries/XMCLib/inc\xmc_eth_mac.h ****  *     - Added XMC_ETH_MAC_InitEx()
  77:D:/Workspace/Development/my/DAVE/Infineon_CANopen/Libraries/XMCLib/inc\xmc_eth_mac.h ****  *     - XMC_ETH_MAC_SetAddressEx(), XMC_ETH_MAC_GetAddressEx() and XMC_ETH_MAC_SetAddressPerfectFi
  78:D:/Workspace/Development/my/DAVE/Infineon_CANopen/Libraries/XMCLib/inc\xmc_eth_mac.h ****  *
  79:D:/Workspace/Development/my/DAVE/Infineon_CANopen/Libraries/XMCLib/inc\xmc_eth_mac.h ****  * 2018-06-21:
  80:D:/Workspace/Development/my/DAVE/Infineon_CANopen/Libraries/XMCLib/inc\xmc_eth_mac.h ****  *     - Changed definition of XMC_ETH_MAC_DMA_DESC_t declaring its fields volatile
  81:D:/Workspace/Development/my/DAVE/Infineon_CANopen/Libraries/XMCLib/inc\xmc_eth_mac.h ****  *
  82:D:/Workspace/Development/my/DAVE/Infineon_CANopen/Libraries/XMCLib/inc\xmc_eth_mac.h ****  * 2018-08-08:
  83:D:/Workspace/Development/my/DAVE/Infineon_CANopen/Libraries/XMCLib/inc\xmc_eth_mac.h ****  *     - Fixed XMC_ETH_MAC_SetVLANTag() which now accepts a 32bit tag parameter that allows setting
  84:D:/Workspace/Development/my/DAVE/Infineon_CANopen/Libraries/XMCLib/inc\xmc_eth_mac.h ****  *
  85:D:/Workspace/Development/my/DAVE/Infineon_CANopen/Libraries/XMCLib/inc\xmc_eth_mac.h ****  * 2019-12-16:
  86:D:/Workspace/Development/my/DAVE/Infineon_CANopen/Libraries/XMCLib/inc\xmc_eth_mac.h ****  *     - Fixed addr parameter qualifier for XMC_ETH_MAC_SetAddressEx()
  87:D:/Workspace/Development/my/DAVE/Infineon_CANopen/Libraries/XMCLib/inc\xmc_eth_mac.h ****  *     - Added XMC_ETH_MAC_IsTxDescriptorOwnedByDmaEx()
  88:D:/Workspace/Development/my/DAVE/Infineon_CANopen/Libraries/XMCLib/inc\xmc_eth_mac.h ****  *     - Added XMC_ETH_MAC_GetCurrentTxDescIndex(), XMC_ETH_MAC_GetCurrentRxDescIndex()
  89:D:/Workspace/Development/my/DAVE/Infineon_CANopen/Libraries/XMCLib/inc\xmc_eth_mac.h ****  *     - Added XMC_ETH_MAC_GetTxBufferEx(), XMC_ETH_MAC_SetTxBuffer(), XMC_ETH_MAC_SetTxBufferEx()
  90:D:/Workspace/Development/my/DAVE/Infineon_CANopen/Libraries/XMCLib/inc\xmc_eth_mac.h ****  *     - Added XMC_ETH_MAC_SetRxBuffer(), XMC_ETH_MAC_SetRxBufferEx()
  91:D:/Workspace/Development/my/DAVE/Infineon_CANopen/Libraries/XMCLib/inc\xmc_eth_mac.h ****  *     - Added XMC_ETH_MAC_SetTxBufferSizeEx()
  92:D:/Workspace/Development/my/DAVE/Infineon_CANopen/Libraries/XMCLib/inc\xmc_eth_mac.h ****  *
  93:D:/Workspace/Development/my/DAVE/Infineon_CANopen/Libraries/XMCLib/inc\xmc_eth_mac.h ****  * 2020-11-12:
  94:D:/Workspace/Development/my/DAVE/Infineon_CANopen/Libraries/XMCLib/inc\xmc_eth_mac.h ****  *     - Fixed XMC_ETH_MAC_GetAddress()
  95:D:/Workspace/Development/my/DAVE/Infineon_CANopen/Libraries/XMCLib/inc\xmc_eth_mac.h ****  * 
  96:D:/Workspace/Development/my/DAVE/Infineon_CANopen/Libraries/XMCLib/inc\xmc_eth_mac.h ****  * @endcond
  97:D:/Workspace/Development/my/DAVE/Infineon_CANopen/Libraries/XMCLib/inc\xmc_eth_mac.h ****  */
  98:D:/Workspace/Development/my/DAVE/Infineon_CANopen/Libraries/XMCLib/inc\xmc_eth_mac.h **** 
  99:D:/Workspace/Development/my/DAVE/Infineon_CANopen/Libraries/XMCLib/inc\xmc_eth_mac.h **** /**
 100:D:/Workspace/Development/my/DAVE/Infineon_CANopen/Libraries/XMCLib/inc\xmc_eth_mac.h ****  * @addtogroup XMClib XMC Peripheral Library
 101:D:/Workspace/Development/my/DAVE/Infineon_CANopen/Libraries/XMCLib/inc\xmc_eth_mac.h ****  * @{
 102:D:/Workspace/Development/my/DAVE/Infineon_CANopen/Libraries/XMCLib/inc\xmc_eth_mac.h ****  */
 103:D:/Workspace/Development/my/DAVE/Infineon_CANopen/Libraries/XMCLib/inc\xmc_eth_mac.h **** 
 104:D:/Workspace/Development/my/DAVE/Infineon_CANopen/Libraries/XMCLib/inc\xmc_eth_mac.h **** /**
 105:D:/Workspace/Development/my/DAVE/Infineon_CANopen/Libraries/XMCLib/inc\xmc_eth_mac.h ****  * @addtogroup ETH_MAC
 106:D:/Workspace/Development/my/DAVE/Infineon_CANopen/Libraries/XMCLib/inc\xmc_eth_mac.h ****  * @brief Ethernet Low level driver for XMC4000 microcontroller family.
 107:D:/Workspace/Development/my/DAVE/Infineon_CANopen/Libraries/XMCLib/inc\xmc_eth_mac.h ****  *
 108:D:/Workspace/Development/my/DAVE/Infineon_CANopen/Libraries/XMCLib/inc\xmc_eth_mac.h ****  * The Ethernet MAC (ETH) is a major communication peripheral that supports 10/100
 109:D:/Workspace/Development/my/DAVE/Infineon_CANopen/Libraries/XMCLib/inc\xmc_eth_mac.h ****  * MBit/s data transfer rates in compliance with the IEEE 802.3-2002 standard. The ETH
 110:D:/Workspace/Development/my/DAVE/Infineon_CANopen/Libraries/XMCLib/inc\xmc_eth_mac.h ****  * may be used to implement internet connected applications using IPv4 and IPv6. The
 111:D:/Workspace/Development/my/DAVE/Infineon_CANopen/Libraries/XMCLib/inc\xmc_eth_mac.h ****  * ETH also includes support for IEEE1588 time synchronisation to allow implementation
 112:D:/Workspace/Development/my/DAVE/Infineon_CANopen/Libraries/XMCLib/inc\xmc_eth_mac.h ****  * of Real Time Ethernet protocols.
 113:D:/Workspace/Development/my/DAVE/Infineon_CANopen/Libraries/XMCLib/inc\xmc_eth_mac.h ****  *
 114:D:/Workspace/Development/my/DAVE/Infineon_CANopen/Libraries/XMCLib/inc\xmc_eth_mac.h ****  * The XMC_ETH_MAC low level driver provides functions to configure and initialize
 115:D:/Workspace/Development/my/DAVE/Infineon_CANopen/Libraries/XMCLib/inc\xmc_eth_mac.h ****  * the ETH_MAC hardware peripheral.
 116:D:/Workspace/Development/my/DAVE/Infineon_CANopen/Libraries/XMCLib/inc\xmc_eth_mac.h ****  * @{
 117:D:/Workspace/Development/my/DAVE/Infineon_CANopen/Libraries/XMCLib/inc\xmc_eth_mac.h ****  */
 118:D:/Workspace/Development/my/DAVE/Infineon_CANopen/Libraries/XMCLib/inc\xmc_eth_mac.h **** 
 119:D:/Workspace/Development/my/DAVE/Infineon_CANopen/Libraries/XMCLib/inc\xmc_eth_mac.h **** #ifndef XMC_ETH_MAC_H
 120:D:/Workspace/Development/my/DAVE/Infineon_CANopen/Libraries/XMCLib/inc\xmc_eth_mac.h **** #define XMC_ETH_MAC_H
 121:D:/Workspace/Development/my/DAVE/Infineon_CANopen/Libraries/XMCLib/inc\xmc_eth_mac.h **** 
 122:D:/Workspace/Development/my/DAVE/Infineon_CANopen/Libraries/XMCLib/inc\xmc_eth_mac.h **** /**************************************************************************************************
 123:D:/Workspace/Development/my/DAVE/Infineon_CANopen/Libraries/XMCLib/inc\xmc_eth_mac.h ****  * HEADER FILES
 124:D:/Workspace/Development/my/DAVE/Infineon_CANopen/Libraries/XMCLib/inc\xmc_eth_mac.h ****  **************************************************************************************************
 125:D:/Workspace/Development/my/DAVE/Infineon_CANopen/Libraries/XMCLib/inc\xmc_eth_mac.h **** 
 126:D:/Workspace/Development/my/DAVE/Infineon_CANopen/Libraries/XMCLib/inc\xmc_eth_mac.h **** #include "xmc_common.h"
 127:D:/Workspace/Development/my/DAVE/Infineon_CANopen/Libraries/XMCLib/inc\xmc_eth_mac.h **** 
 128:D:/Workspace/Development/my/DAVE/Infineon_CANopen/Libraries/XMCLib/inc\xmc_eth_mac.h **** #if defined (ETH0)
 129:D:/Workspace/Development/my/DAVE/Infineon_CANopen/Libraries/XMCLib/inc\xmc_eth_mac.h **** 
 130:D:/Workspace/Development/my/DAVE/Infineon_CANopen/Libraries/XMCLib/inc\xmc_eth_mac.h **** #include "xmc_eth_mac_map.h"
 131:D:/Workspace/Development/my/DAVE/Infineon_CANopen/Libraries/XMCLib/inc\xmc_eth_mac.h **** 
 132:D:/Workspace/Development/my/DAVE/Infineon_CANopen/Libraries/XMCLib/inc\xmc_eth_mac.h **** /**************************************************************************************************
 133:D:/Workspace/Development/my/DAVE/Infineon_CANopen/Libraries/XMCLib/inc\xmc_eth_mac.h ****  * MACROS
 134:D:/Workspace/Development/my/DAVE/Infineon_CANopen/Libraries/XMCLib/inc\xmc_eth_mac.h ****  **************************************************************************************************
 135:D:/Workspace/Development/my/DAVE/Infineon_CANopen/Libraries/XMCLib/inc\xmc_eth_mac.h **** 
 136:D:/Workspace/Development/my/DAVE/Infineon_CANopen/Libraries/XMCLib/inc\xmc_eth_mac.h **** #define XMC_ETH_MAC_BUF_SIZE           (1524)     /**< ETH MAC buffer size */
 137:D:/Workspace/Development/my/DAVE/Infineon_CANopen/Libraries/XMCLib/inc\xmc_eth_mac.h **** #define XMC_ETH_MAC_PHY_MAX_RETRIES    (0xffffUL) /**< Maximum retries */
 138:D:/Workspace/Development/my/DAVE/Infineon_CANopen/Libraries/XMCLib/inc\xmc_eth_mac.h **** #define XMC_ETH_WAKEUP_REGISTER_LENGTH (8U)       /**< Remote wakeup frame reg length */
 139:D:/Workspace/Development/my/DAVE/Infineon_CANopen/Libraries/XMCLib/inc\xmc_eth_mac.h **** 
 140:D:/Workspace/Development/my/DAVE/Infineon_CANopen/Libraries/XMCLib/inc\xmc_eth_mac.h **** /**
 141:D:/Workspace/Development/my/DAVE/Infineon_CANopen/Libraries/XMCLib/inc\xmc_eth_mac.h ****  * TDES0 Descriptor TX Packet Control/Status
 142:D:/Workspace/Development/my/DAVE/Infineon_CANopen/Libraries/XMCLib/inc\xmc_eth_mac.h ****  */
 143:D:/Workspace/Development/my/DAVE/Infineon_CANopen/Libraries/XMCLib/inc\xmc_eth_mac.h **** #define ETH_MAC_DMA_TDES0_OWN  (0x80000000U) /**< Own bit 1=DMA, 0=CPU */
 144:D:/Workspace/Development/my/DAVE/Infineon_CANopen/Libraries/XMCLib/inc\xmc_eth_mac.h **** #define ETH_MAC_DMA_TDES0_IC   (0x40000000U) /**< Interrupt on competition */
 145:D:/Workspace/Development/my/DAVE/Infineon_CANopen/Libraries/XMCLib/inc\xmc_eth_mac.h **** #define ETH_MAC_DMA_TDES0_LS   (0x20000000U) /**< Last segment */
 146:D:/Workspace/Development/my/DAVE/Infineon_CANopen/Libraries/XMCLib/inc\xmc_eth_mac.h **** #define ETH_MAC_DMA_TDES0_FS   (0x10000000U) /**< First segment */
 147:D:/Workspace/Development/my/DAVE/Infineon_CANopen/Libraries/XMCLib/inc\xmc_eth_mac.h **** #define ETH_MAC_DMA_TDES0_DC   (0x08000000U) /**< Disable CRC */
 148:D:/Workspace/Development/my/DAVE/Infineon_CANopen/Libraries/XMCLib/inc\xmc_eth_mac.h **** #define ETH_MAC_DMA_TDES0_DP   (0x04000000U) /**< Disable pad */
 149:D:/Workspace/Development/my/DAVE/Infineon_CANopen/Libraries/XMCLib/inc\xmc_eth_mac.h **** #define ETH_MAC_DMA_TDES0_TTSE (0x02000000U) /**< Transmit time stamp enable */
 150:D:/Workspace/Development/my/DAVE/Infineon_CANopen/Libraries/XMCLib/inc\xmc_eth_mac.h **** #define ETH_MAC_DMA_TDES0_CIC  (0x00C00000U) /**< Checksum insertion control */
 151:D:/Workspace/Development/my/DAVE/Infineon_CANopen/Libraries/XMCLib/inc\xmc_eth_mac.h **** #define ETH_MAC_DMA_TDES0_TER  (0x00200000U) /**< Transmit end of ring */
 152:D:/Workspace/Development/my/DAVE/Infineon_CANopen/Libraries/XMCLib/inc\xmc_eth_mac.h **** #define ETH_MAC_DMA_TDES0_TCH  (0x00100000U) /**< Second address chained */
 153:D:/Workspace/Development/my/DAVE/Infineon_CANopen/Libraries/XMCLib/inc\xmc_eth_mac.h **** #define ETH_MAC_DMA_TDES0_TTSS (0x00020000U) /**< Transmit time stamp status */
 154:D:/Workspace/Development/my/DAVE/Infineon_CANopen/Libraries/XMCLib/inc\xmc_eth_mac.h **** #define ETH_MAC_DMA_TDES0_IHE  (0x00010000U) /**< IP header error */
 155:D:/Workspace/Development/my/DAVE/Infineon_CANopen/Libraries/XMCLib/inc\xmc_eth_mac.h **** #define ETH_MAC_DMA_TDES0_ES   (0x00008000U) /**< Error summary */
 156:D:/Workspace/Development/my/DAVE/Infineon_CANopen/Libraries/XMCLib/inc\xmc_eth_mac.h **** #define ETH_MAC_DMA_TDES0_JT   (0x00004000U) /**< Jabber timeout */
 157:D:/Workspace/Development/my/DAVE/Infineon_CANopen/Libraries/XMCLib/inc\xmc_eth_mac.h **** #define ETH_MAC_DMA_TDES0_FF   (0x00002000U) /**< Frame flushed */
 158:D:/Workspace/Development/my/DAVE/Infineon_CANopen/Libraries/XMCLib/inc\xmc_eth_mac.h **** #define ETH_MAC_DMA_TDES0_IPE  (0x00001000U) /**< IP payload error */
 159:D:/Workspace/Development/my/DAVE/Infineon_CANopen/Libraries/XMCLib/inc\xmc_eth_mac.h **** #define ETH_MAC_DMA_TDES0_LOC  (0x00000800U) /**< Loss of carrier */
 160:D:/Workspace/Development/my/DAVE/Infineon_CANopen/Libraries/XMCLib/inc\xmc_eth_mac.h **** #define ETH_MAC_DMA_TDES0_NC   (0x00000400U) /**< No carrier */
 161:D:/Workspace/Development/my/DAVE/Infineon_CANopen/Libraries/XMCLib/inc\xmc_eth_mac.h **** #define ETH_MAC_DMA_TDES0_LC   (0x00000200U) /**< Late collision */
 162:D:/Workspace/Development/my/DAVE/Infineon_CANopen/Libraries/XMCLib/inc\xmc_eth_mac.h **** #define ETH_MAC_DMA_TDES0_EC   (0x00000100U) /**< Excessive collision */
 163:D:/Workspace/Development/my/DAVE/Infineon_CANopen/Libraries/XMCLib/inc\xmc_eth_mac.h **** #define ETH_MAC_DMA_TDES0_VF   (0x00000080U) /**< VLAN frame */
 164:D:/Workspace/Development/my/DAVE/Infineon_CANopen/Libraries/XMCLib/inc\xmc_eth_mac.h **** #define ETH_MAC_DMA_TDES0_CC   (0x00000078U) /**< Collision count */
 165:D:/Workspace/Development/my/DAVE/Infineon_CANopen/Libraries/XMCLib/inc\xmc_eth_mac.h **** #define ETH_MAC_DMA_TDES0_ED   (0x00000004U) /**< Excessive deferral */
 166:D:/Workspace/Development/my/DAVE/Infineon_CANopen/Libraries/XMCLib/inc\xmc_eth_mac.h **** #define ETH_MAC_DMA_TDES0_UF   (0x00000002U) /**< Underflow error */
 167:D:/Workspace/Development/my/DAVE/Infineon_CANopen/Libraries/XMCLib/inc\xmc_eth_mac.h **** #define ETH_MAC_DMA_TDES0_DB   (0x00000001U) /**< Deferred bit */
 168:D:/Workspace/Development/my/DAVE/Infineon_CANopen/Libraries/XMCLib/inc\xmc_eth_mac.h **** 
 169:D:/Workspace/Development/my/DAVE/Infineon_CANopen/Libraries/XMCLib/inc\xmc_eth_mac.h **** /**
 170:D:/Workspace/Development/my/DAVE/Infineon_CANopen/Libraries/XMCLib/inc\xmc_eth_mac.h ****  * RDES0 Descriptor RX Packet Status
 171:D:/Workspace/Development/my/DAVE/Infineon_CANopen/Libraries/XMCLib/inc\xmc_eth_mac.h ****  */
 172:D:/Workspace/Development/my/DAVE/Infineon_CANopen/Libraries/XMCLib/inc\xmc_eth_mac.h **** #define ETH_MAC_DMA_RDES0_OWN  (0x80000000U) /**< Own bit 1=DMA, 0=CPU */
 173:D:/Workspace/Development/my/DAVE/Infineon_CANopen/Libraries/XMCLib/inc\xmc_eth_mac.h **** #define ETH_MAC_DMA_RDES0_AFM  (0x40000000U) /**< Destination address filter fail */
 174:D:/Workspace/Development/my/DAVE/Infineon_CANopen/Libraries/XMCLib/inc\xmc_eth_mac.h **** #define ETH_MAC_DMA_RDES0_FL   (0x3FFF0000U) /**< Frame length mask */
 175:D:/Workspace/Development/my/DAVE/Infineon_CANopen/Libraries/XMCLib/inc\xmc_eth_mac.h **** #define ETH_MAC_DMA_RDES0_ES   (0x00008000U) /**< Error summary */
 176:D:/Workspace/Development/my/DAVE/Infineon_CANopen/Libraries/XMCLib/inc\xmc_eth_mac.h **** #define ETH_MAC_DMA_RDES0_DE   (0x00004000U) /**< Descriptor error */
 177:D:/Workspace/Development/my/DAVE/Infineon_CANopen/Libraries/XMCLib/inc\xmc_eth_mac.h **** #define ETH_MAC_DMA_RDES0_SAF  (0x00002000U) /**< Source address filter fail */
 178:D:/Workspace/Development/my/DAVE/Infineon_CANopen/Libraries/XMCLib/inc\xmc_eth_mac.h **** #define ETH_MAC_DMA_RDES0_LE   (0x00001000U) /**< Length error */
 179:D:/Workspace/Development/my/DAVE/Infineon_CANopen/Libraries/XMCLib/inc\xmc_eth_mac.h **** #define ETH_MAC_DMA_RDES0_OE   (0x00000800U) /**< Overflow error */
 180:D:/Workspace/Development/my/DAVE/Infineon_CANopen/Libraries/XMCLib/inc\xmc_eth_mac.h **** #define ETH_MAC_DMA_RDES0_VLAN (0x00000400U) /**< VLAN tag */
 181:D:/Workspace/Development/my/DAVE/Infineon_CANopen/Libraries/XMCLib/inc\xmc_eth_mac.h **** #define ETH_MAC_DMA_RDES0_FS   (0x00000200U) /**< First descriptor */
 182:D:/Workspace/Development/my/DAVE/Infineon_CANopen/Libraries/XMCLib/inc\xmc_eth_mac.h **** #define ETH_MAC_DMA_RDES0_LS   (0x00000100U) /**< Last descriptor */
 183:D:/Workspace/Development/my/DAVE/Infineon_CANopen/Libraries/XMCLib/inc\xmc_eth_mac.h **** #define ETH_MAC_DMA_RDES0_TSA  (0x00000080U) /**< Timestamp available */
 184:D:/Workspace/Development/my/DAVE/Infineon_CANopen/Libraries/XMCLib/inc\xmc_eth_mac.h **** #define ETH_MAC_DMA_RDES0_LC   (0x00000040U) /**< Late collision */
 185:D:/Workspace/Development/my/DAVE/Infineon_CANopen/Libraries/XMCLib/inc\xmc_eth_mac.h **** #define ETH_MAC_DMA_RDES0_FT   (0x00000020U) /**< Frame type */
 186:D:/Workspace/Development/my/DAVE/Infineon_CANopen/Libraries/XMCLib/inc\xmc_eth_mac.h **** #define ETH_MAC_DMA_RDES0_RWT  (0x00000010U) /**< Receive watchdog timeout */
 187:D:/Workspace/Development/my/DAVE/Infineon_CANopen/Libraries/XMCLib/inc\xmc_eth_mac.h **** #define ETH_MAC_DMA_RDES0_RE   (0x00000008U) /**< Receive error */
 188:D:/Workspace/Development/my/DAVE/Infineon_CANopen/Libraries/XMCLib/inc\xmc_eth_mac.h **** #define ETH_MAC_DMA_RDES0_DBE  (0x00000004U) /**< Dribble bit error */
 189:D:/Workspace/Development/my/DAVE/Infineon_CANopen/Libraries/XMCLib/inc\xmc_eth_mac.h **** #define ETH_MAC_DMA_RDES0_CE   (0x00000002U) /**< CRC error */
 190:D:/Workspace/Development/my/DAVE/Infineon_CANopen/Libraries/XMCLib/inc\xmc_eth_mac.h **** #define ETH_MAC_DMA_RDES0_ESA  (0x00000001U) /**< Extended Status/Rx MAC address */
 191:D:/Workspace/Development/my/DAVE/Infineon_CANopen/Libraries/XMCLib/inc\xmc_eth_mac.h **** 
 192:D:/Workspace/Development/my/DAVE/Infineon_CANopen/Libraries/XMCLib/inc\xmc_eth_mac.h **** /**************************************************************************************************
 193:D:/Workspace/Development/my/DAVE/Infineon_CANopen/Libraries/XMCLib/inc\xmc_eth_mac.h ****  * ENUMS
 194:D:/Workspace/Development/my/DAVE/Infineon_CANopen/Libraries/XMCLib/inc\xmc_eth_mac.h ****  **************************************************************************************************
 195:D:/Workspace/Development/my/DAVE/Infineon_CANopen/Libraries/XMCLib/inc\xmc_eth_mac.h **** 
 196:D:/Workspace/Development/my/DAVE/Infineon_CANopen/Libraries/XMCLib/inc\xmc_eth_mac.h **** /**
 197:D:/Workspace/Development/my/DAVE/Infineon_CANopen/Libraries/XMCLib/inc\xmc_eth_mac.h ****  * Ethernet MAC status return values
 198:D:/Workspace/Development/my/DAVE/Infineon_CANopen/Libraries/XMCLib/inc\xmc_eth_mac.h ****  */
 199:D:/Workspace/Development/my/DAVE/Infineon_CANopen/Libraries/XMCLib/inc\xmc_eth_mac.h **** typedef enum XMC_ETH_MAC_STATUS
 200:D:/Workspace/Development/my/DAVE/Infineon_CANopen/Libraries/XMCLib/inc\xmc_eth_mac.h **** {
 201:D:/Workspace/Development/my/DAVE/Infineon_CANopen/Libraries/XMCLib/inc\xmc_eth_mac.h ****   XMC_ETH_MAC_STATUS_OK    = 0U, /**< Driver accepted application request */
 202:D:/Workspace/Development/my/DAVE/Infineon_CANopen/Libraries/XMCLib/inc\xmc_eth_mac.h ****   XMC_ETH_MAC_STATUS_BUSY  = 1U, /**< Driver is busy and cannot handle request */
 203:D:/Workspace/Development/my/DAVE/Infineon_CANopen/Libraries/XMCLib/inc\xmc_eth_mac.h ****   XMC_ETH_MAC_STATUS_ERROR = 2U  /**< Driver could not fulfil application request */
 204:D:/Workspace/Development/my/DAVE/Infineon_CANopen/Libraries/XMCLib/inc\xmc_eth_mac.h **** } XMC_ETH_MAC_STATUS_t;
 205:D:/Workspace/Development/my/DAVE/Infineon_CANopen/Libraries/XMCLib/inc\xmc_eth_mac.h **** 
 206:D:/Workspace/Development/my/DAVE/Infineon_CANopen/Libraries/XMCLib/inc\xmc_eth_mac.h **** /**
 207:D:/Workspace/Development/my/DAVE/Infineon_CANopen/Libraries/XMCLib/inc\xmc_eth_mac.h ****  * Transmission frame
 208:D:/Workspace/Development/my/DAVE/Infineon_CANopen/Libraries/XMCLib/inc\xmc_eth_mac.h ****  */
 209:D:/Workspace/Development/my/DAVE/Infineon_CANopen/Libraries/XMCLib/inc\xmc_eth_mac.h **** typedef enum XMC_ETH_MAC_TX_FRAME
 210:D:/Workspace/Development/my/DAVE/Infineon_CANopen/Libraries/XMCLib/inc\xmc_eth_mac.h **** {
 211:D:/Workspace/Development/my/DAVE/Infineon_CANopen/Libraries/XMCLib/inc\xmc_eth_mac.h ****   XMC_ETH_MAC_TX_FRAME_FRAGMENT  = 0x1U, /**< Indicate frame fragment */
 212:D:/Workspace/Development/my/DAVE/Infineon_CANopen/Libraries/XMCLib/inc\xmc_eth_mac.h ****   XMC_ETH_MAC_TX_FRAME_EVENT     = 0x2U, /**< Generate event when frame is transmitted */
 213:D:/Workspace/Development/my/DAVE/Infineon_CANopen/Libraries/XMCLib/inc\xmc_eth_mac.h ****   XMC_ETH_MAC_TX_FRAME_TIMESTAMP = 0x4U  /**< Capture frame time stamp */
 214:D:/Workspace/Development/my/DAVE/Infineon_CANopen/Libraries/XMCLib/inc\xmc_eth_mac.h **** } XMC_ETH_MAC_TX_FRAME_t;
 215:D:/Workspace/Development/my/DAVE/Infineon_CANopen/Libraries/XMCLib/inc\xmc_eth_mac.h **** 
 216:D:/Workspace/Development/my/DAVE/Infineon_CANopen/Libraries/XMCLib/inc\xmc_eth_mac.h **** /**
 217:D:/Workspace/Development/my/DAVE/Infineon_CANopen/Libraries/XMCLib/inc\xmc_eth_mac.h ****  * ETH MAC event
 218:D:/Workspace/Development/my/DAVE/Infineon_CANopen/Libraries/XMCLib/inc\xmc_eth_mac.h ****  */
 219:D:/Workspace/Development/my/DAVE/Infineon_CANopen/Libraries/XMCLib/inc\xmc_eth_mac.h **** typedef enum XMC_ETH_MAC_EVENT
 220:D:/Workspace/Development/my/DAVE/Infineon_CANopen/Libraries/XMCLib/inc\xmc_eth_mac.h **** {
 221:D:/Workspace/Development/my/DAVE/Infineon_CANopen/Libraries/XMCLib/inc\xmc_eth_mac.h ****   XMC_ETH_MAC_EVENT_PMT = ETH_INTERRUPT_MASK_PMTIM_Msk << 16,        /**< Power management event */
 222:D:/Workspace/Development/my/DAVE/Infineon_CANopen/Libraries/XMCLib/inc\xmc_eth_mac.h ****   XMC_ETH_MAC_EVENT_TIMESTAMP = ETH_INTERRUPT_MASK_TSIM_Msk << 16,   /**< Time stamp event */
 223:D:/Workspace/Development/my/DAVE/Infineon_CANopen/Libraries/XMCLib/inc\xmc_eth_mac.h ****   XMC_ETH_MAC_EVENT_EARLY_RECEIVE = ETH_STATUS_ERI_Msk,              /**< Early receive */
 224:D:/Workspace/Development/my/DAVE/Infineon_CANopen/Libraries/XMCLib/inc\xmc_eth_mac.h ****   XMC_ETH_MAC_EVENT_BUS_ERROR = ETH_STATUS_FBI_Msk,                  /**< Bus error */
 225:D:/Workspace/Development/my/DAVE/Infineon_CANopen/Libraries/XMCLib/inc\xmc_eth_mac.h ****   XMC_ETH_MAC_EVENT_EARLY_TRANSMIT = ETH_STATUS_ETI_Msk,             /**< Early transmit */
 226:D:/Workspace/Development/my/DAVE/Infineon_CANopen/Libraries/XMCLib/inc\xmc_eth_mac.h ****   XMC_ETH_MAC_EVENT_RECEIVE_WATCHDOG_TIMEOUT = ETH_STATUS_RWT_Msk,   /**< Receive watchdog time-out
 227:D:/Workspace/Development/my/DAVE/Infineon_CANopen/Libraries/XMCLib/inc\xmc_eth_mac.h ****   XMC_ETH_MAC_EVENT_RECEIVE_PROCESS_STOPPED = ETH_STATUS_RPS_Msk,    /**< Receive process stopped *
 228:D:/Workspace/Development/my/DAVE/Infineon_CANopen/Libraries/XMCLib/inc\xmc_eth_mac.h ****   XMC_ETH_MAC_EVENT_RECEIVE_BUFFER_UNAVAILABLE = ETH_STATUS_RU_Msk,  /**< Receive buffer unavailabl
 229:D:/Workspace/Development/my/DAVE/Infineon_CANopen/Libraries/XMCLib/inc\xmc_eth_mac.h ****   XMC_ETH_MAC_EVENT_RECEIVE = ETH_STATUS_RI_Msk,                     /**< Receive event */
 230:D:/Workspace/Development/my/DAVE/Infineon_CANopen/Libraries/XMCLib/inc\xmc_eth_mac.h ****   XMC_ETH_MAC_EVENT_TRANSMIT_UNDERFLOW = ETH_STATUS_UNF_Msk,         /**< Transmit underflow */
 231:D:/Workspace/Development/my/DAVE/Infineon_CANopen/Libraries/XMCLib/inc\xmc_eth_mac.h ****   XMC_ETH_MAC_EVENT_RECEIVE_OVERFLOW = ETH_STATUS_OVF_Msk,           /**< Receive overflow */
 232:D:/Workspace/Development/my/DAVE/Infineon_CANopen/Libraries/XMCLib/inc\xmc_eth_mac.h ****   XMC_ETH_MAC_EVENT_TRANSMIT_JABBER_TIMEOUT = ETH_STATUS_TJT_Msk,    /**< Transmit jabber time-out 
 233:D:/Workspace/Development/my/DAVE/Infineon_CANopen/Libraries/XMCLib/inc\xmc_eth_mac.h ****   XMC_ETH_MAC_EVENT_TRANSMIT_BUFFER_UNAVAILABLE = ETH_STATUS_TU_Msk, /**< Transmit buffer unavailab
 234:D:/Workspace/Development/my/DAVE/Infineon_CANopen/Libraries/XMCLib/inc\xmc_eth_mac.h ****   XMC_ETH_MAC_EVENT_TRANSMIT_PROCESS_STOPPED = ETH_STATUS_TPS_Msk,   /**< Transmit process stopped 
 235:D:/Workspace/Development/my/DAVE/Infineon_CANopen/Libraries/XMCLib/inc\xmc_eth_mac.h ****   XMC_ETH_MAC_EVENT_TRANSMIT = ETH_STATUS_TI_Msk                     /**< Transmit event */
 236:D:/Workspace/Development/my/DAVE/Infineon_CANopen/Libraries/XMCLib/inc\xmc_eth_mac.h **** } XMC_ETH_MAC_EVENT_t;
 237:D:/Workspace/Development/my/DAVE/Infineon_CANopen/Libraries/XMCLib/inc\xmc_eth_mac.h **** 
 238:D:/Workspace/Development/my/DAVE/Infineon_CANopen/Libraries/XMCLib/inc\xmc_eth_mac.h **** /**
 239:D:/Workspace/Development/my/DAVE/Infineon_CANopen/Libraries/XMCLib/inc\xmc_eth_mac.h ****  * Link interface
 240:D:/Workspace/Development/my/DAVE/Infineon_CANopen/Libraries/XMCLib/inc\xmc_eth_mac.h ****  */
 241:D:/Workspace/Development/my/DAVE/Infineon_CANopen/Libraries/XMCLib/inc\xmc_eth_mac.h **** typedef enum XMC_ETH_LINK_INTERFACE
 242:D:/Workspace/Development/my/DAVE/Infineon_CANopen/Libraries/XMCLib/inc\xmc_eth_mac.h **** {
 243:D:/Workspace/Development/my/DAVE/Infineon_CANopen/Libraries/XMCLib/inc\xmc_eth_mac.h ****   XMC_ETH_LINK_INTERFACE_MII, /**< Link interface: Media independent interface */
 244:D:/Workspace/Development/my/DAVE/Infineon_CANopen/Libraries/XMCLib/inc\xmc_eth_mac.h ****   XMC_ETH_LINK_INTERFACE_RMII /**< Link interface: Reduced media independent interface */
 245:D:/Workspace/Development/my/DAVE/Infineon_CANopen/Libraries/XMCLib/inc\xmc_eth_mac.h **** } XMC_ETH_LINK_INTERFACE_t;
 246:D:/Workspace/Development/my/DAVE/Infineon_CANopen/Libraries/XMCLib/inc\xmc_eth_mac.h **** 
 247:D:/Workspace/Development/my/DAVE/Infineon_CANopen/Libraries/XMCLib/inc\xmc_eth_mac.h **** /**
 248:D:/Workspace/Development/my/DAVE/Infineon_CANopen/Libraries/XMCLib/inc\xmc_eth_mac.h ****  * ETH link status
 249:D:/Workspace/Development/my/DAVE/Infineon_CANopen/Libraries/XMCLib/inc\xmc_eth_mac.h ****  */
 250:D:/Workspace/Development/my/DAVE/Infineon_CANopen/Libraries/XMCLib/inc\xmc_eth_mac.h **** typedef enum XMC_ETH_LINK_STATUS
 251:D:/Workspace/Development/my/DAVE/Infineon_CANopen/Libraries/XMCLib/inc\xmc_eth_mac.h **** {
 252:D:/Workspace/Development/my/DAVE/Infineon_CANopen/Libraries/XMCLib/inc\xmc_eth_mac.h ****   XMC_ETH_LINK_STATUS_DOWN, /**< Link status down */
 253:D:/Workspace/Development/my/DAVE/Infineon_CANopen/Libraries/XMCLib/inc\xmc_eth_mac.h ****   XMC_ETH_LINK_STATUS_UP    /**< Link status up */
 254:D:/Workspace/Development/my/DAVE/Infineon_CANopen/Libraries/XMCLib/inc\xmc_eth_mac.h **** } XMC_ETH_LINK_STATUS_t;
 255:D:/Workspace/Development/my/DAVE/Infineon_CANopen/Libraries/XMCLib/inc\xmc_eth_mac.h **** 
 256:D:/Workspace/Development/my/DAVE/Infineon_CANopen/Libraries/XMCLib/inc\xmc_eth_mac.h **** /**
 257:D:/Workspace/Development/my/DAVE/Infineon_CANopen/Libraries/XMCLib/inc\xmc_eth_mac.h ****  * ETH link speed
 258:D:/Workspace/Development/my/DAVE/Infineon_CANopen/Libraries/XMCLib/inc\xmc_eth_mac.h ****  */
 259:D:/Workspace/Development/my/DAVE/Infineon_CANopen/Libraries/XMCLib/inc\xmc_eth_mac.h **** typedef enum XMC_ETH_LINK_SPEED
 260:D:/Workspace/Development/my/DAVE/Infineon_CANopen/Libraries/XMCLib/inc\xmc_eth_mac.h **** {
 261:D:/Workspace/Development/my/DAVE/Infineon_CANopen/Libraries/XMCLib/inc\xmc_eth_mac.h ****   XMC_ETH_LINK_SPEED_10M  = 0UL << ETH_MAC_CONFIGURATION_FES_Pos, /**< Link speed: 10M */
 262:D:/Workspace/Development/my/DAVE/Infineon_CANopen/Libraries/XMCLib/inc\xmc_eth_mac.h ****   XMC_ETH_LINK_SPEED_100M = 1UL << ETH_MAC_CONFIGURATION_FES_Pos  /**< Link speed: 100M */
 263:D:/Workspace/Development/my/DAVE/Infineon_CANopen/Libraries/XMCLib/inc\xmc_eth_mac.h **** } XMC_ETH_LINK_SPEED_t;
 264:D:/Workspace/Development/my/DAVE/Infineon_CANopen/Libraries/XMCLib/inc\xmc_eth_mac.h **** 
 265:D:/Workspace/Development/my/DAVE/Infineon_CANopen/Libraries/XMCLib/inc\xmc_eth_mac.h **** /**
 266:D:/Workspace/Development/my/DAVE/Infineon_CANopen/Libraries/XMCLib/inc\xmc_eth_mac.h ****  * ETH duplex settings (full/half?)
 267:D:/Workspace/Development/my/DAVE/Infineon_CANopen/Libraries/XMCLib/inc\xmc_eth_mac.h ****  */
 268:D:/Workspace/Development/my/DAVE/Infineon_CANopen/Libraries/XMCLib/inc\xmc_eth_mac.h **** typedef enum XMC_ETH_LINK_DUPLEX
 269:D:/Workspace/Development/my/DAVE/Infineon_CANopen/Libraries/XMCLib/inc\xmc_eth_mac.h **** {
 270:D:/Workspace/Development/my/DAVE/Infineon_CANopen/Libraries/XMCLib/inc\xmc_eth_mac.h ****   XMC_ETH_LINK_DUPLEX_HALF = 0UL << ETH_MAC_CONFIGURATION_DM_Pos, /**< Half duplex */
 271:D:/Workspace/Development/my/DAVE/Infineon_CANopen/Libraries/XMCLib/inc\xmc_eth_mac.h ****   XMC_ETH_LINK_DUPLEX_FULL = 1UL << ETH_MAC_CONFIGURATION_DM_Pos  /**< Full duplex */
 272:D:/Workspace/Development/my/DAVE/Infineon_CANopen/Libraries/XMCLib/inc\xmc_eth_mac.h **** } XMC_ETH_LINK_DUPLEX_t;
 273:D:/Workspace/Development/my/DAVE/Infineon_CANopen/Libraries/XMCLib/inc\xmc_eth_mac.h **** 
 274:D:/Workspace/Development/my/DAVE/Infineon_CANopen/Libraries/XMCLib/inc\xmc_eth_mac.h **** /**
 275:D:/Workspace/Development/my/DAVE/Infineon_CANopen/Libraries/XMCLib/inc\xmc_eth_mac.h ****  * MAC address filter
 276:D:/Workspace/Development/my/DAVE/Infineon_CANopen/Libraries/XMCLib/inc\xmc_eth_mac.h ****  */
 277:D:/Workspace/Development/my/DAVE/Infineon_CANopen/Libraries/XMCLib/inc\xmc_eth_mac.h **** typedef enum XMC_ETH_MAC_ADDR_FILTER
 278:D:/Workspace/Development/my/DAVE/Infineon_CANopen/Libraries/XMCLib/inc\xmc_eth_mac.h **** {
 279:D:/Workspace/Development/my/DAVE/Infineon_CANopen/Libraries/XMCLib/inc\xmc_eth_mac.h ****   XMC_ETH_MAC_ADDR_FILTER_MASK_BYTE0 = 0x01000000UL, /**< Address filter mask: byte 0 */
 280:D:/Workspace/Development/my/DAVE/Infineon_CANopen/Libraries/XMCLib/inc\xmc_eth_mac.h ****   XMC_ETH_MAC_ADDR_FILTER_MASK_BYTE1 = 0x02000000UL, /**< Address filter mask: byte 1 */
 281:D:/Workspace/Development/my/DAVE/Infineon_CANopen/Libraries/XMCLib/inc\xmc_eth_mac.h ****   XMC_ETH_MAC_ADDR_FILTER_MASK_BYTE2 = 0x04000000UL, /**< Address filter mask: byte 2 */
 282:D:/Workspace/Development/my/DAVE/Infineon_CANopen/Libraries/XMCLib/inc\xmc_eth_mac.h ****   XMC_ETH_MAC_ADDR_FILTER_MASK_BYTE3 = 0x08000000UL, /**< Address filter mask: byte 3 */
 283:D:/Workspace/Development/my/DAVE/Infineon_CANopen/Libraries/XMCLib/inc\xmc_eth_mac.h ****   XMC_ETH_MAC_ADDR_FILTER_MASK_BYTE4 = 0x10000000UL, /**< Address filter mask: byte 4 */
 284:D:/Workspace/Development/my/DAVE/Infineon_CANopen/Libraries/XMCLib/inc\xmc_eth_mac.h ****   XMC_ETH_MAC_ADDR_FILTER_MASK_BYTE5 = 0x20000000UL, /**< Address filter mask: byte 5 */
 285:D:/Workspace/Development/my/DAVE/Infineon_CANopen/Libraries/XMCLib/inc\xmc_eth_mac.h ****   XMC_ETH_MAC_ADDR_FILTER_SA         = 0x40000000UL  /**< Address filter SA */
 286:D:/Workspace/Development/my/DAVE/Infineon_CANopen/Libraries/XMCLib/inc\xmc_eth_mac.h **** } XMC_ETH_MAC_ADDR_FILTER_t;
 287:D:/Workspace/Development/my/DAVE/Infineon_CANopen/Libraries/XMCLib/inc\xmc_eth_mac.h **** 
 288:D:/Workspace/Development/my/DAVE/Infineon_CANopen/Libraries/XMCLib/inc\xmc_eth_mac.h **** /**
 289:D:/Workspace/Development/my/DAVE/Infineon_CANopen/Libraries/XMCLib/inc\xmc_eth_mac.h ****  * Power management events that triggers a PMT interrupt
 290:D:/Workspace/Development/my/DAVE/Infineon_CANopen/Libraries/XMCLib/inc\xmc_eth_mac.h ****  */
 291:D:/Workspace/Development/my/DAVE/Infineon_CANopen/Libraries/XMCLib/inc\xmc_eth_mac.h **** typedef enum XMC_ETH_MAC_PMT_EVENT
 292:D:/Workspace/Development/my/DAVE/Infineon_CANopen/Libraries/XMCLib/inc\xmc_eth_mac.h **** {
 293:D:/Workspace/Development/my/DAVE/Infineon_CANopen/Libraries/XMCLib/inc\xmc_eth_mac.h ****   XMC_ETH_MAC_PMT_EVENT_ON_WAKEUP_FRAME         = ETH_PMT_CONTROL_STATUS_RWKPKTEN_Msk,  /**< Wakeup
 294:D:/Workspace/Development/my/DAVE/Infineon_CANopen/Libraries/XMCLib/inc\xmc_eth_mac.h ****   XMC_ETH_MAC_PMT_EVENT_ON_MAGIC_PACKET         = ETH_PMT_CONTROL_STATUS_MGKPKTEN_Msk,  /**< Magic 
 295:D:/Workspace/Development/my/DAVE/Infineon_CANopen/Libraries/XMCLib/inc\xmc_eth_mac.h ****   XMC_ETH_MAC_PMT_EVENT_ON_UNICAST_FRAME_FILTER = ETH_PMT_CONTROL_STATUS_GLBLUCAST_Msk  /**< Unicas
 296:D:/Workspace/Development/my/DAVE/Infineon_CANopen/Libraries/XMCLib/inc\xmc_eth_mac.h **** } XMC_ETH_MAC_PMT_EVENT_t;
 297:D:/Workspace/Development/my/DAVE/Infineon_CANopen/Libraries/XMCLib/inc\xmc_eth_mac.h **** 
 298:D:/Workspace/Development/my/DAVE/Infineon_CANopen/Libraries/XMCLib/inc\xmc_eth_mac.h **** 
 299:D:/Workspace/Development/my/DAVE/Infineon_CANopen/Libraries/XMCLib/inc\xmc_eth_mac.h **** /**
 300:D:/Workspace/Development/my/DAVE/Infineon_CANopen/Libraries/XMCLib/inc\xmc_eth_mac.h ****  * ETH MAC time-stamp configuration enable
 301:D:/Workspace/Development/my/DAVE/Infineon_CANopen/Libraries/XMCLib/inc\xmc_eth_mac.h ****  */
 302:D:/Workspace/Development/my/DAVE/Infineon_CANopen/Libraries/XMCLib/inc\xmc_eth_mac.h **** typedef enum XMC_ETH_MAC_TIMESTAMP_CONFIG
 303:D:/Workspace/Development/my/DAVE/Infineon_CANopen/Libraries/XMCLib/inc\xmc_eth_mac.h **** {
 304:D:/Workspace/Development/my/DAVE/Infineon_CANopen/Libraries/XMCLib/inc\xmc_eth_mac.h ****   XMC_ETH_MAC_TIMESTAMP_CONFIG_FINE_UPDATE = ETH_TIMESTAMP_CONTROL_TSCFUPDT_Msk,             /**< F
 305:D:/Workspace/Development/my/DAVE/Infineon_CANopen/Libraries/XMCLib/inc\xmc_eth_mac.h ****   XMC_ETH_MAC_TIMESTAMP_CONFIG_ENABLE_TS_INTERRUPT = ETH_TIMESTAMP_CONTROL_TSTRIG_Msk,       /**< T
 306:D:/Workspace/Development/my/DAVE/Infineon_CANopen/Libraries/XMCLib/inc\xmc_eth_mac.h ****   XMC_ETH_MAC_TIMESTAMP_CONFIG_ENABLE_ALL_FRAMES = ETH_TIMESTAMP_CONTROL_TSENALL_Msk,        /**< E
 307:D:/Workspace/Development/my/DAVE/Infineon_CANopen/Libraries/XMCLib/inc\xmc_eth_mac.h ****   XMC_ETH_MAC_TIMESTAMP_CONFIG_ENABLE_PTPV2 = ETH_TIMESTAMP_CONTROL_TSVER2ENA_Msk,           /**< P
 308:D:/Workspace/Development/my/DAVE/Infineon_CANopen/Libraries/XMCLib/inc\xmc_eth_mac.h ****   XMC_ETH_MAC_TIMESTAMP_CONFIG_ENABLE_PTP_OVER_ETHERNET = ETH_TIMESTAMP_CONTROL_TSIPENA_Msk, /**< P
 309:D:/Workspace/Development/my/DAVE/Infineon_CANopen/Libraries/XMCLib/inc\xmc_eth_mac.h ****   XMC_ETH_MAC_TIMESTAMP_CONFIG_ENABLE_PTP_OVER_IPV6 = ETH_TIMESTAMP_CONTROL_TSIPV6ENA_Msk,   /**< P
 310:D:/Workspace/Development/my/DAVE/Infineon_CANopen/Libraries/XMCLib/inc\xmc_eth_mac.h ****   XMC_ETH_MAC_TIMESTAMP_CONFIG_ENABLE_PTP_OVER_IPV4 = ETH_TIMESTAMP_CONTROL_TSIPV4ENA_Msk,   /**< P
 311:D:/Workspace/Development/my/DAVE/Infineon_CANopen/Libraries/XMCLib/inc\xmc_eth_mac.h ****   XMC_ETH_MAC_TIMESTAMP_CONFIG_ENABLE_MAC_ADDRESS_FILTER = ETH_TIMESTAMP_CONTROL_TSENMACADDR_Msk /*
 312:D:/Workspace/Development/my/DAVE/Infineon_CANopen/Libraries/XMCLib/inc\xmc_eth_mac.h **** } XMC_ETH_MAC_TIMESTAMP_CONFIG_t;
 313:D:/Workspace/Development/my/DAVE/Infineon_CANopen/Libraries/XMCLib/inc\xmc_eth_mac.h **** 
 314:D:/Workspace/Development/my/DAVE/Infineon_CANopen/Libraries/XMCLib/inc\xmc_eth_mac.h **** /**
 315:D:/Workspace/Development/my/DAVE/Infineon_CANopen/Libraries/XMCLib/inc\xmc_eth_mac.h ****  * ETH MAC time-stamp status
 316:D:/Workspace/Development/my/DAVE/Infineon_CANopen/Libraries/XMCLib/inc\xmc_eth_mac.h ****  */
 317:D:/Workspace/Development/my/DAVE/Infineon_CANopen/Libraries/XMCLib/inc\xmc_eth_mac.h **** typedef enum XMC_ETH_MAC_TIMESTAMP_STATUS
 318:D:/Workspace/Development/my/DAVE/Infineon_CANopen/Libraries/XMCLib/inc\xmc_eth_mac.h **** {
 319:D:/Workspace/Development/my/DAVE/Infineon_CANopen/Libraries/XMCLib/inc\xmc_eth_mac.h ****   XMC_ETH_MAC_TIMESTAMP_STATUS_SECONDS_OVERFLOW = ETH_TIMESTAMP_STATUS_TSSOVF_Msk,           /**< I
 320:D:/Workspace/Development/my/DAVE/Infineon_CANopen/Libraries/XMCLib/inc\xmc_eth_mac.h ****   XMC_ETH_MAC_TIMESTAMP_STATUS_TARGET_TIME_REACHED = ETH_TIMESTAMP_STATUS_TSTARGT_Msk,       /**< I
 321:D:/Workspace/Development/my/DAVE/Infineon_CANopen/Libraries/XMCLib/inc\xmc_eth_mac.h ****   XMC_ETH_MAC_TIMESTAMP_STATUS_TARGET_TIMER_ERROR = ETH_TIMESTAMP_STATUS_TSTRGTERR_Msk,      /**< S
 322:D:/Workspace/Development/my/DAVE/Infineon_CANopen/Libraries/XMCLib/inc\xmc_eth_mac.h **** } XMC_ETH_MAC_TIMESTAMP_STATUS_t;
 323:D:/Workspace/Development/my/DAVE/Infineon_CANopen/Libraries/XMCLib/inc\xmc_eth_mac.h **** 
 324:D:/Workspace/Development/my/DAVE/Infineon_CANopen/Libraries/XMCLib/inc\xmc_eth_mac.h **** 
 325:D:/Workspace/Development/my/DAVE/Infineon_CANopen/Libraries/XMCLib/inc\xmc_eth_mac.h **** /**************************************************************************************************
 326:D:/Workspace/Development/my/DAVE/Infineon_CANopen/Libraries/XMCLib/inc\xmc_eth_mac.h ****  * DATA STRUCTURES
 327:D:/Workspace/Development/my/DAVE/Infineon_CANopen/Libraries/XMCLib/inc\xmc_eth_mac.h ****  **************************************************************************************************
 328:D:/Workspace/Development/my/DAVE/Infineon_CANopen/Libraries/XMCLib/inc\xmc_eth_mac.h **** 
 329:D:/Workspace/Development/my/DAVE/Infineon_CANopen/Libraries/XMCLib/inc\xmc_eth_mac.h **** /* Anonymous structure/union guard start */
 330:D:/Workspace/Development/my/DAVE/Infineon_CANopen/Libraries/XMCLib/inc\xmc_eth_mac.h **** #if defined (__CC_ARM)
 331:D:/Workspace/Development/my/DAVE/Infineon_CANopen/Libraries/XMCLib/inc\xmc_eth_mac.h **** #pragma push
 332:D:/Workspace/Development/my/DAVE/Infineon_CANopen/Libraries/XMCLib/inc\xmc_eth_mac.h **** #pragma anon_unions
 333:D:/Workspace/Development/my/DAVE/Infineon_CANopen/Libraries/XMCLib/inc\xmc_eth_mac.h **** #elif defined (__TASKING__)
 334:D:/Workspace/Development/my/DAVE/Infineon_CANopen/Libraries/XMCLib/inc\xmc_eth_mac.h **** #pragma warning 586
 335:D:/Workspace/Development/my/DAVE/Infineon_CANopen/Libraries/XMCLib/inc\xmc_eth_mac.h **** #endif
 336:D:/Workspace/Development/my/DAVE/Infineon_CANopen/Libraries/XMCLib/inc\xmc_eth_mac.h **** 
 337:D:/Workspace/Development/my/DAVE/Infineon_CANopen/Libraries/XMCLib/inc\xmc_eth_mac.h **** /**
 338:D:/Workspace/Development/my/DAVE/Infineon_CANopen/Libraries/XMCLib/inc\xmc_eth_mac.h ****  * ETH MAC port control
 339:D:/Workspace/Development/my/DAVE/Infineon_CANopen/Libraries/XMCLib/inc\xmc_eth_mac.h ****  */
 340:D:/Workspace/Development/my/DAVE/Infineon_CANopen/Libraries/XMCLib/inc\xmc_eth_mac.h **** typedef union XMC_ETH_MAC_PORT_CTRL
 341:D:/Workspace/Development/my/DAVE/Infineon_CANopen/Libraries/XMCLib/inc\xmc_eth_mac.h **** {
 342:D:/Workspace/Development/my/DAVE/Infineon_CANopen/Libraries/XMCLib/inc\xmc_eth_mac.h ****   struct
 343:D:/Workspace/Development/my/DAVE/Infineon_CANopen/Libraries/XMCLib/inc\xmc_eth_mac.h ****   {
 344:D:/Workspace/Development/my/DAVE/Infineon_CANopen/Libraries/XMCLib/inc\xmc_eth_mac.h ****     uint32_t rxd0: 2;     /**< Receive data bit 0 (::XMC_ETH_MAC_PORT_CTRL_RXD0_t) */
 345:D:/Workspace/Development/my/DAVE/Infineon_CANopen/Libraries/XMCLib/inc\xmc_eth_mac.h ****     uint32_t rxd1: 2;     /**< Receive data bit 1 (::XMC_ETH_MAC_PORT_CTRL_RXD1_t) */
 346:D:/Workspace/Development/my/DAVE/Infineon_CANopen/Libraries/XMCLib/inc\xmc_eth_mac.h ****     uint32_t rxd2: 2;     /**< Receive data bit 2 (only MII) (::XMC_ETH_MAC_PORT_CTRL_RXD2_t) */
 347:D:/Workspace/Development/my/DAVE/Infineon_CANopen/Libraries/XMCLib/inc\xmc_eth_mac.h ****     uint32_t rxd3: 2;     /**< Receive data bit 3 (only MII) (::XMC_ETH_MAC_PORT_CTRL_RXD3_t) */
 348:D:/Workspace/Development/my/DAVE/Infineon_CANopen/Libraries/XMCLib/inc\xmc_eth_mac.h ****     uint32_t clk_rmii: 2; /**< RMII: Continuous 50 MHz reference clock.
 349:D:/Workspace/Development/my/DAVE/Infineon_CANopen/Libraries/XMCLib/inc\xmc_eth_mac.h ****                                MII: Receive clock, 25 MHz for 100Mbit/s, 2.5 MHz for 10Mbit/s
 350:D:/Workspace/Development/my/DAVE/Infineon_CANopen/Libraries/XMCLib/inc\xmc_eth_mac.h ****                                (::XMC_ETH_MAC_PORT_CTRL_CLK_RMII_t) */
 351:D:/Workspace/Development/my/DAVE/Infineon_CANopen/Libraries/XMCLib/inc\xmc_eth_mac.h ****     uint32_t crs_dv: 2;   /**< RMII: carrier sense/RX_Data valid. MII: RX_Data valid (::XMC_ETH_MAC
 352:D:/Workspace/Development/my/DAVE/Infineon_CANopen/Libraries/XMCLib/inc\xmc_eth_mac.h ****     uint32_t crs: 2;      /**< Carrier sense for only MII (::XMC_ETH_MAC_PORT_CTRL_CRS_t) */
 353:D:/Workspace/Development/my/DAVE/Infineon_CANopen/Libraries/XMCLib/inc\xmc_eth_mac.h ****     uint32_t rxer: 2;     /**< Receive error (::XMC_ETH_MAC_PORT_CTRL_RXER_t) */
 354:D:/Workspace/Development/my/DAVE/Infineon_CANopen/Libraries/XMCLib/inc\xmc_eth_mac.h ****     uint32_t col: 2;      /**< Collision Detect for only MII (::XMC_ETH_MAC_PORT_CTRL_COL_t) */
 355:D:/Workspace/Development/my/DAVE/Infineon_CANopen/Libraries/XMCLib/inc\xmc_eth_mac.h ****     uint32_t clk_tx: 2;   /**< Transmit clock (only MII), 25 MHz for 100Mbit/s, 2.5 MHz for 10Mbit/
 356:D:/Workspace/Development/my/DAVE/Infineon_CANopen/Libraries/XMCLib/inc\xmc_eth_mac.h ****     uint32_t: 2;          /**< Reserved bits */
 357:D:/Workspace/Development/my/DAVE/Infineon_CANopen/Libraries/XMCLib/inc\xmc_eth_mac.h ****     uint32_t mdio: 2;     /**< Bidirectional, push-pull management data I/O line (::XMC_ETH_MAC_POR
 358:D:/Workspace/Development/my/DAVE/Infineon_CANopen/Libraries/XMCLib/inc\xmc_eth_mac.h ****     uint32_t: 2;          /**< Reserved bits */
 359:D:/Workspace/Development/my/DAVE/Infineon_CANopen/Libraries/XMCLib/inc\xmc_eth_mac.h ****     uint32_t mode: 1;     /**< RMII or MII (::XMC_ETH_MAC_PORT_CTRL_MODE_t) */
 360:D:/Workspace/Development/my/DAVE/Infineon_CANopen/Libraries/XMCLib/inc\xmc_eth_mac.h ****   };
 361:D:/Workspace/Development/my/DAVE/Infineon_CANopen/Libraries/XMCLib/inc\xmc_eth_mac.h **** 
 362:D:/Workspace/Development/my/DAVE/Infineon_CANopen/Libraries/XMCLib/inc\xmc_eth_mac.h ****   uint32_t raw;
 363:D:/Workspace/Development/my/DAVE/Infineon_CANopen/Libraries/XMCLib/inc\xmc_eth_mac.h **** } XMC_ETH_MAC_PORT_CTRL_t;
 364:D:/Workspace/Development/my/DAVE/Infineon_CANopen/Libraries/XMCLib/inc\xmc_eth_mac.h **** 
 365:D:/Workspace/Development/my/DAVE/Infineon_CANopen/Libraries/XMCLib/inc\xmc_eth_mac.h **** /**
 366:D:/Workspace/Development/my/DAVE/Infineon_CANopen/Libraries/XMCLib/inc\xmc_eth_mac.h ****  * ETH MAC DMA descriptor
 367:D:/Workspace/Development/my/DAVE/Infineon_CANopen/Libraries/XMCLib/inc\xmc_eth_mac.h ****  */
 368:D:/Workspace/Development/my/DAVE/Infineon_CANopen/Libraries/XMCLib/inc\xmc_eth_mac.h **** typedef struct XMC_ETH_MAC_DMA_DESC
 369:D:/Workspace/Development/my/DAVE/Infineon_CANopen/Libraries/XMCLib/inc\xmc_eth_mac.h **** {
 370:D:/Workspace/Development/my/DAVE/Infineon_CANopen/Libraries/XMCLib/inc\xmc_eth_mac.h ****   volatile uint32_t status;                 /**< DMA descriptor status */
 371:D:/Workspace/Development/my/DAVE/Infineon_CANopen/Libraries/XMCLib/inc\xmc_eth_mac.h ****   volatile uint32_t length;                 /**< Descriptor length */
 372:D:/Workspace/Development/my/DAVE/Infineon_CANopen/Libraries/XMCLib/inc\xmc_eth_mac.h ****   volatile uint32_t buffer1;                /**< Buffer 1 */
 373:D:/Workspace/Development/my/DAVE/Infineon_CANopen/Libraries/XMCLib/inc\xmc_eth_mac.h ****   volatile uint32_t buffer2;                /**< Buffer 2 */
 374:D:/Workspace/Development/my/DAVE/Infineon_CANopen/Libraries/XMCLib/inc\xmc_eth_mac.h ****   volatile uint32_t extended_status;        /**< Extended status */
 375:D:/Workspace/Development/my/DAVE/Infineon_CANopen/Libraries/XMCLib/inc\xmc_eth_mac.h ****   volatile uint32_t reserved;               /**< Reserved */
 376:D:/Workspace/Development/my/DAVE/Infineon_CANopen/Libraries/XMCLib/inc\xmc_eth_mac.h ****   volatile uint32_t time_stamp_nanoseconds; /**< Time stamp low */
 377:D:/Workspace/Development/my/DAVE/Infineon_CANopen/Libraries/XMCLib/inc\xmc_eth_mac.h ****   volatile uint32_t time_stamp_seconds;     /**< Time stamp high */
 378:D:/Workspace/Development/my/DAVE/Infineon_CANopen/Libraries/XMCLib/inc\xmc_eth_mac.h **** } XMC_ETH_MAC_DMA_DESC_t;
 379:D:/Workspace/Development/my/DAVE/Infineon_CANopen/Libraries/XMCLib/inc\xmc_eth_mac.h **** 
 380:D:/Workspace/Development/my/DAVE/Infineon_CANopen/Libraries/XMCLib/inc\xmc_eth_mac.h **** /**
 381:D:/Workspace/Development/my/DAVE/Infineon_CANopen/Libraries/XMCLib/inc\xmc_eth_mac.h ****  * ETH MAC time
 382:D:/Workspace/Development/my/DAVE/Infineon_CANopen/Libraries/XMCLib/inc\xmc_eth_mac.h ****  */
 383:D:/Workspace/Development/my/DAVE/Infineon_CANopen/Libraries/XMCLib/inc\xmc_eth_mac.h **** typedef struct XMC_ETH_MAC_TIME
 384:D:/Workspace/Development/my/DAVE/Infineon_CANopen/Libraries/XMCLib/inc\xmc_eth_mac.h **** {
 385:D:/Workspace/Development/my/DAVE/Infineon_CANopen/Libraries/XMCLib/inc\xmc_eth_mac.h ****   uint32_t seconds;                 /**< Seconds */
 386:D:/Workspace/Development/my/DAVE/Infineon_CANopen/Libraries/XMCLib/inc\xmc_eth_mac.h ****   int32_t nanoseconds;              /**< Nanoseconds */
 387:D:/Workspace/Development/my/DAVE/Infineon_CANopen/Libraries/XMCLib/inc\xmc_eth_mac.h **** } XMC_ETH_MAC_TIME_t;
 388:D:/Workspace/Development/my/DAVE/Infineon_CANopen/Libraries/XMCLib/inc\xmc_eth_mac.h **** 
 389:D:/Workspace/Development/my/DAVE/Infineon_CANopen/Libraries/XMCLib/inc\xmc_eth_mac.h **** /**
 390:D:/Workspace/Development/my/DAVE/Infineon_CANopen/Libraries/XMCLib/inc\xmc_eth_mac.h ****  * ETH driver structure
 391:D:/Workspace/Development/my/DAVE/Infineon_CANopen/Libraries/XMCLib/inc\xmc_eth_mac.h ****  */
 392:D:/Workspace/Development/my/DAVE/Infineon_CANopen/Libraries/XMCLib/inc\xmc_eth_mac.h **** typedef struct XMC_ETH_MAC
 393:D:/Workspace/Development/my/DAVE/Infineon_CANopen/Libraries/XMCLib/inc\xmc_eth_mac.h **** {
 394:D:/Workspace/Development/my/DAVE/Infineon_CANopen/Libraries/XMCLib/inc\xmc_eth_mac.h ****   ETH_GLOBAL_TypeDef *regs;        /**< ETH module 0 (now, we have a single ETH module) */
 395:D:/Workspace/Development/my/DAVE/Infineon_CANopen/Libraries/XMCLib/inc\xmc_eth_mac.h ****   uint64_t address;              /**< MAC address */
 396:D:/Workspace/Development/my/DAVE/Infineon_CANopen/Libraries/XMCLib/inc\xmc_eth_mac.h ****   XMC_ETH_MAC_DMA_DESC_t *rx_desc; /**< DMA descriptor: RX */
 397:D:/Workspace/Development/my/DAVE/Infineon_CANopen/Libraries/XMCLib/inc\xmc_eth_mac.h ****   XMC_ETH_MAC_DMA_DESC_t *tx_desc; /**< DMA descriptor: TX */
 398:D:/Workspace/Development/my/DAVE/Infineon_CANopen/Libraries/XMCLib/inc\xmc_eth_mac.h ****   uint8_t *rx_buf;                /**< RX buffer */
 399:D:/Workspace/Development/my/DAVE/Infineon_CANopen/Libraries/XMCLib/inc\xmc_eth_mac.h ****   uint8_t *tx_buf;                /**< TX buffer */
 400:D:/Workspace/Development/my/DAVE/Infineon_CANopen/Libraries/XMCLib/inc\xmc_eth_mac.h ****   uint8_t *frame_end;              /**< End of assembled frame fragments */
 401:D:/Workspace/Development/my/DAVE/Infineon_CANopen/Libraries/XMCLib/inc\xmc_eth_mac.h ****   uint8_t num_rx_buf;              /**< How many RX descriptors? */
 402:D:/Workspace/Development/my/DAVE/Infineon_CANopen/Libraries/XMCLib/inc\xmc_eth_mac.h ****   uint8_t num_tx_buf;              /**< How many TX descriptors? */
 403:D:/Workspace/Development/my/DAVE/Infineon_CANopen/Libraries/XMCLib/inc\xmc_eth_mac.h ****   uint8_t tx_index;                /**< Transmit descriptor index */
 404:D:/Workspace/Development/my/DAVE/Infineon_CANopen/Libraries/XMCLib/inc\xmc_eth_mac.h ****   uint8_t rx_index;                /**< Receive descriptor index */
 405:D:/Workspace/Development/my/DAVE/Infineon_CANopen/Libraries/XMCLib/inc\xmc_eth_mac.h ****   uint8_t tx_ts_index;             /**< Transmit time-stamp descriptor index */
 406:D:/Workspace/Development/my/DAVE/Infineon_CANopen/Libraries/XMCLib/inc\xmc_eth_mac.h **** } XMC_ETH_MAC_t;
 407:D:/Workspace/Development/my/DAVE/Infineon_CANopen/Libraries/XMCLib/inc\xmc_eth_mac.h **** 
 408:D:/Workspace/Development/my/DAVE/Infineon_CANopen/Libraries/XMCLib/inc\xmc_eth_mac.h **** /* Anonymous structure/union guard end */
 409:D:/Workspace/Development/my/DAVE/Infineon_CANopen/Libraries/XMCLib/inc\xmc_eth_mac.h **** #if defined (__CC_ARM)
 410:D:/Workspace/Development/my/DAVE/Infineon_CANopen/Libraries/XMCLib/inc\xmc_eth_mac.h **** #pragma pop
 411:D:/Workspace/Development/my/DAVE/Infineon_CANopen/Libraries/XMCLib/inc\xmc_eth_mac.h **** #elif defined (__TASKING__)
 412:D:/Workspace/Development/my/DAVE/Infineon_CANopen/Libraries/XMCLib/inc\xmc_eth_mac.h **** #pragma warning restore
 413:D:/Workspace/Development/my/DAVE/Infineon_CANopen/Libraries/XMCLib/inc\xmc_eth_mac.h **** #endif
 414:D:/Workspace/Development/my/DAVE/Infineon_CANopen/Libraries/XMCLib/inc\xmc_eth_mac.h **** 
 415:D:/Workspace/Development/my/DAVE/Infineon_CANopen/Libraries/XMCLib/inc\xmc_eth_mac.h **** /**************************************************************************************************
 416:D:/Workspace/Development/my/DAVE/Infineon_CANopen/Libraries/XMCLib/inc\xmc_eth_mac.h ****  * API PROTOTYPES
 417:D:/Workspace/Development/my/DAVE/Infineon_CANopen/Libraries/XMCLib/inc\xmc_eth_mac.h ****  **************************************************************************************************
 418:D:/Workspace/Development/my/DAVE/Infineon_CANopen/Libraries/XMCLib/inc\xmc_eth_mac.h **** 
 419:D:/Workspace/Development/my/DAVE/Infineon_CANopen/Libraries/XMCLib/inc\xmc_eth_mac.h **** #ifdef __cplusplus
 420:D:/Workspace/Development/my/DAVE/Infineon_CANopen/Libraries/XMCLib/inc\xmc_eth_mac.h **** extern "C" {
 421:D:/Workspace/Development/my/DAVE/Infineon_CANopen/Libraries/XMCLib/inc\xmc_eth_mac.h **** #endif
 422:D:/Workspace/Development/my/DAVE/Infineon_CANopen/Libraries/XMCLib/inc\xmc_eth_mac.h **** 
 423:D:/Workspace/Development/my/DAVE/Infineon_CANopen/Libraries/XMCLib/inc\xmc_eth_mac.h **** /**
 424:D:/Workspace/Development/my/DAVE/Infineon_CANopen/Libraries/XMCLib/inc\xmc_eth_mac.h ****  * @param eth_mac A constant pointer to XMC_ETH_MAC_t, pointing to the ETH MAC base address
 425:D:/Workspace/Development/my/DAVE/Infineon_CANopen/Libraries/XMCLib/inc\xmc_eth_mac.h ****  * @return XMC_ETH_MAC_STATUS_t Initialization status
 426:D:/Workspace/Development/my/DAVE/Infineon_CANopen/Libraries/XMCLib/inc\xmc_eth_mac.h ****  *
 427:D:/Workspace/Development/my/DAVE/Infineon_CANopen/Libraries/XMCLib/inc\xmc_eth_mac.h ****  * \par<b>Description: </b><br>
 428:D:/Workspace/Development/my/DAVE/Infineon_CANopen/Libraries/XMCLib/inc\xmc_eth_mac.h ****  * Initialize the Ethernet MAC peripheral <br>
 429:D:/Workspace/Development/my/DAVE/Infineon_CANopen/Libraries/XMCLib/inc\xmc_eth_mac.h ****  *
 430:D:/Workspace/Development/my/DAVE/Infineon_CANopen/Libraries/XMCLib/inc\xmc_eth_mac.h ****  * \par
 431:D:/Workspace/Development/my/DAVE/Infineon_CANopen/Libraries/XMCLib/inc\xmc_eth_mac.h ****  * The function sets the link speed, applies the duplex mode, sets auto-negotiation
 432:D:/Workspace/Development/my/DAVE/Infineon_CANopen/Libraries/XMCLib/inc\xmc_eth_mac.h ****  * and loop-back settings.
 433:D:/Workspace/Development/my/DAVE/Infineon_CANopen/Libraries/XMCLib/inc\xmc_eth_mac.h ****  */
 434:D:/Workspace/Development/my/DAVE/Infineon_CANopen/Libraries/XMCLib/inc\xmc_eth_mac.h **** XMC_ETH_MAC_STATUS_t XMC_ETH_MAC_Init(XMC_ETH_MAC_t *const eth_mac);
 435:D:/Workspace/Development/my/DAVE/Infineon_CANopen/Libraries/XMCLib/inc\xmc_eth_mac.h **** 
 436:D:/Workspace/Development/my/DAVE/Infineon_CANopen/Libraries/XMCLib/inc\xmc_eth_mac.h **** /**
 437:D:/Workspace/Development/my/DAVE/Infineon_CANopen/Libraries/XMCLib/inc\xmc_eth_mac.h ****  * @param eth_mac A constant pointer to XMC_ETH_MAC_t, pointing to the ETH MAC base address
 438:D:/Workspace/Development/my/DAVE/Infineon_CANopen/Libraries/XMCLib/inc\xmc_eth_mac.h ****  * @return None
 439:D:/Workspace/Development/my/DAVE/Infineon_CANopen/Libraries/XMCLib/inc\xmc_eth_mac.h ****  *
 440:D:/Workspace/Development/my/DAVE/Infineon_CANopen/Libraries/XMCLib/inc\xmc_eth_mac.h ****  * \par<b>Description: </b><br>
 441:D:/Workspace/Development/my/DAVE/Infineon_CANopen/Libraries/XMCLib/inc\xmc_eth_mac.h ****  * Initialize the Ethernet MAC peripheral. <br>
 442:D:/Workspace/Development/my/DAVE/Infineon_CANopen/Libraries/XMCLib/inc\xmc_eth_mac.h ****  * Required when initializing the PHY, to deliver the clocks to the MAC, before MAC is reseted.
 443:D:/Workspace/Development/my/DAVE/Infineon_CANopen/Libraries/XMCLib/inc\xmc_eth_mac.h ****  * \note The module needs to be enabled before using XMC_ETH_MAC_Enable() <br>
 444:D:/Workspace/Development/my/DAVE/Infineon_CANopen/Libraries/XMCLib/inc\xmc_eth_mac.h ****  *
 445:D:/Workspace/Development/my/DAVE/Infineon_CANopen/Libraries/XMCLib/inc\xmc_eth_mac.h ****  * \par
 446:D:/Workspace/Development/my/DAVE/Infineon_CANopen/Libraries/XMCLib/inc\xmc_eth_mac.h ****  * The function sets the link speed, applies the duplex mode, sets auto-negotiation
 447:D:/Workspace/Development/my/DAVE/Infineon_CANopen/Libraries/XMCLib/inc\xmc_eth_mac.h ****  * and loop-back settings.
 448:D:/Workspace/Development/my/DAVE/Infineon_CANopen/Libraries/XMCLib/inc\xmc_eth_mac.h ****  */
 449:D:/Workspace/Development/my/DAVE/Infineon_CANopen/Libraries/XMCLib/inc\xmc_eth_mac.h **** void XMC_ETH_MAC_InitEx(XMC_ETH_MAC_t *const eth_mac);
 450:D:/Workspace/Development/my/DAVE/Infineon_CANopen/Libraries/XMCLib/inc\xmc_eth_mac.h **** 
 451:D:/Workspace/Development/my/DAVE/Infineon_CANopen/Libraries/XMCLib/inc\xmc_eth_mac.h **** /**
 452:D:/Workspace/Development/my/DAVE/Infineon_CANopen/Libraries/XMCLib/inc\xmc_eth_mac.h ****  * @param eth_mac A constant pointer to XMC_ETH_MAC_t, pointing to the ETH MAC base address
 453:D:/Workspace/Development/my/DAVE/Infineon_CANopen/Libraries/XMCLib/inc\xmc_eth_mac.h ****  * @return None
 454:D:/Workspace/Development/my/DAVE/Infineon_CANopen/Libraries/XMCLib/inc\xmc_eth_mac.h ****  *
 455:D:/Workspace/Development/my/DAVE/Infineon_CANopen/Libraries/XMCLib/inc\xmc_eth_mac.h ****  * \par<b>Description: </b><br>
 456:D:/Workspace/Development/my/DAVE/Infineon_CANopen/Libraries/XMCLib/inc\xmc_eth_mac.h ****  * Initialize the RX DMA descriptors <br>
 457:D:/Workspace/Development/my/DAVE/Infineon_CANopen/Libraries/XMCLib/inc\xmc_eth_mac.h ****  *
 458:D:/Workspace/Development/my/DAVE/Infineon_CANopen/Libraries/XMCLib/inc\xmc_eth_mac.h ****  * \par
 459:D:/Workspace/Development/my/DAVE/Infineon_CANopen/Libraries/XMCLib/inc\xmc_eth_mac.h ****  * The function initializes the RX descriptors in a chained configuration. It sets
 460:D:/Workspace/Development/my/DAVE/Infineon_CANopen/Libraries/XMCLib/inc\xmc_eth_mac.h ****  * up the status bit, control bit, buffer length and the buffer pointer.
 461:D:/Workspace/Development/my/DAVE/Infineon_CANopen/Libraries/XMCLib/inc\xmc_eth_mac.h ****  */
 462:D:/Workspace/Development/my/DAVE/Infineon_CANopen/Libraries/XMCLib/inc\xmc_eth_mac.h **** void XMC_ETH_MAC_InitRxDescriptors(XMC_ETH_MAC_t *const eth_mac);
 463:D:/Workspace/Development/my/DAVE/Infineon_CANopen/Libraries/XMCLib/inc\xmc_eth_mac.h **** 
 464:D:/Workspace/Development/my/DAVE/Infineon_CANopen/Libraries/XMCLib/inc\xmc_eth_mac.h **** /**
 465:D:/Workspace/Development/my/DAVE/Infineon_CANopen/Libraries/XMCLib/inc\xmc_eth_mac.h ****  * @param eth_mac A constant pointer to XMC_ETH_MAC_t, pointing to the ETH MAC base address
 466:D:/Workspace/Development/my/DAVE/Infineon_CANopen/Libraries/XMCLib/inc\xmc_eth_mac.h ****  * @return None
 467:D:/Workspace/Development/my/DAVE/Infineon_CANopen/Libraries/XMCLib/inc\xmc_eth_mac.h ****  *
 468:D:/Workspace/Development/my/DAVE/Infineon_CANopen/Libraries/XMCLib/inc\xmc_eth_mac.h ****  * \par<b>Description: </b><br>
 469:D:/Workspace/Development/my/DAVE/Infineon_CANopen/Libraries/XMCLib/inc\xmc_eth_mac.h ****  * Initialize the TX DMA descriptors <br>
 470:D:/Workspace/Development/my/DAVE/Infineon_CANopen/Libraries/XMCLib/inc\xmc_eth_mac.h ****  *
 471:D:/Workspace/Development/my/DAVE/Infineon_CANopen/Libraries/XMCLib/inc\xmc_eth_mac.h ****  * \par
 472:D:/Workspace/Development/my/DAVE/Infineon_CANopen/Libraries/XMCLib/inc\xmc_eth_mac.h ****  * The function initializes the TX descriptors in a chained configuration. It sets
 473:D:/Workspace/Development/my/DAVE/Infineon_CANopen/Libraries/XMCLib/inc\xmc_eth_mac.h ****  * up the status bit, control bit, buffer length and the buffer pointer.
 474:D:/Workspace/Development/my/DAVE/Infineon_CANopen/Libraries/XMCLib/inc\xmc_eth_mac.h ****  */
 475:D:/Workspace/Development/my/DAVE/Infineon_CANopen/Libraries/XMCLib/inc\xmc_eth_mac.h **** void XMC_ETH_MAC_InitTxDescriptors(XMC_ETH_MAC_t *const eth_mac);
 476:D:/Workspace/Development/my/DAVE/Infineon_CANopen/Libraries/XMCLib/inc\xmc_eth_mac.h **** 
 477:D:/Workspace/Development/my/DAVE/Infineon_CANopen/Libraries/XMCLib/inc\xmc_eth_mac.h **** /**
 478:D:/Workspace/Development/my/DAVE/Infineon_CANopen/Libraries/XMCLib/inc\xmc_eth_mac.h ****  * @param eth_mac A constant pointer to XMC_ETH_MAC_t, pointing to the ETH MAC base address
 479:D:/Workspace/Development/my/DAVE/Infineon_CANopen/Libraries/XMCLib/inc\xmc_eth_mac.h ****  * @return None
 480:D:/Workspace/Development/my/DAVE/Infineon_CANopen/Libraries/XMCLib/inc\xmc_eth_mac.h ****  *
 481:D:/Workspace/Development/my/DAVE/Infineon_CANopen/Libraries/XMCLib/inc\xmc_eth_mac.h ****  * \par<b>Description: </b><br>
 482:D:/Workspace/Development/my/DAVE/Infineon_CANopen/Libraries/XMCLib/inc\xmc_eth_mac.h ****  * Enable the Ethernet MAC peripheral <br>
 483:D:/Workspace/Development/my/DAVE/Infineon_CANopen/Libraries/XMCLib/inc\xmc_eth_mac.h ****  *
 484:D:/Workspace/Development/my/DAVE/Infineon_CANopen/Libraries/XMCLib/inc\xmc_eth_mac.h ****  * \par
 485:D:/Workspace/Development/my/DAVE/Infineon_CANopen/Libraries/XMCLib/inc\xmc_eth_mac.h ****  * The function de-asserts the peripheral reset.
 486:D:/Workspace/Development/my/DAVE/Infineon_CANopen/Libraries/XMCLib/inc\xmc_eth_mac.h ****  */
 487:D:/Workspace/Development/my/DAVE/Infineon_CANopen/Libraries/XMCLib/inc\xmc_eth_mac.h **** void XMC_ETH_MAC_Enable(XMC_ETH_MAC_t *const eth_mac);
 488:D:/Workspace/Development/my/DAVE/Infineon_CANopen/Libraries/XMCLib/inc\xmc_eth_mac.h **** 
 489:D:/Workspace/Development/my/DAVE/Infineon_CANopen/Libraries/XMCLib/inc\xmc_eth_mac.h **** /**
 490:D:/Workspace/Development/my/DAVE/Infineon_CANopen/Libraries/XMCLib/inc\xmc_eth_mac.h ****  * @param eth_mac A constant pointer to XMC_ETH_MAC_t, pointing to the ETH MAC base address
 491:D:/Workspace/Development/my/DAVE/Infineon_CANopen/Libraries/XMCLib/inc\xmc_eth_mac.h ****  * @return None
 492:D:/Workspace/Development/my/DAVE/Infineon_CANopen/Libraries/XMCLib/inc\xmc_eth_mac.h ****  *
 493:D:/Workspace/Development/my/DAVE/Infineon_CANopen/Libraries/XMCLib/inc\xmc_eth_mac.h ****  * \par<b>Description: </b><br>
 494:D:/Workspace/Development/my/DAVE/Infineon_CANopen/Libraries/XMCLib/inc\xmc_eth_mac.h ****  * Disable the Ethernet MAC peripheral <br>
 495:D:/Workspace/Development/my/DAVE/Infineon_CANopen/Libraries/XMCLib/inc\xmc_eth_mac.h ****  *
 496:D:/Workspace/Development/my/DAVE/Infineon_CANopen/Libraries/XMCLib/inc\xmc_eth_mac.h ****  * \par
 497:D:/Workspace/Development/my/DAVE/Infineon_CANopen/Libraries/XMCLib/inc\xmc_eth_mac.h ****  * The function asserts the peripheral reset.
 498:D:/Workspace/Development/my/DAVE/Infineon_CANopen/Libraries/XMCLib/inc\xmc_eth_mac.h ****  */
 499:D:/Workspace/Development/my/DAVE/Infineon_CANopen/Libraries/XMCLib/inc\xmc_eth_mac.h **** void XMC_ETH_MAC_Disable(XMC_ETH_MAC_t *const eth_mac);
 500:D:/Workspace/Development/my/DAVE/Infineon_CANopen/Libraries/XMCLib/inc\xmc_eth_mac.h **** 
 501:D:/Workspace/Development/my/DAVE/Infineon_CANopen/Libraries/XMCLib/inc\xmc_eth_mac.h **** /**
 502:D:/Workspace/Development/my/DAVE/Infineon_CANopen/Libraries/XMCLib/inc\xmc_eth_mac.h ****  * @param eth_mac A constant pointer to XMC_ETH_MAC_t, pointing to the ETH MAC base address
 503:D:/Workspace/Development/my/DAVE/Infineon_CANopen/Libraries/XMCLib/inc\xmc_eth_mac.h ****  * @return None
 504:D:/Workspace/Development/my/DAVE/Infineon_CANopen/Libraries/XMCLib/inc\xmc_eth_mac.h ****  *
 505:D:/Workspace/Development/my/DAVE/Infineon_CANopen/Libraries/XMCLib/inc\xmc_eth_mac.h ****  * \par<b>Description: </b><br>
 506:D:/Workspace/Development/my/DAVE/Infineon_CANopen/Libraries/XMCLib/inc\xmc_eth_mac.h ****  * Reset the ETH MAC peripheral <br>
 507:D:/Workspace/Development/my/DAVE/Infineon_CANopen/Libraries/XMCLib/inc\xmc_eth_mac.h ****  *
 508:D:/Workspace/Development/my/DAVE/Infineon_CANopen/Libraries/XMCLib/inc\xmc_eth_mac.h ****  * \par
 509:D:/Workspace/Development/my/DAVE/Infineon_CANopen/Libraries/XMCLib/inc\xmc_eth_mac.h ****  * The function resets the ETH MAC peripheral. It blocks until reset.
 510:D:/Workspace/Development/my/DAVE/Infineon_CANopen/Libraries/XMCLib/inc\xmc_eth_mac.h ****  */
 511:D:/Workspace/Development/my/DAVE/Infineon_CANopen/Libraries/XMCLib/inc\xmc_eth_mac.h **** __STATIC_INLINE void XMC_ETH_MAC_Reset(XMC_ETH_MAC_t *const eth_mac)
 512:D:/Workspace/Development/my/DAVE/Infineon_CANopen/Libraries/XMCLib/inc\xmc_eth_mac.h **** {
  27              	 .loc 1 512 0
  28              	 .cfi_startproc
  29              	 
  30              	 
  31              	 
  32 0000 80B4     	 push {r7}
  33              	.LCFI0:
  34              	 .cfi_def_cfa_offset 4
  35              	 .cfi_offset 7,-4
  36 0002 83B0     	 sub sp,sp,#12
  37              	.LCFI1:
  38              	 .cfi_def_cfa_offset 16
  39 0004 00AF     	 add r7,sp,#0
  40              	.LCFI2:
  41              	 .cfi_def_cfa_register 7
  42 0006 7860     	 str r0,[r7,#4]
 513:D:/Workspace/Development/my/DAVE/Infineon_CANopen/Libraries/XMCLib/inc\xmc_eth_mac.h ****   eth_mac->regs->BUS_MODE |= (uint32_t)ETH_BUS_MODE_SWR_Msk;
  43              	 .loc 1 513 0
  44 0008 7B68     	 ldr r3,[r7,#4]
  45 000a 1B68     	 ldr r3,[r3]
  46 000c 7A68     	 ldr r2,[r7,#4]
  47 000e 1268     	 ldr r2,[r2]
  48 0010 02F58052 	 add r2,r2,#4096
  49 0014 1268     	 ldr r2,[r2]
  50 0016 42F00102 	 orr r2,r2,#1
  51 001a 03F58053 	 add r3,r3,#4096
  52 001e 1A60     	 str r2,[r3]
 514:D:/Workspace/Development/my/DAVE/Infineon_CANopen/Libraries/XMCLib/inc\xmc_eth_mac.h ****   while ((eth_mac->regs->BUS_MODE & (uint32_t)ETH_BUS_MODE_SWR_Msk) != 0U)
  53              	 .loc 1 514 0
  54 0020 00BF     	 nop
  55              	.L2:
  56              	 .loc 1 514 0 is_stmt 0 discriminator 1
  57 0022 7B68     	 ldr r3,[r7,#4]
  58 0024 1B68     	 ldr r3,[r3]
  59 0026 03F58053 	 add r3,r3,#4096
  60 002a 1B68     	 ldr r3,[r3]
  61 002c 03F00103 	 and r3,r3,#1
  62 0030 002B     	 cmp r3,#0
  63 0032 F6D1     	 bne .L2
 515:D:/Workspace/Development/my/DAVE/Infineon_CANopen/Libraries/XMCLib/inc\xmc_eth_mac.h ****   {
 516:D:/Workspace/Development/my/DAVE/Infineon_CANopen/Libraries/XMCLib/inc\xmc_eth_mac.h ****   }
 517:D:/Workspace/Development/my/DAVE/Infineon_CANopen/Libraries/XMCLib/inc\xmc_eth_mac.h **** }
  64              	 .loc 1 517 0 is_stmt 1
  65 0034 0C37     	 adds r7,r7,#12
  66              	.LCFI3:
  67              	 .cfi_def_cfa_offset 4
  68 0036 BD46     	 mov sp,r7
  69              	.LCFI4:
  70              	 .cfi_def_cfa_register 13
  71              	 
  72 0038 5DF8047B 	 ldr r7,[sp],#4
  73              	.LCFI5:
  74              	 .cfi_restore 7
  75              	 .cfi_def_cfa_offset 0
  76 003c 7047     	 bx lr
  77              	 .cfi_endproc
  78              	.LFE133:
  80 003e 00BF     	 .section .text.XMC_ETH_MAC_SetAddress,"ax",%progbits
  81              	 .align 2
  82              	 .thumb
  83              	 .thumb_func
  85              	XMC_ETH_MAC_SetAddress:
  86              	.LFB135:
 518:D:/Workspace/Development/my/DAVE/Infineon_CANopen/Libraries/XMCLib/inc\xmc_eth_mac.h **** 
 519:D:/Workspace/Development/my/DAVE/Infineon_CANopen/Libraries/XMCLib/inc\xmc_eth_mac.h **** /**
 520:D:/Workspace/Development/my/DAVE/Infineon_CANopen/Libraries/XMCLib/inc\xmc_eth_mac.h ****  * @param eth_mac A constant pointer to XMC_ETH_MAC_t, pointing to the ETH MAC base address
 521:D:/Workspace/Development/my/DAVE/Infineon_CANopen/Libraries/XMCLib/inc\xmc_eth_mac.h ****  * @param phy_addr PHY address
 522:D:/Workspace/Development/my/DAVE/Infineon_CANopen/Libraries/XMCLib/inc\xmc_eth_mac.h ****  * @param reg_addr Register address
 523:D:/Workspace/Development/my/DAVE/Infineon_CANopen/Libraries/XMCLib/inc\xmc_eth_mac.h ****  * @param data The destination to which the read data needs to be copied to
 524:D:/Workspace/Development/my/DAVE/Infineon_CANopen/Libraries/XMCLib/inc\xmc_eth_mac.h ****  * @return XMC_ETH_MAC_STATUS_t ETH MAC status
 525:D:/Workspace/Development/my/DAVE/Infineon_CANopen/Libraries/XMCLib/inc\xmc_eth_mac.h ****  *
 526:D:/Workspace/Development/my/DAVE/Infineon_CANopen/Libraries/XMCLib/inc\xmc_eth_mac.h ****  * \par<b>Description: </b><br>
 527:D:/Workspace/Development/my/DAVE/Infineon_CANopen/Libraries/XMCLib/inc\xmc_eth_mac.h ****  * Read a PHY register <br>
 528:D:/Workspace/Development/my/DAVE/Infineon_CANopen/Libraries/XMCLib/inc\xmc_eth_mac.h ****  *
 529:D:/Workspace/Development/my/DAVE/Infineon_CANopen/Libraries/XMCLib/inc\xmc_eth_mac.h ****  * \par
 530:D:/Workspace/Development/my/DAVE/Infineon_CANopen/Libraries/XMCLib/inc\xmc_eth_mac.h ****  * The function reads a PHY register. It essentially polls busy bit during max
 531:D:/Workspace/Development/my/DAVE/Infineon_CANopen/Libraries/XMCLib/inc\xmc_eth_mac.h ****  * PHY_TIMEOUT time and reads the information into 'data' when not busy.
 532:D:/Workspace/Development/my/DAVE/Infineon_CANopen/Libraries/XMCLib/inc\xmc_eth_mac.h ****  */
 533:D:/Workspace/Development/my/DAVE/Infineon_CANopen/Libraries/XMCLib/inc\xmc_eth_mac.h **** XMC_ETH_MAC_STATUS_t XMC_ETH_MAC_ReadPhy(XMC_ETH_MAC_t *const eth_mac, uint8_t phy_addr, uint8_t re
 534:D:/Workspace/Development/my/DAVE/Infineon_CANopen/Libraries/XMCLib/inc\xmc_eth_mac.h **** 
 535:D:/Workspace/Development/my/DAVE/Infineon_CANopen/Libraries/XMCLib/inc\xmc_eth_mac.h **** /**
 536:D:/Workspace/Development/my/DAVE/Infineon_CANopen/Libraries/XMCLib/inc\xmc_eth_mac.h ****  * @param eth_mac A constant pointer to XMC_ETH_MAC_t, pointing to the ETH MAC base address
 537:D:/Workspace/Development/my/DAVE/Infineon_CANopen/Libraries/XMCLib/inc\xmc_eth_mac.h ****  * @param phy_addr PHY address
 538:D:/Workspace/Development/my/DAVE/Infineon_CANopen/Libraries/XMCLib/inc\xmc_eth_mac.h ****  * @param reg_addr Register address
 539:D:/Workspace/Development/my/DAVE/Infineon_CANopen/Libraries/XMCLib/inc\xmc_eth_mac.h ****  * @param data The data to write
 540:D:/Workspace/Development/my/DAVE/Infineon_CANopen/Libraries/XMCLib/inc\xmc_eth_mac.h ****  * @return XMC_ETH_MAC_STATUS_t ETH MAC status
 541:D:/Workspace/Development/my/DAVE/Infineon_CANopen/Libraries/XMCLib/inc\xmc_eth_mac.h ****  *
 542:D:/Workspace/Development/my/DAVE/Infineon_CANopen/Libraries/XMCLib/inc\xmc_eth_mac.h ****  * \par<b>Description: </b><br>
 543:D:/Workspace/Development/my/DAVE/Infineon_CANopen/Libraries/XMCLib/inc\xmc_eth_mac.h ****  * Write a PHY register <br>
 544:D:/Workspace/Development/my/DAVE/Infineon_CANopen/Libraries/XMCLib/inc\xmc_eth_mac.h ****  *
 545:D:/Workspace/Development/my/DAVE/Infineon_CANopen/Libraries/XMCLib/inc\xmc_eth_mac.h ****  * \par
 546:D:/Workspace/Development/my/DAVE/Infineon_CANopen/Libraries/XMCLib/inc\xmc_eth_mac.h ****  * The function reads a PHY register. It essentially writes the data and polls
 547:D:/Workspace/Development/my/DAVE/Infineon_CANopen/Libraries/XMCLib/inc\xmc_eth_mac.h ****  * the busy bit until it is no longer busy.
 548:D:/Workspace/Development/my/DAVE/Infineon_CANopen/Libraries/XMCLib/inc\xmc_eth_mac.h ****  */
 549:D:/Workspace/Development/my/DAVE/Infineon_CANopen/Libraries/XMCLib/inc\xmc_eth_mac.h **** XMC_ETH_MAC_STATUS_t XMC_ETH_MAC_WritePhy(XMC_ETH_MAC_t *const eth_mac, uint8_t phy_addr, uint8_t r
 550:D:/Workspace/Development/my/DAVE/Infineon_CANopen/Libraries/XMCLib/inc\xmc_eth_mac.h **** 
 551:D:/Workspace/Development/my/DAVE/Infineon_CANopen/Libraries/XMCLib/inc\xmc_eth_mac.h **** /**
 552:D:/Workspace/Development/my/DAVE/Infineon_CANopen/Libraries/XMCLib/inc\xmc_eth_mac.h ****  * @param eth_mac A constant pointer to XMC_ETH_MAC_t, pointing to the ETH MAC base address
 553:D:/Workspace/Development/my/DAVE/Infineon_CANopen/Libraries/XMCLib/inc\xmc_eth_mac.h ****  * @param port_ctrl Port control configuration
 554:D:/Workspace/Development/my/DAVE/Infineon_CANopen/Libraries/XMCLib/inc\xmc_eth_mac.h ****  * @return None
 555:D:/Workspace/Development/my/DAVE/Infineon_CANopen/Libraries/XMCLib/inc\xmc_eth_mac.h ****  *
 556:D:/Workspace/Development/my/DAVE/Infineon_CANopen/Libraries/XMCLib/inc\xmc_eth_mac.h ****  * \par<b>Description: </b><br>
 557:D:/Workspace/Development/my/DAVE/Infineon_CANopen/Libraries/XMCLib/inc\xmc_eth_mac.h ****  * Set port control configuration <br>
 558:D:/Workspace/Development/my/DAVE/Infineon_CANopen/Libraries/XMCLib/inc\xmc_eth_mac.h ****  *
 559:D:/Workspace/Development/my/DAVE/Infineon_CANopen/Libraries/XMCLib/inc\xmc_eth_mac.h ****  * \par
 560:D:/Workspace/Development/my/DAVE/Infineon_CANopen/Libraries/XMCLib/inc\xmc_eth_mac.h ****  * The function sets the port control by writing the configuration into the
 561:D:/Workspace/Development/my/DAVE/Infineon_CANopen/Libraries/XMCLib/inc\xmc_eth_mac.h ****  * CON register.
 562:D:/Workspace/Development/my/DAVE/Infineon_CANopen/Libraries/XMCLib/inc\xmc_eth_mac.h ****  *
 563:D:/Workspace/Development/my/DAVE/Infineon_CANopen/Libraries/XMCLib/inc\xmc_eth_mac.h ****  * \note
 564:D:/Workspace/Development/my/DAVE/Infineon_CANopen/Libraries/XMCLib/inc\xmc_eth_mac.h ****  * MII Mode is only available in:
 565:D:/Workspace/Development/my/DAVE/Infineon_CANopen/Libraries/XMCLib/inc\xmc_eth_mac.h ****  * - XMC4500 LQFP144 and BGA144 packages
 566:D:/Workspace/Development/my/DAVE/Infineon_CANopen/Libraries/XMCLib/inc\xmc_eth_mac.h ****  * - XMC4700 LQFP144 and BGA196 packages
 567:D:/Workspace/Development/my/DAVE/Infineon_CANopen/Libraries/XMCLib/inc\xmc_eth_mac.h ****  * - XMC4800 LQFP144 and BGA196 packages
 568:D:/Workspace/Development/my/DAVE/Infineon_CANopen/Libraries/XMCLib/inc\xmc_eth_mac.h ****  *
 569:D:/Workspace/Development/my/DAVE/Infineon_CANopen/Libraries/XMCLib/inc\xmc_eth_mac.h ****  */
 570:D:/Workspace/Development/my/DAVE/Infineon_CANopen/Libraries/XMCLib/inc\xmc_eth_mac.h **** __STATIC_INLINE void XMC_ETH_MAC_SetPortControl(XMC_ETH_MAC_t *const eth_mac, const XMC_ETH_MAC_POR
 571:D:/Workspace/Development/my/DAVE/Infineon_CANopen/Libraries/XMCLib/inc\xmc_eth_mac.h **** {
 572:D:/Workspace/Development/my/DAVE/Infineon_CANopen/Libraries/XMCLib/inc\xmc_eth_mac.h ****   XMC_UNUSED_ARG(eth_mac);
 573:D:/Workspace/Development/my/DAVE/Infineon_CANopen/Libraries/XMCLib/inc\xmc_eth_mac.h ****   ETH0_CON->CON = (uint32_t)port_ctrl.raw;
 574:D:/Workspace/Development/my/DAVE/Infineon_CANopen/Libraries/XMCLib/inc\xmc_eth_mac.h **** }
 575:D:/Workspace/Development/my/DAVE/Infineon_CANopen/Libraries/XMCLib/inc\xmc_eth_mac.h **** 
 576:D:/Workspace/Development/my/DAVE/Infineon_CANopen/Libraries/XMCLib/inc\xmc_eth_mac.h **** /**
 577:D:/Workspace/Development/my/DAVE/Infineon_CANopen/Libraries/XMCLib/inc\xmc_eth_mac.h ****  * @param eth_mac A constant pointer to XMC_ETH_MAC_t, pointing to the ETH MAC base address
 578:D:/Workspace/Development/my/DAVE/Infineon_CANopen/Libraries/XMCLib/inc\xmc_eth_mac.h ****  * @return XMC_ETH_MAC_STATUS_t ETH MAC status
 579:D:/Workspace/Development/my/DAVE/Infineon_CANopen/Libraries/XMCLib/inc\xmc_eth_mac.h ****  *
 580:D:/Workspace/Development/my/DAVE/Infineon_CANopen/Libraries/XMCLib/inc\xmc_eth_mac.h ****  * \par<b>Description: </b><br>
 581:D:/Workspace/Development/my/DAVE/Infineon_CANopen/Libraries/XMCLib/inc\xmc_eth_mac.h ****  * Set management clock divider <br>
 582:D:/Workspace/Development/my/DAVE/Infineon_CANopen/Libraries/XMCLib/inc\xmc_eth_mac.h ****  *
 583:D:/Workspace/Development/my/DAVE/Infineon_CANopen/Libraries/XMCLib/inc\xmc_eth_mac.h ****  * \par
 584:D:/Workspace/Development/my/DAVE/Infineon_CANopen/Libraries/XMCLib/inc\xmc_eth_mac.h ****  * The function sets the management clock divider by writing to the GMII_ADDRESS
 585:D:/Workspace/Development/my/DAVE/Infineon_CANopen/Libraries/XMCLib/inc\xmc_eth_mac.h ****  * register.
 586:D:/Workspace/Development/my/DAVE/Infineon_CANopen/Libraries/XMCLib/inc\xmc_eth_mac.h ****  */
 587:D:/Workspace/Development/my/DAVE/Infineon_CANopen/Libraries/XMCLib/inc\xmc_eth_mac.h **** XMC_ETH_MAC_STATUS_t XMC_ETH_MAC_SetManagmentClockDivider(XMC_ETH_MAC_t *const eth_mac);
 588:D:/Workspace/Development/my/DAVE/Infineon_CANopen/Libraries/XMCLib/inc\xmc_eth_mac.h **** 
 589:D:/Workspace/Development/my/DAVE/Infineon_CANopen/Libraries/XMCLib/inc\xmc_eth_mac.h **** /**
 590:D:/Workspace/Development/my/DAVE/Infineon_CANopen/Libraries/XMCLib/inc\xmc_eth_mac.h ****  * @param eth_mac A constant pointer to XMC_ETH_MAC_t, pointing to the ETH MAC base address
 591:D:/Workspace/Development/my/DAVE/Infineon_CANopen/Libraries/XMCLib/inc\xmc_eth_mac.h ****  * @param addr The MAC address to set
 592:D:/Workspace/Development/my/DAVE/Infineon_CANopen/Libraries/XMCLib/inc\xmc_eth_mac.h ****  * @return None
 593:D:/Workspace/Development/my/DAVE/Infineon_CANopen/Libraries/XMCLib/inc\xmc_eth_mac.h ****  *
 594:D:/Workspace/Development/my/DAVE/Infineon_CANopen/Libraries/XMCLib/inc\xmc_eth_mac.h ****  * \par<b>Description: </b><br>
 595:D:/Workspace/Development/my/DAVE/Infineon_CANopen/Libraries/XMCLib/inc\xmc_eth_mac.h ****  * Set MAC address <br>
 596:D:/Workspace/Development/my/DAVE/Infineon_CANopen/Libraries/XMCLib/inc\xmc_eth_mac.h ****  *
 597:D:/Workspace/Development/my/DAVE/Infineon_CANopen/Libraries/XMCLib/inc\xmc_eth_mac.h ****  * \par
 598:D:/Workspace/Development/my/DAVE/Infineon_CANopen/Libraries/XMCLib/inc\xmc_eth_mac.h ****  * The function sets the MAC address by writing to the MAC_ADDRESS0_HIGH and
 599:D:/Workspace/Development/my/DAVE/Infineon_CANopen/Libraries/XMCLib/inc\xmc_eth_mac.h ****  * MAC_ADDRESS0_LOW registers.
 600:D:/Workspace/Development/my/DAVE/Infineon_CANopen/Libraries/XMCLib/inc\xmc_eth_mac.h ****  */
 601:D:/Workspace/Development/my/DAVE/Infineon_CANopen/Libraries/XMCLib/inc\xmc_eth_mac.h **** __STATIC_INLINE void XMC_ETH_MAC_SetAddress(XMC_ETH_MAC_t *const eth_mac, uint64_t addr)
 602:D:/Workspace/Development/my/DAVE/Infineon_CANopen/Libraries/XMCLib/inc\xmc_eth_mac.h **** {
  87              	 .loc 1 602 0
  88              	 .cfi_startproc
  89              	 
  90              	 
  91              	 
  92 0000 B0B4     	 push {r4,r5,r7}
  93              	.LCFI6:
  94              	 .cfi_def_cfa_offset 12
  95              	 .cfi_offset 4,-12
  96              	 .cfi_offset 5,-8
  97              	 .cfi_offset 7,-4
  98 0002 85B0     	 sub sp,sp,#20
  99              	.LCFI7:
 100              	 .cfi_def_cfa_offset 32
 101 0004 00AF     	 add r7,sp,#0
 102              	.LCFI8:
 103              	 .cfi_def_cfa_register 7
 104 0006 F860     	 str r0,[r7,#12]
 105 0008 C7E90023 	 strd r2,[r7]
 603:D:/Workspace/Development/my/DAVE/Infineon_CANopen/Libraries/XMCLib/inc\xmc_eth_mac.h ****   eth_mac->regs->MAC_ADDRESS0_HIGH = (uint32_t)(addr >> 32);
 106              	 .loc 1 603 0
 107 000c FB68     	 ldr r3,[r7,#12]
 108 000e 1968     	 ldr r1,[r3]
 109 0010 D7E90023 	 ldrd r2,[r7]
 110 0014 1C00     	 movs r4,r3
 111 0016 0025     	 movs r5,#0
 112 0018 2346     	 mov r3,r4
 113 001a 0B64     	 str r3,[r1,#64]
 604:D:/Workspace/Development/my/DAVE/Infineon_CANopen/Libraries/XMCLib/inc\xmc_eth_mac.h ****   eth_mac->regs->MAC_ADDRESS0_LOW = (uint32_t)addr;
 114              	 .loc 1 604 0
 115 001c FB68     	 ldr r3,[r7,#12]
 116 001e 1B68     	 ldr r3,[r3]
 117 0020 3A68     	 ldr r2,[r7]
 118 0022 5A64     	 str r2,[r3,#68]
 605:D:/Workspace/Development/my/DAVE/Infineon_CANopen/Libraries/XMCLib/inc\xmc_eth_mac.h **** }
 119              	 .loc 1 605 0
 120 0024 1437     	 adds r7,r7,#20
 121              	.LCFI9:
 122              	 .cfi_def_cfa_offset 12
 123 0026 BD46     	 mov sp,r7
 124              	.LCFI10:
 125              	 .cfi_def_cfa_register 13
 126              	 
 127 0028 B0BC     	 pop {r4,r5,r7}
 128              	.LCFI11:
 129              	 .cfi_restore 7
 130              	 .cfi_restore 5
 131              	 .cfi_restore 4
 132              	 .cfi_def_cfa_offset 0
 133 002a 7047     	 bx lr
 134              	 .cfi_endproc
 135              	.LFE135:
 137              	 .section .text.XMC_SCU_CLOCK_GetSystemClockFrequency,"ax",%progbits
 138              	 .align 2
 139              	 .thumb
 140              	 .thumb_func
 142              	XMC_SCU_CLOCK_GetSystemClockFrequency:
 143              	.LFB220:
 144              	 .file 2 "D:/Workspace/Development/my/DAVE/Infineon_CANopen/Libraries/XMCLib/inc/xmc4_scu.h"
   1:D:/Workspace/Development/my/DAVE/Infineon_CANopen/Libraries/XMCLib/inc\xmc4_scu.h **** /**
   2:D:/Workspace/Development/my/DAVE/Infineon_CANopen/Libraries/XMCLib/inc\xmc4_scu.h ****  * @file xmc4_scu.h
   3:D:/Workspace/Development/my/DAVE/Infineon_CANopen/Libraries/XMCLib/inc\xmc4_scu.h ****  * @date 2019-02-18
   4:D:/Workspace/Development/my/DAVE/Infineon_CANopen/Libraries/XMCLib/inc\xmc4_scu.h ****  *
   5:D:/Workspace/Development/my/DAVE/Infineon_CANopen/Libraries/XMCLib/inc\xmc4_scu.h ****  * @cond
   6:D:/Workspace/Development/my/DAVE/Infineon_CANopen/Libraries/XMCLib/inc\xmc4_scu.h ****  *****************************************************************************
   7:D:/Workspace/Development/my/DAVE/Infineon_CANopen/Libraries/XMCLib/inc\xmc4_scu.h ****  * XMClib v2.2.0 - XMC Peripheral Driver Library
   8:D:/Workspace/Development/my/DAVE/Infineon_CANopen/Libraries/XMCLib/inc\xmc4_scu.h ****  *
   9:D:/Workspace/Development/my/DAVE/Infineon_CANopen/Libraries/XMCLib/inc\xmc4_scu.h ****  * Copyright (c) 2015-2020, Infineon Technologies AG
  10:D:/Workspace/Development/my/DAVE/Infineon_CANopen/Libraries/XMCLib/inc\xmc4_scu.h ****  * All rights reserved.
  11:D:/Workspace/Development/my/DAVE/Infineon_CANopen/Libraries/XMCLib/inc\xmc4_scu.h ****  *
  12:D:/Workspace/Development/my/DAVE/Infineon_CANopen/Libraries/XMCLib/inc\xmc4_scu.h ****  * Boost Software License - Version 1.0 - August 17th, 2003
  13:D:/Workspace/Development/my/DAVE/Infineon_CANopen/Libraries/XMCLib/inc\xmc4_scu.h ****  *
  14:D:/Workspace/Development/my/DAVE/Infineon_CANopen/Libraries/XMCLib/inc\xmc4_scu.h ****  * Permission is hereby granted, free of charge, to any person or organization
  15:D:/Workspace/Development/my/DAVE/Infineon_CANopen/Libraries/XMCLib/inc\xmc4_scu.h ****  * obtaining a copy of the software and accompanying documentation covered by
  16:D:/Workspace/Development/my/DAVE/Infineon_CANopen/Libraries/XMCLib/inc\xmc4_scu.h ****  * this license (the "Software") to use, reproduce, display, distribute,
  17:D:/Workspace/Development/my/DAVE/Infineon_CANopen/Libraries/XMCLib/inc\xmc4_scu.h ****  * execute, and transmit the Software, and to prepare derivative works of the
  18:D:/Workspace/Development/my/DAVE/Infineon_CANopen/Libraries/XMCLib/inc\xmc4_scu.h ****  * Software, and to permit third-parties to whom the Software is furnished to
  19:D:/Workspace/Development/my/DAVE/Infineon_CANopen/Libraries/XMCLib/inc\xmc4_scu.h ****  * do so, all subject to the following:
  20:D:/Workspace/Development/my/DAVE/Infineon_CANopen/Libraries/XMCLib/inc\xmc4_scu.h ****  *
  21:D:/Workspace/Development/my/DAVE/Infineon_CANopen/Libraries/XMCLib/inc\xmc4_scu.h ****  * The copyright notices in the Software and this entire statement, including
  22:D:/Workspace/Development/my/DAVE/Infineon_CANopen/Libraries/XMCLib/inc\xmc4_scu.h ****  * the above license grant, this restriction and the following disclaimer,
  23:D:/Workspace/Development/my/DAVE/Infineon_CANopen/Libraries/XMCLib/inc\xmc4_scu.h ****  * must be included in all copies of the Software, in whole or in part, and
  24:D:/Workspace/Development/my/DAVE/Infineon_CANopen/Libraries/XMCLib/inc\xmc4_scu.h ****  * all derivative works of the Software, unless such copies or derivative
  25:D:/Workspace/Development/my/DAVE/Infineon_CANopen/Libraries/XMCLib/inc\xmc4_scu.h ****  * works are solely in the form of machine-executable object code generated by
  26:D:/Workspace/Development/my/DAVE/Infineon_CANopen/Libraries/XMCLib/inc\xmc4_scu.h ****  * a source language processor.
  27:D:/Workspace/Development/my/DAVE/Infineon_CANopen/Libraries/XMCLib/inc\xmc4_scu.h ****  *
  28:D:/Workspace/Development/my/DAVE/Infineon_CANopen/Libraries/XMCLib/inc\xmc4_scu.h ****  * THE SOFTWARE IS PROVIDED "AS IS", WITHOUT WARRANTY OF ANY KIND, EXPRESS OR
  29:D:/Workspace/Development/my/DAVE/Infineon_CANopen/Libraries/XMCLib/inc\xmc4_scu.h ****  * IMPLIED, INCLUDING BUT NOT LIMITED TO THE WARRANTIES OF MERCHANTABILITY,
  30:D:/Workspace/Development/my/DAVE/Infineon_CANopen/Libraries/XMCLib/inc\xmc4_scu.h ****  * FITNESS FOR A PARTICULAR PURPOSE, TITLE AND NON-INFRINGEMENT. IN NO EVENT
  31:D:/Workspace/Development/my/DAVE/Infineon_CANopen/Libraries/XMCLib/inc\xmc4_scu.h ****  * SHALL THE COPYRIGHT HOLDERS OR ANYONE DISTRIBUTING THE SOFTWARE BE LIABLE
  32:D:/Workspace/Development/my/DAVE/Infineon_CANopen/Libraries/XMCLib/inc\xmc4_scu.h ****  * FOR ANY DAMAGES OR OTHER LIABILITY, WHETHER IN CONTRACT, TORT OR OTHERWISE,
  33:D:/Workspace/Development/my/DAVE/Infineon_CANopen/Libraries/XMCLib/inc\xmc4_scu.h ****  * ARISING FROM, OUT OF OR IN CONNECTION WITH THE SOFTWARE OR THE USE OR OTHER
  34:D:/Workspace/Development/my/DAVE/Infineon_CANopen/Libraries/XMCLib/inc\xmc4_scu.h ****  * DEALINGS IN THE SOFTWARE.
  35:D:/Workspace/Development/my/DAVE/Infineon_CANopen/Libraries/XMCLib/inc\xmc4_scu.h ****  *
  36:D:/Workspace/Development/my/DAVE/Infineon_CANopen/Libraries/XMCLib/inc\xmc4_scu.h ****  * To improve the quality of the software, users are encouraged to share
  37:D:/Workspace/Development/my/DAVE/Infineon_CANopen/Libraries/XMCLib/inc\xmc4_scu.h ****  * modifications, enhancements or bug fixes with Infineon Technologies AG
  38:D:/Workspace/Development/my/DAVE/Infineon_CANopen/Libraries/XMCLib/inc\xmc4_scu.h ****  * at XMCSupport@infineon.com.
  39:D:/Workspace/Development/my/DAVE/Infineon_CANopen/Libraries/XMCLib/inc\xmc4_scu.h ****  *****************************************************************************
  40:D:/Workspace/Development/my/DAVE/Infineon_CANopen/Libraries/XMCLib/inc\xmc4_scu.h ****  *
  41:D:/Workspace/Development/my/DAVE/Infineon_CANopen/Libraries/XMCLib/inc\xmc4_scu.h ****  * Change History
  42:D:/Workspace/Development/my/DAVE/Infineon_CANopen/Libraries/XMCLib/inc\xmc4_scu.h ****  * --------------
  43:D:/Workspace/Development/my/DAVE/Infineon_CANopen/Libraries/XMCLib/inc\xmc4_scu.h ****  *
  44:D:/Workspace/Development/my/DAVE/Infineon_CANopen/Libraries/XMCLib/inc\xmc4_scu.h ****  * 2015-06-20:
  45:D:/Workspace/Development/my/DAVE/Infineon_CANopen/Libraries/XMCLib/inc\xmc4_scu.h ****  *     - Initial version
  46:D:/Workspace/Development/my/DAVE/Infineon_CANopen/Libraries/XMCLib/inc\xmc4_scu.h ****  *     - Documentation improved
  47:D:/Workspace/Development/my/DAVE/Infineon_CANopen/Libraries/XMCLib/inc\xmc4_scu.h ****  *
  48:D:/Workspace/Development/my/DAVE/Infineon_CANopen/Libraries/XMCLib/inc\xmc4_scu.h ****  * 2015-11-30:
  49:D:/Workspace/Development/my/DAVE/Infineon_CANopen/Libraries/XMCLib/inc\xmc4_scu.h ****  *     - Documentation improved
  50:D:/Workspace/Development/my/DAVE/Infineon_CANopen/Libraries/XMCLib/inc\xmc4_scu.h ****  *
  51:D:/Workspace/Development/my/DAVE/Infineon_CANopen/Libraries/XMCLib/inc\xmc4_scu.h ****  * 2016-03-09:
  52:D:/Workspace/Development/my/DAVE/Infineon_CANopen/Libraries/XMCLib/inc\xmc4_scu.h ****  *     - Added XMC_SCU_POWER_EnableMonitor/XMC_SCU_POWER_DisableMonitor
  53:D:/Workspace/Development/my/DAVE/Infineon_CANopen/Libraries/XMCLib/inc\xmc4_scu.h ****  *             XMC_SCU_POWER_GetEVRStatus, XMC_SCU_POWER_GetEVR13Voltage, XMC_SCU_POWER_GetEVR33Vol
  54:D:/Workspace/Development/my/DAVE/Infineon_CANopen/Libraries/XMCLib/inc\xmc4_scu.h ****  *     - Added XMC_SCU_HIB_GetHibernateControlStatus,
  55:D:/Workspace/Development/my/DAVE/Infineon_CANopen/Libraries/XMCLib/inc\xmc4_scu.h ****  *             XMC_SCU_HIB_GetEventStatus, XMC_SCU_HIB_ClearEventStatus, XMC_SCU_HIB_TriggerEvent,
  56:D:/Workspace/Development/my/DAVE/Infineon_CANopen/Libraries/XMCLib/inc\xmc4_scu.h ****  *             XMC_SCU_HIB_EnableEvent, XMC_SCU_HIB_DisableEvent
  57:D:/Workspace/Development/my/DAVE/Infineon_CANopen/Libraries/XMCLib/inc\xmc4_scu.h ****  *     - Added XMC_SCU_HIB_SetWakeupTriggerInput, XMC_SCU_HIB_SetPinMode, XMC_SCU_HIB_SetOutputPinL
  58:D:/Workspace/Development/my/DAVE/Infineon_CANopen/Libraries/XMCLib/inc\xmc4_scu.h ****  *             XMC_SCU_HIB_SetInput0, XMC_SCU_HIB_EnterHibernateState
  59:D:/Workspace/Development/my/DAVE/Infineon_CANopen/Libraries/XMCLib/inc\xmc4_scu.h ****  *
  60:D:/Workspace/Development/my/DAVE/Infineon_CANopen/Libraries/XMCLib/inc\xmc4_scu.h ****  * 2016-04-15:
  61:D:/Workspace/Development/my/DAVE/Infineon_CANopen/Libraries/XMCLib/inc\xmc4_scu.h ****  *     - Fixed naming of XMC_SCU_CLOCK_DEEPSLEEP_MODE_CONFIG peripheral clock.
  62:D:/Workspace/Development/my/DAVE/Infineon_CANopen/Libraries/XMCLib/inc\xmc4_scu.h ****  *       Added enable and disable for peripheral clocks
  63:D:/Workspace/Development/my/DAVE/Infineon_CANopen/Libraries/XMCLib/inc\xmc4_scu.h ****  *
  64:D:/Workspace/Development/my/DAVE/Infineon_CANopen/Libraries/XMCLib/inc\xmc4_scu.h ****  * 2016-05-19:
  65:D:/Workspace/Development/my/DAVE/Infineon_CANopen/Libraries/XMCLib/inc\xmc4_scu.h ****  *     - Added XMC_SCU_CLOCK_IsLowPowerOscillatorStable() and XMC_SCU_CLOCK_IsHighPerformanceOscill
  66:D:/Workspace/Development/my/DAVE/Infineon_CANopen/Libraries/XMCLib/inc\xmc4_scu.h ****  *     - Added XMC_SCU_POWER_WaitForInterrupt() and XMC_SCU_POWER_WaitForEvent()
  67:D:/Workspace/Development/my/DAVE/Infineon_CANopen/Libraries/XMCLib/inc\xmc4_scu.h ****  *     - Added XMC_SCU_CLOCK_EnableLowPowerOscillatorGeneralPurposeInput(),
  68:D:/Workspace/Development/my/DAVE/Infineon_CANopen/Libraries/XMCLib/inc\xmc4_scu.h ****  *             XMC_SCU_CLOCK_DisableLowPowerOscillatorGeneralPurposeInput(),
  69:D:/Workspace/Development/my/DAVE/Infineon_CANopen/Libraries/XMCLib/inc\xmc4_scu.h ****  *             XMC_SCU_CLOCK_GetLowPowerOscillatorGeneralPurposeInputStatus()
  70:D:/Workspace/Development/my/DAVE/Infineon_CANopen/Libraries/XMCLib/inc\xmc4_scu.h ****  *     - Added XMC_SCU_CLOCK_EnableHighPerformanceOscillatorGeneralPurposeInput(),
  71:D:/Workspace/Development/my/DAVE/Infineon_CANopen/Libraries/XMCLib/inc\xmc4_scu.h ****  *             XMC_SCU_CLOCK_DisableHighPerformanceOscillatorGeneralPurposeInput(),
  72:D:/Workspace/Development/my/DAVE/Infineon_CANopen/Libraries/XMCLib/inc\xmc4_scu.h ****  *             XMC_SCU_CLOCK_GetHighPerformanceOscillatorGeneralPurposeInputStatus()
  73:D:/Workspace/Development/my/DAVE/Infineon_CANopen/Libraries/XMCLib/inc\xmc4_scu.h ****  *     - Removed XMC_SCU_INTERRUPT_EVENT_OSCULSTAT_UPDATED, XMC_SCU_INTERRUPT_EVENT_HDSTAT_UPDATED
  74:D:/Workspace/Development/my/DAVE/Infineon_CANopen/Libraries/XMCLib/inc\xmc4_scu.h ****  *
  75:D:/Workspace/Development/my/DAVE/Infineon_CANopen/Libraries/XMCLib/inc\xmc4_scu.h ****  * 2016-06-14:
  76:D:/Workspace/Development/my/DAVE/Infineon_CANopen/Libraries/XMCLib/inc\xmc4_scu.h ****  *     - Added XMC_SCU_HIB_IsWakeupEventDetected() and XMC_SCU_HIB_ClearWakeupEventDetectionStatus(
  77:D:/Workspace/Development/my/DAVE/Infineon_CANopen/Libraries/XMCLib/inc\xmc4_scu.h ****  *
  78:D:/Workspace/Development/my/DAVE/Infineon_CANopen/Libraries/XMCLib/inc\xmc4_scu.h ****  * 2016-06-15:
  79:D:/Workspace/Development/my/DAVE/Infineon_CANopen/Libraries/XMCLib/inc\xmc4_scu.h ****  *     - Added XMC_SCU_HIB_EnterHibernateStateEx() which allows to select between external or inter
  80:D:/Workspace/Development/my/DAVE/Infineon_CANopen/Libraries/XMCLib/inc\xmc4_scu.h ****  *     - Extended wakeup hibernate events using LPAC wakeup on events. Only available in XMC44, XMC
  81:D:/Workspace/Development/my/DAVE/Infineon_CANopen/Libraries/XMCLib/inc\xmc4_scu.h ****  *     - Added LPAC APIs. Only available in XMC44, XMC42 and XMC41 series.
  82:D:/Workspace/Development/my/DAVE/Infineon_CANopen/Libraries/XMCLib/inc\xmc4_scu.h ****  *
  83:D:/Workspace/Development/my/DAVE/Infineon_CANopen/Libraries/XMCLib/inc\xmc4_scu.h ****  * 2019-02-18:
  84:D:/Workspace/Development/my/DAVE/Infineon_CANopen/Libraries/XMCLib/inc\xmc4_scu.h ****  *     - Fix conditional definition of XMC_SCU_PARITY_t elements
  85:D:/Workspace/Development/my/DAVE/Infineon_CANopen/Libraries/XMCLib/inc\xmc4_scu.h ****  *     - Added XMC_SCU_PARITY_OverrideParityBitLogic(uint32_t memory)
  86:D:/Workspace/Development/my/DAVE/Infineon_CANopen/Libraries/XMCLib/inc\xmc4_scu.h ****  *             XMC_SCU_PARITY_SelectMemoryTest(const XMC_SCU_PARITY_t memory)
  87:D:/Workspace/Development/my/DAVE/Infineon_CANopen/Libraries/XMCLib/inc\xmc4_scu.h ****  *             XMC_SCU_PARITY_SetParityWriteValue(uint8_t val)
  88:D:/Workspace/Development/my/DAVE/Infineon_CANopen/Libraries/XMCLib/inc\xmc4_scu.h ****  *             XMC_SCU_PARITY_GetParityReadValue(void)
  89:D:/Workspace/Development/my/DAVE/Infineon_CANopen/Libraries/XMCLib/inc\xmc4_scu.h ****  *
  90:D:/Workspace/Development/my/DAVE/Infineon_CANopen/Libraries/XMCLib/inc\xmc4_scu.h ****  * 2020-11-11:
  91:D:/Workspace/Development/my/DAVE/Infineon_CANopen/Libraries/XMCLib/inc\xmc4_scu.h ****  *     - Change making declaration of functions XMC_SCU_HighTemperature(), XMC_SCU_LowTemperature()
  92:D:/Workspace/Development/my/DAVE/Infineon_CANopen/Libraries/XMCLib/inc\xmc4_scu.h ****  * 
  93:D:/Workspace/Development/my/DAVE/Infineon_CANopen/Libraries/XMCLib/inc\xmc4_scu.h ****  * @endcond
  94:D:/Workspace/Development/my/DAVE/Infineon_CANopen/Libraries/XMCLib/inc\xmc4_scu.h ****  *
  95:D:/Workspace/Development/my/DAVE/Infineon_CANopen/Libraries/XMCLib/inc\xmc4_scu.h ****  */
  96:D:/Workspace/Development/my/DAVE/Infineon_CANopen/Libraries/XMCLib/inc\xmc4_scu.h **** 
  97:D:/Workspace/Development/my/DAVE/Infineon_CANopen/Libraries/XMCLib/inc\xmc4_scu.h **** #ifndef XMC4_SCU_H
  98:D:/Workspace/Development/my/DAVE/Infineon_CANopen/Libraries/XMCLib/inc\xmc4_scu.h **** #define XMC4_SCU_H
  99:D:/Workspace/Development/my/DAVE/Infineon_CANopen/Libraries/XMCLib/inc\xmc4_scu.h **** 
 100:D:/Workspace/Development/my/DAVE/Infineon_CANopen/Libraries/XMCLib/inc\xmc4_scu.h **** /**************************************************************************************************
 101:D:/Workspace/Development/my/DAVE/Infineon_CANopen/Libraries/XMCLib/inc\xmc4_scu.h ****  * HEADER FILES
 102:D:/Workspace/Development/my/DAVE/Infineon_CANopen/Libraries/XMCLib/inc\xmc4_scu.h ****  **************************************************************************************************
 103:D:/Workspace/Development/my/DAVE/Infineon_CANopen/Libraries/XMCLib/inc\xmc4_scu.h **** 
 104:D:/Workspace/Development/my/DAVE/Infineon_CANopen/Libraries/XMCLib/inc\xmc4_scu.h **** #include "xmc_common.h"
 105:D:/Workspace/Development/my/DAVE/Infineon_CANopen/Libraries/XMCLib/inc\xmc4_scu.h **** 
 106:D:/Workspace/Development/my/DAVE/Infineon_CANopen/Libraries/XMCLib/inc\xmc4_scu.h **** #if UC_FAMILY == XMC4
 107:D:/Workspace/Development/my/DAVE/Infineon_CANopen/Libraries/XMCLib/inc\xmc4_scu.h **** 
 108:D:/Workspace/Development/my/DAVE/Infineon_CANopen/Libraries/XMCLib/inc\xmc4_scu.h **** /**
 109:D:/Workspace/Development/my/DAVE/Infineon_CANopen/Libraries/XMCLib/inc\xmc4_scu.h ****  * @addtogroup XMClib XMC Peripheral Library
 110:D:/Workspace/Development/my/DAVE/Infineon_CANopen/Libraries/XMCLib/inc\xmc4_scu.h ****  * @{
 111:D:/Workspace/Development/my/DAVE/Infineon_CANopen/Libraries/XMCLib/inc\xmc4_scu.h ****  */
 112:D:/Workspace/Development/my/DAVE/Infineon_CANopen/Libraries/XMCLib/inc\xmc4_scu.h **** 
 113:D:/Workspace/Development/my/DAVE/Infineon_CANopen/Libraries/XMCLib/inc\xmc4_scu.h **** /**
 114:D:/Workspace/Development/my/DAVE/Infineon_CANopen/Libraries/XMCLib/inc\xmc4_scu.h ****  * @addtogroup SCU
 115:D:/Workspace/Development/my/DAVE/Infineon_CANopen/Libraries/XMCLib/inc\xmc4_scu.h ****  * @{
 116:D:/Workspace/Development/my/DAVE/Infineon_CANopen/Libraries/XMCLib/inc\xmc4_scu.h ****  */
 117:D:/Workspace/Development/my/DAVE/Infineon_CANopen/Libraries/XMCLib/inc\xmc4_scu.h **** 
 118:D:/Workspace/Development/my/DAVE/Infineon_CANopen/Libraries/XMCLib/inc\xmc4_scu.h **** /**************************************************************************************************
 119:D:/Workspace/Development/my/DAVE/Infineon_CANopen/Libraries/XMCLib/inc\xmc4_scu.h ****  * MACROS
 120:D:/Workspace/Development/my/DAVE/Infineon_CANopen/Libraries/XMCLib/inc\xmc4_scu.h ****  **************************************************************************************************
 121:D:/Workspace/Development/my/DAVE/Infineon_CANopen/Libraries/XMCLib/inc\xmc4_scu.h **** #define PLL_PDIV_XTAL_8MHZ (1U)  /* PDIV value for main PLL settings, fPLL = 120MHz with fOSC = 8MH
 122:D:/Workspace/Development/my/DAVE/Infineon_CANopen/Libraries/XMCLib/inc\xmc4_scu.h **** #define PLL_NDIV_XTAL_8MHZ (89U)  /* NDIV value for main PLL settings, fPLL = 120MHz with fOSC = 8M
 123:D:/Workspace/Development/my/DAVE/Infineon_CANopen/Libraries/XMCLib/inc\xmc4_scu.h **** #define PLL_K2DIV_XTAL_8MHZ (2U)  /* K2DIV value for main PLL settings, fPLL = 120MHz with fOSC = 8
 124:D:/Workspace/Development/my/DAVE/Infineon_CANopen/Libraries/XMCLib/inc\xmc4_scu.h **** 
 125:D:/Workspace/Development/my/DAVE/Infineon_CANopen/Libraries/XMCLib/inc\xmc4_scu.h **** #define PLL_PDIV_XTAL_12MHZ (1U)  /* PDIV value for main PLL settings, fPLL = 120MHz with fOSC = 12
 126:D:/Workspace/Development/my/DAVE/Infineon_CANopen/Libraries/XMCLib/inc\xmc4_scu.h **** #define PLL_NDIV_XTAL_12MHZ (79U)  /* NDIV value for main PLL settings, fPLL = 120MHz with fOSC = 1
 127:D:/Workspace/Development/my/DAVE/Infineon_CANopen/Libraries/XMCLib/inc\xmc4_scu.h **** #define PLL_K2DIV_XTAL_12MHZ (3U)  /* K2DIV value for main PLL settings, fPLL = 120MHz with fOSC = 
 128:D:/Workspace/Development/my/DAVE/Infineon_CANopen/Libraries/XMCLib/inc\xmc4_scu.h **** 
 129:D:/Workspace/Development/my/DAVE/Infineon_CANopen/Libraries/XMCLib/inc\xmc4_scu.h **** #define PLL_PDIV_XTAL_16MHZ (1U)  /* PDIV value for main PLL settings, fPLL = 120MHz with fOSC = 16
 130:D:/Workspace/Development/my/DAVE/Infineon_CANopen/Libraries/XMCLib/inc\xmc4_scu.h **** #define PLL_NDIV_XTAL_16MHZ (59U)  /* NDIV value for main PLL settings, fPLL = 120MHz with fOSC = 1
 131:D:/Workspace/Development/my/DAVE/Infineon_CANopen/Libraries/XMCLib/inc\xmc4_scu.h **** #define PLL_K2DIV_XTAL_16MHZ (3U)  /* K2DIV value for main PLL settings, fPLL = 120MHz with fOSC = 
 132:D:/Workspace/Development/my/DAVE/Infineon_CANopen/Libraries/XMCLib/inc\xmc4_scu.h **** 
 133:D:/Workspace/Development/my/DAVE/Infineon_CANopen/Libraries/XMCLib/inc\xmc4_scu.h **** #define XMC_SCU_INTERRUPT_EVENT_WDT_WARN           SCU_INTERRUPT_SRSTAT_PRWARN_Msk /**< Watchdog pr
 134:D:/Workspace/Development/my/DAVE/Infineon_CANopen/Libraries/XMCLib/inc\xmc4_scu.h **** #define XMC_SCU_INTERRUPT_EVENT_RTC_PERIODIC       SCU_INTERRUPT_SRSTAT_PI_Msk     /**< RTC periodi
 135:D:/Workspace/Development/my/DAVE/Infineon_CANopen/Libraries/XMCLib/inc\xmc4_scu.h **** #define XMC_SCU_INTERRUPT_EVENT_RTC_ALARM          SCU_INTERRUPT_SRSTAT_AI_Msk     /**< RTC alarm e
 136:D:/Workspace/Development/my/DAVE/Infineon_CANopen/Libraries/XMCLib/inc\xmc4_scu.h **** #define XMC_SCU_INTERRUPT_EVENT_DLR_OVERRUN        SCU_INTERRUPT_SRSTAT_DLROVR_Msk /**< DLR overrun
 137:D:/Workspace/Development/my/DAVE/Infineon_CANopen/Libraries/XMCLib/inc\xmc4_scu.h **** #if defined(SCU_INTERRUPT_SRSTAT_LPACCR_Msk)
 138:D:/Workspace/Development/my/DAVE/Infineon_CANopen/Libraries/XMCLib/inc\xmc4_scu.h **** #define XMC_SCU_INTERRUPT_EVENT_LPACCR_UPDATED     SCU_INTERRUPT_SRSTAT_LPACCR_Msk /**< LPAC Contro
 139:D:/Workspace/Development/my/DAVE/Infineon_CANopen/Libraries/XMCLib/inc\xmc4_scu.h **** #endif
 140:D:/Workspace/Development/my/DAVE/Infineon_CANopen/Libraries/XMCLib/inc\xmc4_scu.h **** #if defined(SCU_INTERRUPT_SRSTAT_LPACTH0_Msk)
 141:D:/Workspace/Development/my/DAVE/Infineon_CANopen/Libraries/XMCLib/inc\xmc4_scu.h **** #define XMC_SCU_INTERRUPT_EVENT_LPACTH0_UPDATED    SCU_INTERRUPT_SRSTAT_LPACTH0_Msk /**< LPAC Thres
 142:D:/Workspace/Development/my/DAVE/Infineon_CANopen/Libraries/XMCLib/inc\xmc4_scu.h **** #endif
 143:D:/Workspace/Development/my/DAVE/Infineon_CANopen/Libraries/XMCLib/inc\xmc4_scu.h **** #if defined(SCU_INTERRUPT_SRSTAT_LPACTH1_Msk)
 144:D:/Workspace/Development/my/DAVE/Infineon_CANopen/Libraries/XMCLib/inc\xmc4_scu.h **** #define XMC_SCU_INTERRUPT_EVENT_LPACTH1_UPDATED    SCU_INTERRUPT_SRSTAT_LPACTH1_Msk  /**< LPAC Thre
 145:D:/Workspace/Development/my/DAVE/Infineon_CANopen/Libraries/XMCLib/inc\xmc4_scu.h **** #endif
 146:D:/Workspace/Development/my/DAVE/Infineon_CANopen/Libraries/XMCLib/inc\xmc4_scu.h **** #if defined(SCU_INTERRUPT_SRSTAT_LPACST_Msk)
 147:D:/Workspace/Development/my/DAVE/Infineon_CANopen/Libraries/XMCLib/inc\xmc4_scu.h **** #define XMC_SCU_INTERRUPT_EVENT_LPACST_UPDATED     SCU_INTERRUPT_SRSTAT_LPACST_Msk  /**< LPAC Statu
 148:D:/Workspace/Development/my/DAVE/Infineon_CANopen/Libraries/XMCLib/inc\xmc4_scu.h **** #endif
 149:D:/Workspace/Development/my/DAVE/Infineon_CANopen/Libraries/XMCLib/inc\xmc4_scu.h **** #if defined(SCU_INTERRUPT_SRSTAT_LPACCLR_Msk)
 150:D:/Workspace/Development/my/DAVE/Infineon_CANopen/Libraries/XMCLib/inc\xmc4_scu.h **** #define XMC_SCU_INTERRUPT_EVENT_LPACCLR_UPDATED    SCU_INTERRUPT_SRSTAT_LPACCLR_Msk /**< LPAC event
 151:D:/Workspace/Development/my/DAVE/Infineon_CANopen/Libraries/XMCLib/inc\xmc4_scu.h **** #endif
 152:D:/Workspace/Development/my/DAVE/Infineon_CANopen/Libraries/XMCLib/inc\xmc4_scu.h **** #if defined(SCU_INTERRUPT_SRSTAT_LPACSET_Msk)
 153:D:/Workspace/Development/my/DAVE/Infineon_CANopen/Libraries/XMCLib/inc\xmc4_scu.h **** #define XMC_SCU_INTERRUPT_EVENT_LPACSET_UPDATED    SCU_INTERRUPT_SRSTAT_LPACSET_Msk /**< LPAC event
 154:D:/Workspace/Development/my/DAVE/Infineon_CANopen/Libraries/XMCLib/inc\xmc4_scu.h **** #endif
 155:D:/Workspace/Development/my/DAVE/Infineon_CANopen/Libraries/XMCLib/inc\xmc4_scu.h **** #if defined(SCU_INTERRUPT_SRSTAT_HINTST_Msk)
 156:D:/Workspace/Development/my/DAVE/Infineon_CANopen/Libraries/XMCLib/inc\xmc4_scu.h **** #define XMC_SCU_INTERRUPT_EVENT_HINTST_UPDATED     SCU_INTERRUPT_SRSTAT_HINTST_Msk /**< HIB HINTST 
 157:D:/Workspace/Development/my/DAVE/Infineon_CANopen/Libraries/XMCLib/inc\xmc4_scu.h **** #endif
 158:D:/Workspace/Development/my/DAVE/Infineon_CANopen/Libraries/XMCLib/inc\xmc4_scu.h **** #if defined(SCU_INTERRUPT_SRSTAT_HINTCLR_Msk)
 159:D:/Workspace/Development/my/DAVE/Infineon_CANopen/Libraries/XMCLib/inc\xmc4_scu.h **** #define XMC_SCU_INTERRUPT_EVENT_HINTCLR_UPDATED    SCU_INTERRUPT_SRSTAT_HINTCLR_Msk /**< HIB HINTCL
 160:D:/Workspace/Development/my/DAVE/Infineon_CANopen/Libraries/XMCLib/inc\xmc4_scu.h **** #endif
 161:D:/Workspace/Development/my/DAVE/Infineon_CANopen/Libraries/XMCLib/inc\xmc4_scu.h **** #if defined(SCU_INTERRUPT_SRSTAT_HINTSET_Msk)
 162:D:/Workspace/Development/my/DAVE/Infineon_CANopen/Libraries/XMCLib/inc\xmc4_scu.h **** #define XMC_SCU_INTERRUPT_EVENT_HINTSET_UPDATED    SCU_INTERRUPT_SRSTAT_HINTSET_Msk /**< HIB HINTSE
 163:D:/Workspace/Development/my/DAVE/Infineon_CANopen/Libraries/XMCLib/inc\xmc4_scu.h **** #endif
 164:D:/Workspace/Development/my/DAVE/Infineon_CANopen/Libraries/XMCLib/inc\xmc4_scu.h **** #define XMC_SCU_INTERRUPT_EVENT_HDCLR_UPDATED      SCU_INTERRUPT_SRSTAT_HDCLR_Msk /**< HIB HDCLR re
 165:D:/Workspace/Development/my/DAVE/Infineon_CANopen/Libraries/XMCLib/inc\xmc4_scu.h **** #define XMC_SCU_INTERRUPT_EVENT_HDSET_UPDATED      SCU_INTERRUPT_SRSTAT_HDSET_Msk /**< HIB HDSET re
 166:D:/Workspace/Development/my/DAVE/Infineon_CANopen/Libraries/XMCLib/inc\xmc4_scu.h **** #define XMC_SCU_INTERRUPT_EVENT_HDCR_UPDATED       SCU_INTERRUPT_SRSTAT_HDCR_Msk /**< HIB HDCR regi
 167:D:/Workspace/Development/my/DAVE/Infineon_CANopen/Libraries/XMCLib/inc\xmc4_scu.h **** #define XMC_SCU_INTERRUPT_EVENT_OSCSICTRL_UPDATED  SCU_INTERRUPT_SRSTAT_OSCSICTRL_Msk /**< HIB OSCS
 168:D:/Workspace/Development/my/DAVE/Infineon_CANopen/Libraries/XMCLib/inc\xmc4_scu.h **** #define XMC_SCU_INTERRUPT_EVENT_OSCULCTRL_UPDATED  SCU_INTERRUPT_SRSTAT_OSCULCTRL_Msk /**< HIB OSCU
 169:D:/Workspace/Development/my/DAVE/Infineon_CANopen/Libraries/XMCLib/inc\xmc4_scu.h **** #define XMC_SCU_INTERRUPT_EVENT_RTCCTR_UPDATED     SCU_INTERRUPT_SRSTAT_RTC_CTR_Msk /**< HIB RTCCTR
 170:D:/Workspace/Development/my/DAVE/Infineon_CANopen/Libraries/XMCLib/inc\xmc4_scu.h **** #define XMC_SCU_INTERRUPT_EVENT_RTCATIM0_UPDATED   SCU_INTERRUPT_SRSTAT_RTC_ATIM0_Msk /**< HIB RTCA
 171:D:/Workspace/Development/my/DAVE/Infineon_CANopen/Libraries/XMCLib/inc\xmc4_scu.h **** #define XMC_SCU_INTERRUPT_EVENT_RTCATIM1_UPDATED   SCU_INTERRUPT_SRSTAT_RTC_ATIM1_Msk /**< HIB RTCA
 172:D:/Workspace/Development/my/DAVE/Infineon_CANopen/Libraries/XMCLib/inc\xmc4_scu.h **** #define XMC_SCU_INTERRUPT_EVENT_RTCTIM0_UPDATED    SCU_INTERRUPT_SRSTAT_RTC_TIM0_Msk /**< HIB TIM0 
 173:D:/Workspace/Development/my/DAVE/Infineon_CANopen/Libraries/XMCLib/inc\xmc4_scu.h **** #define XMC_SCU_INTERRUPT_EVENT_RTCTIM1_UPDATED    SCU_INTERRUPT_SRSTAT_RTC_TIM1_Msk /**< HIB TIM1 
 174:D:/Workspace/Development/my/DAVE/Infineon_CANopen/Libraries/XMCLib/inc\xmc4_scu.h **** #define XMC_SCU_INTERRUPT_EVENT_RMX_UPDATED        SCU_INTERRUPT_SRSTAT_RMX_Msk /**< HIB RMX regist
 175:D:/Workspace/Development/my/DAVE/Infineon_CANopen/Libraries/XMCLib/inc\xmc4_scu.h **** 
 176:D:/Workspace/Development/my/DAVE/Infineon_CANopen/Libraries/XMCLib/inc\xmc4_scu.h **** /**************************************************************************************************
 177:D:/Workspace/Development/my/DAVE/Infineon_CANopen/Libraries/XMCLib/inc\xmc4_scu.h ****  * ENUMS
 178:D:/Workspace/Development/my/DAVE/Infineon_CANopen/Libraries/XMCLib/inc\xmc4_scu.h ****  **************************************************************************************************
 179:D:/Workspace/Development/my/DAVE/Infineon_CANopen/Libraries/XMCLib/inc\xmc4_scu.h **** /**
 180:D:/Workspace/Development/my/DAVE/Infineon_CANopen/Libraries/XMCLib/inc\xmc4_scu.h ****  *  Defines Capture/Compare unit timer slice trigger, that enables synchronous start function avail
 181:D:/Workspace/Development/my/DAVE/Infineon_CANopen/Libraries/XMCLib/inc\xmc4_scu.h ****  *  CCUCON register. Use type \a XMC_SCU_CCU_TRIGGER_t for accessing these enum parameters.
 182:D:/Workspace/Development/my/DAVE/Infineon_CANopen/Libraries/XMCLib/inc\xmc4_scu.h ****  */
 183:D:/Workspace/Development/my/DAVE/Infineon_CANopen/Libraries/XMCLib/inc\xmc4_scu.h **** typedef enum XMC_SCU_CCU_TRIGGER
 184:D:/Workspace/Development/my/DAVE/Infineon_CANopen/Libraries/XMCLib/inc\xmc4_scu.h **** {
 185:D:/Workspace/Development/my/DAVE/Infineon_CANopen/Libraries/XMCLib/inc\xmc4_scu.h **** #if defined(CCU40)
 186:D:/Workspace/Development/my/DAVE/Infineon_CANopen/Libraries/XMCLib/inc\xmc4_scu.h ****   XMC_SCU_CCU_TRIGGER_CCU40 = SCU_GENERAL_CCUCON_GSC40_Msk, /**< Trigger mask used for Global Start
 187:D:/Workspace/Development/my/DAVE/Infineon_CANopen/Libraries/XMCLib/inc\xmc4_scu.h ****                                                                  CCU40 peripheral. */
 188:D:/Workspace/Development/my/DAVE/Infineon_CANopen/Libraries/XMCLib/inc\xmc4_scu.h **** #endif
 189:D:/Workspace/Development/my/DAVE/Infineon_CANopen/Libraries/XMCLib/inc\xmc4_scu.h **** #if defined(CCU41)
 190:D:/Workspace/Development/my/DAVE/Infineon_CANopen/Libraries/XMCLib/inc\xmc4_scu.h ****   XMC_SCU_CCU_TRIGGER_CCU41 = SCU_GENERAL_CCUCON_GSC41_Msk, /**< Trigger mask used for Global Start
 191:D:/Workspace/Development/my/DAVE/Infineon_CANopen/Libraries/XMCLib/inc\xmc4_scu.h ****                                                                  CCU41 peripheral. */
 192:D:/Workspace/Development/my/DAVE/Infineon_CANopen/Libraries/XMCLib/inc\xmc4_scu.h **** #endif
 193:D:/Workspace/Development/my/DAVE/Infineon_CANopen/Libraries/XMCLib/inc\xmc4_scu.h **** #if defined(CCU42)
 194:D:/Workspace/Development/my/DAVE/Infineon_CANopen/Libraries/XMCLib/inc\xmc4_scu.h ****   XMC_SCU_CCU_TRIGGER_CCU42 = SCU_GENERAL_CCUCON_GSC42_Msk, /**< Trigger mask used for Global Start
 195:D:/Workspace/Development/my/DAVE/Infineon_CANopen/Libraries/XMCLib/inc\xmc4_scu.h ****                                                                  CCU42 peripheral. */
 196:D:/Workspace/Development/my/DAVE/Infineon_CANopen/Libraries/XMCLib/inc\xmc4_scu.h **** #endif
 197:D:/Workspace/Development/my/DAVE/Infineon_CANopen/Libraries/XMCLib/inc\xmc4_scu.h **** #if defined(CCU43)
 198:D:/Workspace/Development/my/DAVE/Infineon_CANopen/Libraries/XMCLib/inc\xmc4_scu.h ****   XMC_SCU_CCU_TRIGGER_CCU43 = SCU_GENERAL_CCUCON_GSC43_Msk, /**< Trigger mask used for Global Start
 199:D:/Workspace/Development/my/DAVE/Infineon_CANopen/Libraries/XMCLib/inc\xmc4_scu.h ****                                                                  CCU43 peripheral. */
 200:D:/Workspace/Development/my/DAVE/Infineon_CANopen/Libraries/XMCLib/inc\xmc4_scu.h **** #endif
 201:D:/Workspace/Development/my/DAVE/Infineon_CANopen/Libraries/XMCLib/inc\xmc4_scu.h **** #if defined(CCU80)
 202:D:/Workspace/Development/my/DAVE/Infineon_CANopen/Libraries/XMCLib/inc\xmc4_scu.h ****   XMC_SCU_CCU_TRIGGER_CCU80 = SCU_GENERAL_CCUCON_GSC80_Msk, /**< Trigger mask used for Global Start
 203:D:/Workspace/Development/my/DAVE/Infineon_CANopen/Libraries/XMCLib/inc\xmc4_scu.h ****                                                                  CCU80 peripheral. */
 204:D:/Workspace/Development/my/DAVE/Infineon_CANopen/Libraries/XMCLib/inc\xmc4_scu.h **** #endif
 205:D:/Workspace/Development/my/DAVE/Infineon_CANopen/Libraries/XMCLib/inc\xmc4_scu.h **** #if defined(CCU81)
 206:D:/Workspace/Development/my/DAVE/Infineon_CANopen/Libraries/XMCLib/inc\xmc4_scu.h ****   XMC_SCU_CCU_TRIGGER_CCU81 = SCU_GENERAL_CCUCON_GSC81_Msk /**< Trigger mask used for Global Start 
 207:D:/Workspace/Development/my/DAVE/Infineon_CANopen/Libraries/XMCLib/inc\xmc4_scu.h ****                                                                  CCU81 peripheral. */
 208:D:/Workspace/Development/my/DAVE/Infineon_CANopen/Libraries/XMCLib/inc\xmc4_scu.h **** #endif
 209:D:/Workspace/Development/my/DAVE/Infineon_CANopen/Libraries/XMCLib/inc\xmc4_scu.h **** } XMC_SCU_CCU_TRIGGER_t;
 210:D:/Workspace/Development/my/DAVE/Infineon_CANopen/Libraries/XMCLib/inc\xmc4_scu.h **** 
 211:D:/Workspace/Development/my/DAVE/Infineon_CANopen/Libraries/XMCLib/inc\xmc4_scu.h **** /**
 212:D:/Workspace/Development/my/DAVE/Infineon_CANopen/Libraries/XMCLib/inc\xmc4_scu.h ****  *  Defines enumerations representing the status of trap cause. The cause of the trap gets automati
 213:D:/Workspace/Development/my/DAVE/Infineon_CANopen/Libraries/XMCLib/inc\xmc4_scu.h ****  *  the \a TRAPSTAT register and can be checked by user software to determine the state of the syst
 214:D:/Workspace/Development/my/DAVE/Infineon_CANopen/Libraries/XMCLib/inc\xmc4_scu.h ****  *  purpose.
 215:D:/Workspace/Development/my/DAVE/Infineon_CANopen/Libraries/XMCLib/inc\xmc4_scu.h ****  *  Use type \a XMC_SCU_TRAP_t for accessing these enum parameters.
 216:D:/Workspace/Development/my/DAVE/Infineon_CANopen/Libraries/XMCLib/inc\xmc4_scu.h ****  */
 217:D:/Workspace/Development/my/DAVE/Infineon_CANopen/Libraries/XMCLib/inc\xmc4_scu.h **** typedef enum XMC_SCU_TRAP
 218:D:/Workspace/Development/my/DAVE/Infineon_CANopen/Libraries/XMCLib/inc\xmc4_scu.h **** {
 219:D:/Workspace/Development/my/DAVE/Infineon_CANopen/Libraries/XMCLib/inc\xmc4_scu.h ****   XMC_SCU_TRAP_OSC_WDG      = SCU_TRAP_TRAPSTAT_SOSCWDGT_Msk, /**< OSC_HP Oscillator Watchdog trap.
 220:D:/Workspace/Development/my/DAVE/Infineon_CANopen/Libraries/XMCLib/inc\xmc4_scu.h ****   XMC_SCU_TRAP_VCO_LOCK     = SCU_TRAP_TRAPSTAT_SVCOLCKT_Msk, /**< PLL loss of lock trap. */
 221:D:/Workspace/Development/my/DAVE/Infineon_CANopen/Libraries/XMCLib/inc\xmc4_scu.h ****   XMC_SCU_TRAP_USB_VCO_LOCK = SCU_TRAP_TRAPSTAT_UVCOLCKT_Msk, /**< USB PLL loss of lock trap. */
 222:D:/Workspace/Development/my/DAVE/Infineon_CANopen/Libraries/XMCLib/inc\xmc4_scu.h ****   XMC_SCU_TRAP_PARITY_ERROR = SCU_TRAP_TRAPSTAT_PET_Msk,      /**< Memory Parity error trap. */
 223:D:/Workspace/Development/my/DAVE/Infineon_CANopen/Libraries/XMCLib/inc\xmc4_scu.h ****   XMC_SCU_TRAP_BROWNOUT     = SCU_TRAP_TRAPSTAT_BRWNT_Msk,    /**< Brownout trap. */
 224:D:/Workspace/Development/my/DAVE/Infineon_CANopen/Libraries/XMCLib/inc\xmc4_scu.h ****   XMC_SCU_TRAP_ULP_WDG      = SCU_TRAP_TRAPSTAT_ULPWDGT_Msk,  /**< Unstable 32KHz clock trap. */
 225:D:/Workspace/Development/my/DAVE/Infineon_CANopen/Libraries/XMCLib/inc\xmc4_scu.h ****   XMC_SCU_TRAP_PER_BRIDGE0  = SCU_TRAP_TRAPSTAT_BWERR0T_Msk,  /**< Bad memory access of peripherals
 226:D:/Workspace/Development/my/DAVE/Infineon_CANopen/Libraries/XMCLib/inc\xmc4_scu.h ****   XMC_SCU_TRAP_PER_BRIDGE1  = SCU_TRAP_TRAPSTAT_BWERR1T_Msk,  /**< Bad memory access of peripherals
 227:D:/Workspace/Development/my/DAVE/Infineon_CANopen/Libraries/XMCLib/inc\xmc4_scu.h **** #if defined(SCU_TRAP_TRAPSTAT_TEMPHIT_Msk)
 228:D:/Workspace/Development/my/DAVE/Infineon_CANopen/Libraries/XMCLib/inc\xmc4_scu.h ****   XMC_SCU_TRAP_DIETEMP_HIGH = SCU_TRAP_TRAPSTAT_TEMPHIT_Msk,  /**< Die temperature higher than expe
 229:D:/Workspace/Development/my/DAVE/Infineon_CANopen/Libraries/XMCLib/inc\xmc4_scu.h **** #endif
 230:D:/Workspace/Development/my/DAVE/Infineon_CANopen/Libraries/XMCLib/inc\xmc4_scu.h **** #if defined(SCU_TRAP_TRAPSTAT_TEMPLOT_Msk)
 231:D:/Workspace/Development/my/DAVE/Infineon_CANopen/Libraries/XMCLib/inc\xmc4_scu.h ****   XMC_SCU_TRAP_DIETEMP_LOW  = SCU_TRAP_TRAPSTAT_TEMPLOT_Msk,  /**< Die temperature lower than expec
 232:D:/Workspace/Development/my/DAVE/Infineon_CANopen/Libraries/XMCLib/inc\xmc4_scu.h **** #endif
 233:D:/Workspace/Development/my/DAVE/Infineon_CANopen/Libraries/XMCLib/inc\xmc4_scu.h **** #if defined(ECAT0)
 234:D:/Workspace/Development/my/DAVE/Infineon_CANopen/Libraries/XMCLib/inc\xmc4_scu.h ****   XMC_SCU_TRAP_ECAT_RESET = SCU_TRAP_TRAPSTAT_ECAT0RST_Msk, /**< EtherCat Reset */
 235:D:/Workspace/Development/my/DAVE/Infineon_CANopen/Libraries/XMCLib/inc\xmc4_scu.h **** #endif
 236:D:/Workspace/Development/my/DAVE/Infineon_CANopen/Libraries/XMCLib/inc\xmc4_scu.h **** } XMC_SCU_TRAP_t;
 237:D:/Workspace/Development/my/DAVE/Infineon_CANopen/Libraries/XMCLib/inc\xmc4_scu.h **** 
 238:D:/Workspace/Development/my/DAVE/Infineon_CANopen/Libraries/XMCLib/inc\xmc4_scu.h **** /**
 239:D:/Workspace/Development/my/DAVE/Infineon_CANopen/Libraries/XMCLib/inc\xmc4_scu.h ****  *  Defines enumerations for different parity event generating modules that in turn generate a trap
 240:D:/Workspace/Development/my/DAVE/Infineon_CANopen/Libraries/XMCLib/inc\xmc4_scu.h ****  *  Parity can be enabled with \a PETE register in order to get the trap flag reflected in \a TRAPR
 241:D:/Workspace/Development/my/DAVE/Infineon_CANopen/Libraries/XMCLib/inc\xmc4_scu.h ****  *  configure parity error trap generation mechanism bits of \a PETE register.
 242:D:/Workspace/Development/my/DAVE/Infineon_CANopen/Libraries/XMCLib/inc\xmc4_scu.h ****  *  All the enum items are tabulated as per bits present in \a PETE register.
 243:D:/Workspace/Development/my/DAVE/Infineon_CANopen/Libraries/XMCLib/inc\xmc4_scu.h ****  *  Use type \a XMC_SCU_PARITY_t for accessing these enum parameters.
 244:D:/Workspace/Development/my/DAVE/Infineon_CANopen/Libraries/XMCLib/inc\xmc4_scu.h ****  */
 245:D:/Workspace/Development/my/DAVE/Infineon_CANopen/Libraries/XMCLib/inc\xmc4_scu.h **** typedef enum XMC_SCU_PARITY
 246:D:/Workspace/Development/my/DAVE/Infineon_CANopen/Libraries/XMCLib/inc\xmc4_scu.h **** {
 247:D:/Workspace/Development/my/DAVE/Infineon_CANopen/Libraries/XMCLib/inc\xmc4_scu.h ****   XMC_SCU_PARITY_PSRAM_MEM  = SCU_PARITY_PEEN_PEENPS_Msk,   /**< Program SRAM parity error trap. */
 248:D:/Workspace/Development/my/DAVE/Infineon_CANopen/Libraries/XMCLib/inc\xmc4_scu.h ****   XMC_SCU_PARITY_DSRAM1_MEM = SCU_PARITY_PEEN_PEENDS1_Msk,  /**< Data SRAM-1 parity error trap. */
 249:D:/Workspace/Development/my/DAVE/Infineon_CANopen/Libraries/XMCLib/inc\xmc4_scu.h **** #if defined(SCU_PARITY_PEEN_PEENDS2_Msk)
 250:D:/Workspace/Development/my/DAVE/Infineon_CANopen/Libraries/XMCLib/inc\xmc4_scu.h ****   XMC_SCU_PARITY_DSRAM2_MEM = SCU_PARITY_PEEN_PEENDS2_Msk,  /**< Data SRAM-2 parity error trap. */
 251:D:/Workspace/Development/my/DAVE/Infineon_CANopen/Libraries/XMCLib/inc\xmc4_scu.h **** #endif
 252:D:/Workspace/Development/my/DAVE/Infineon_CANopen/Libraries/XMCLib/inc\xmc4_scu.h ****   XMC_SCU_PARITY_USIC0_MEM  = SCU_PARITY_PEEN_PEENU0_Msk,   /**< USIC0 memory parity error trap. */
 253:D:/Workspace/Development/my/DAVE/Infineon_CANopen/Libraries/XMCLib/inc\xmc4_scu.h **** #if defined(SCU_PARITY_PEEN_PEENU1_Msk)
 254:D:/Workspace/Development/my/DAVE/Infineon_CANopen/Libraries/XMCLib/inc\xmc4_scu.h ****   XMC_SCU_PARITY_USIC1_MEM  = SCU_PARITY_PEEN_PEENU1_Msk,   /**< USIC1 memory parity error trap. */
 255:D:/Workspace/Development/my/DAVE/Infineon_CANopen/Libraries/XMCLib/inc\xmc4_scu.h **** #endif
 256:D:/Workspace/Development/my/DAVE/Infineon_CANopen/Libraries/XMCLib/inc\xmc4_scu.h **** #if defined(SCU_PARITY_PEEN_PEENU2_Msk)
 257:D:/Workspace/Development/my/DAVE/Infineon_CANopen/Libraries/XMCLib/inc\xmc4_scu.h ****   XMC_SCU_PARITY_USIC2_MEM  = SCU_PARITY_PEEN_PEENU2_Msk,   /**< USIC2 memory parity error trap. */
 258:D:/Workspace/Development/my/DAVE/Infineon_CANopen/Libraries/XMCLib/inc\xmc4_scu.h **** #endif
 259:D:/Workspace/Development/my/DAVE/Infineon_CANopen/Libraries/XMCLib/inc\xmc4_scu.h ****   XMC_SCU_PARITY_MCAN_MEM   = SCU_PARITY_PEEN_PEENMC_Msk,   /**< CAN memory parity error trap. */
 260:D:/Workspace/Development/my/DAVE/Infineon_CANopen/Libraries/XMCLib/inc\xmc4_scu.h ****   XMC_SCU_PARITY_PMU_MEM    = SCU_PARITY_PEEN_PEENPPRF_Msk, /**< PMU Prefetch memory parity error t
 261:D:/Workspace/Development/my/DAVE/Infineon_CANopen/Libraries/XMCLib/inc\xmc4_scu.h ****   XMC_SCU_PARITY_USB_MEM    = SCU_PARITY_PEEN_PEENUSB_Msk,  /**< USB memory parity error trap. */
 262:D:/Workspace/Development/my/DAVE/Infineon_CANopen/Libraries/XMCLib/inc\xmc4_scu.h **** #if defined(SCU_PARITY_PEEN_PEENETH0TX_Msk)
 263:D:/Workspace/Development/my/DAVE/Infineon_CANopen/Libraries/XMCLib/inc\xmc4_scu.h ****   XMC_SCU_PARITY_ETH_TXMEM  = SCU_PARITY_PEEN_PEENETH0TX_Msk, /**< Ethernet transmit memory parity 
 264:D:/Workspace/Development/my/DAVE/Infineon_CANopen/Libraries/XMCLib/inc\xmc4_scu.h **** #endif
 265:D:/Workspace/Development/my/DAVE/Infineon_CANopen/Libraries/XMCLib/inc\xmc4_scu.h **** #if defined(SCU_PARITY_PEEN_PEENETH0RX_Msk)
 266:D:/Workspace/Development/my/DAVE/Infineon_CANopen/Libraries/XMCLib/inc\xmc4_scu.h ****   XMC_SCU_PARITY_ETH_RXMEM  = SCU_PARITY_PEEN_PEENETH0RX_Msk, /**< Ethernet receive memory parity e
 267:D:/Workspace/Development/my/DAVE/Infineon_CANopen/Libraries/XMCLib/inc\xmc4_scu.h **** #endif
 268:D:/Workspace/Development/my/DAVE/Infineon_CANopen/Libraries/XMCLib/inc\xmc4_scu.h **** #if defined(SCU_PARITY_PEEN_PEENSD0_Msk)
 269:D:/Workspace/Development/my/DAVE/Infineon_CANopen/Libraries/XMCLib/inc\xmc4_scu.h ****   XMC_SCU_PARITY_SDMMC_MEM0 = SCU_PARITY_PEEN_PEENSD0_Msk, /**< SDMMC Memory-0 parity error trap. *
 270:D:/Workspace/Development/my/DAVE/Infineon_CANopen/Libraries/XMCLib/inc\xmc4_scu.h **** #endif
 271:D:/Workspace/Development/my/DAVE/Infineon_CANopen/Libraries/XMCLib/inc\xmc4_scu.h **** #if defined(SCU_PARITY_PEEN_PEENSD1_Msk)
 272:D:/Workspace/Development/my/DAVE/Infineon_CANopen/Libraries/XMCLib/inc\xmc4_scu.h ****   XMC_SCU_PARITY_SDMMC_MEM1 = SCU_PARITY_PEEN_PEENSD1_Msk, /**< SDMMC Memory-1 parity error trap. *
 273:D:/Workspace/Development/my/DAVE/Infineon_CANopen/Libraries/XMCLib/inc\xmc4_scu.h **** #endif
 274:D:/Workspace/Development/my/DAVE/Infineon_CANopen/Libraries/XMCLib/inc\xmc4_scu.h **** #if defined(SCU_PARITY_PEEN_PEENECAT0_Msk)
 275:D:/Workspace/Development/my/DAVE/Infineon_CANopen/Libraries/XMCLib/inc\xmc4_scu.h ****   XMC_SCU_PARITY_ECAT_MEM = SCU_PARITY_PEEN_PEENECAT0_Msk, /**< ECAT0 SRAM parity error trap. */
 276:D:/Workspace/Development/my/DAVE/Infineon_CANopen/Libraries/XMCLib/inc\xmc4_scu.h **** #endif
 277:D:/Workspace/Development/my/DAVE/Infineon_CANopen/Libraries/XMCLib/inc\xmc4_scu.h **** } XMC_SCU_PARITY_t;
 278:D:/Workspace/Development/my/DAVE/Infineon_CANopen/Libraries/XMCLib/inc\xmc4_scu.h **** 
 279:D:/Workspace/Development/my/DAVE/Infineon_CANopen/Libraries/XMCLib/inc\xmc4_scu.h **** /**
 280:D:/Workspace/Development/my/DAVE/Infineon_CANopen/Libraries/XMCLib/inc\xmc4_scu.h ****  *  Defines the different causes for last reset. The cause of the last reset gets automatically sto
 281:D:/Workspace/Development/my/DAVE/Infineon_CANopen/Libraries/XMCLib/inc\xmc4_scu.h ****  *  the \a SCU_RSTSTAT register and can be checked by user software to determine the state of the s
 282:D:/Workspace/Development/my/DAVE/Infineon_CANopen/Libraries/XMCLib/inc\xmc4_scu.h ****  *  purpose. All the enum items are tabulated as per bits present in \a SCU_RSTSTAT register.
 283:D:/Workspace/Development/my/DAVE/Infineon_CANopen/Libraries/XMCLib/inc\xmc4_scu.h ****  *  Use type \a XMC_SCU_RESET_REASON_t for accessing these enum parameters.
 284:D:/Workspace/Development/my/DAVE/Infineon_CANopen/Libraries/XMCLib/inc\xmc4_scu.h ****  */
 285:D:/Workspace/Development/my/DAVE/Infineon_CANopen/Libraries/XMCLib/inc\xmc4_scu.h **** typedef enum XMC_SCU_RESET_REASON
 286:D:/Workspace/Development/my/DAVE/Infineon_CANopen/Libraries/XMCLib/inc\xmc4_scu.h **** {
 287:D:/Workspace/Development/my/DAVE/Infineon_CANopen/Libraries/XMCLib/inc\xmc4_scu.h ****   XMC_SCU_RESET_REASON_PORST        = (1UL << SCU_RESET_RSTSTAT_RSTSTAT_Pos), /**< Reset due to Pow
 288:D:/Workspace/Development/my/DAVE/Infineon_CANopen/Libraries/XMCLib/inc\xmc4_scu.h ****   XMC_SCU_RESET_REASON_SWD          = (2UL << SCU_RESET_RSTSTAT_RSTSTAT_Pos), /**< Reset due to Sup
 289:D:/Workspace/Development/my/DAVE/Infineon_CANopen/Libraries/XMCLib/inc\xmc4_scu.h ****   XMC_SCU_RESET_REASON_PV           = (4UL << SCU_RESET_RSTSTAT_RSTSTAT_Pos), /**< Reset due to Pow
 290:D:/Workspace/Development/my/DAVE/Infineon_CANopen/Libraries/XMCLib/inc\xmc4_scu.h ****   XMC_SCU_RESET_REASON_SW           = (8UL << SCU_RESET_RSTSTAT_RSTSTAT_Pos), /**< Reset due to Sof
 291:D:/Workspace/Development/my/DAVE/Infineon_CANopen/Libraries/XMCLib/inc\xmc4_scu.h ****   XMC_SCU_RESET_REASON_LOCKUP       = (16UL << SCU_RESET_RSTSTAT_RSTSTAT_Pos), /**< Reset due to re
 292:D:/Workspace/Development/my/DAVE/Infineon_CANopen/Libraries/XMCLib/inc\xmc4_scu.h ****   XMC_SCU_RESET_REASON_WATCHDOG     = (32UL << SCU_RESET_RSTSTAT_RSTSTAT_Pos), /**< Reset due to Wa
 293:D:/Workspace/Development/my/DAVE/Infineon_CANopen/Libraries/XMCLib/inc\xmc4_scu.h ****   XMC_SCU_RESET_REASON_PARITY_ERROR = (128UL << SCU_RESET_RSTSTAT_RSTSTAT_Pos), /**< Reset due to r
 294:D:/Workspace/Development/my/DAVE/Infineon_CANopen/Libraries/XMCLib/inc\xmc4_scu.h **** } XMC_SCU_RESET_REASON_t;
 295:D:/Workspace/Development/my/DAVE/Infineon_CANopen/Libraries/XMCLib/inc\xmc4_scu.h **** 
 296:D:/Workspace/Development/my/DAVE/Infineon_CANopen/Libraries/XMCLib/inc\xmc4_scu.h **** /**
 297:D:/Workspace/Development/my/DAVE/Infineon_CANopen/Libraries/XMCLib/inc\xmc4_scu.h ****  *  Defines enumerations for events which can lead to interrupt. These enumeration values represent
 298:D:/Workspace/Development/my/DAVE/Infineon_CANopen/Libraries/XMCLib/inc\xmc4_scu.h ****  * status of one of the bits in \a SRSTAT register.
 299:D:/Workspace/Development/my/DAVE/Infineon_CANopen/Libraries/XMCLib/inc\xmc4_scu.h ****  *  Use type \a XMC_SCU_INTERRUPT_EVENT_t for accessing these enum parameters.
 300:D:/Workspace/Development/my/DAVE/Infineon_CANopen/Libraries/XMCLib/inc\xmc4_scu.h ****  */
 301:D:/Workspace/Development/my/DAVE/Infineon_CANopen/Libraries/XMCLib/inc\xmc4_scu.h **** typedef uint32_t XMC_SCU_INTERRUPT_EVENT_t;
 302:D:/Workspace/Development/my/DAVE/Infineon_CANopen/Libraries/XMCLib/inc\xmc4_scu.h **** 
 303:D:/Workspace/Development/my/DAVE/Infineon_CANopen/Libraries/XMCLib/inc\xmc4_scu.h **** 
 304:D:/Workspace/Development/my/DAVE/Infineon_CANopen/Libraries/XMCLib/inc\xmc4_scu.h **** /**
 305:D:/Workspace/Development/my/DAVE/Infineon_CANopen/Libraries/XMCLib/inc\xmc4_scu.h ****  *  Defines enumeration for the events that can generate non maskable interrupt(NMI).
 306:D:/Workspace/Development/my/DAVE/Infineon_CANopen/Libraries/XMCLib/inc\xmc4_scu.h ****  *  The NMI generation can be enabled with \a NMIREQEN register. The event will be reflected in \a 
 307:D:/Workspace/Development/my/DAVE/Infineon_CANopen/Libraries/XMCLib/inc\xmc4_scu.h ****  *  mirrored in the TRAPSTAT register. These enums can be used to configure NMI request generation 
 308:D:/Workspace/Development/my/DAVE/Infineon_CANopen/Libraries/XMCLib/inc\xmc4_scu.h ****  *  NMIREQEN register.  Once configured, these events can generate non maskable interrupt.
 309:D:/Workspace/Development/my/DAVE/Infineon_CANopen/Libraries/XMCLib/inc\xmc4_scu.h ****  *  All the enum items are tabulated as per bits present in \a NMIREQEN register.
 310:D:/Workspace/Development/my/DAVE/Infineon_CANopen/Libraries/XMCLib/inc\xmc4_scu.h ****  *  Use type \a XMC_SCU_NMIREQ_t for accessing these enum parameters.
 311:D:/Workspace/Development/my/DAVE/Infineon_CANopen/Libraries/XMCLib/inc\xmc4_scu.h ****  */
 312:D:/Workspace/Development/my/DAVE/Infineon_CANopen/Libraries/XMCLib/inc\xmc4_scu.h **** typedef enum XMC_SCU_NMIREQ
 313:D:/Workspace/Development/my/DAVE/Infineon_CANopen/Libraries/XMCLib/inc\xmc4_scu.h **** {
 314:D:/Workspace/Development/my/DAVE/Infineon_CANopen/Libraries/XMCLib/inc\xmc4_scu.h ****   XMC_SCU_NMIREQ_WDT_WARN = SCU_INTERRUPT_NMIREQEN_PRWARN_Msk, /**< Watchdog timer Pre-Warning even
 315:D:/Workspace/Development/my/DAVE/Infineon_CANopen/Libraries/XMCLib/inc\xmc4_scu.h ****   XMC_SCU_NMIREQ_RTC_PI   = SCU_INTERRUPT_NMIREQEN_PI_Msk,     /**< RTC Periodic event */
 316:D:/Workspace/Development/my/DAVE/Infineon_CANopen/Libraries/XMCLib/inc\xmc4_scu.h ****   XMC_SCU_NMIREQ_RTC_AI   = SCU_INTERRUPT_NMIREQEN_AI_Msk,     /**< RTC Alarm event */
 317:D:/Workspace/Development/my/DAVE/Infineon_CANopen/Libraries/XMCLib/inc\xmc4_scu.h ****   XMC_SCU_NMIREQ_ERU0_0   = SCU_INTERRUPT_NMIREQEN_ERU00_Msk,  /**< Channel 0 event of ERU0 */
 318:D:/Workspace/Development/my/DAVE/Infineon_CANopen/Libraries/XMCLib/inc\xmc4_scu.h ****   XMC_SCU_NMIREQ_ERU0_1   = SCU_INTERRUPT_NMIREQEN_ERU01_Msk,  /**< Channel 1 event of ERU0 */
 319:D:/Workspace/Development/my/DAVE/Infineon_CANopen/Libraries/XMCLib/inc\xmc4_scu.h ****   XMC_SCU_NMIREQ_ERU0_2   = SCU_INTERRUPT_NMIREQEN_ERU02_Msk,  /**< Channel 2 event of ERU0 */
 320:D:/Workspace/Development/my/DAVE/Infineon_CANopen/Libraries/XMCLib/inc\xmc4_scu.h ****   XMC_SCU_NMIREQ_ERU0_3   = SCU_INTERRUPT_NMIREQEN_ERU03_Msk   /**< Channel 3 event of ERU0 */
 321:D:/Workspace/Development/my/DAVE/Infineon_CANopen/Libraries/XMCLib/inc\xmc4_scu.h **** } XMC_SCU_NMIREQ_t;
 322:D:/Workspace/Development/my/DAVE/Infineon_CANopen/Libraries/XMCLib/inc\xmc4_scu.h **** 
 323:D:/Workspace/Development/my/DAVE/Infineon_CANopen/Libraries/XMCLib/inc\xmc4_scu.h **** 
 324:D:/Workspace/Development/my/DAVE/Infineon_CANopen/Libraries/XMCLib/inc\xmc4_scu.h **** /**
 325:D:/Workspace/Development/my/DAVE/Infineon_CANopen/Libraries/XMCLib/inc\xmc4_scu.h ****  *  Defines enumeration representing different peripheral reset bits in the \a PRSTAT registers.
 326:D:/Workspace/Development/my/DAVE/Infineon_CANopen/Libraries/XMCLib/inc\xmc4_scu.h ****  *  All the enum items are tabulated as per bits present in \a PRSTAT0,  \a PRSTAT1,  \a PRSTAT2,
 327:D:/Workspace/Development/my/DAVE/Infineon_CANopen/Libraries/XMCLib/inc\xmc4_scu.h ****  *  \a PRSTAT3 registers. Use type \a XMC_SCU_PERIPHERAL_RESET_t for accessing these enum parameter
 328:D:/Workspace/Development/my/DAVE/Infineon_CANopen/Libraries/XMCLib/inc\xmc4_scu.h ****  *  Note: Release of reset should be prevented when the peripheral clock is gated in cases where ke
 329:D:/Workspace/Development/my/DAVE/Infineon_CANopen/Libraries/XMCLib/inc\xmc4_scu.h ****  *  clock and bus interface clocks are shared, in order to avoid system hang-up.
 330:D:/Workspace/Development/my/DAVE/Infineon_CANopen/Libraries/XMCLib/inc\xmc4_scu.h ****  */
 331:D:/Workspace/Development/my/DAVE/Infineon_CANopen/Libraries/XMCLib/inc\xmc4_scu.h **** typedef enum XMC_SCU_PERIPHERAL_RESET
 332:D:/Workspace/Development/my/DAVE/Infineon_CANopen/Libraries/XMCLib/inc\xmc4_scu.h **** {
 333:D:/Workspace/Development/my/DAVE/Infineon_CANopen/Libraries/XMCLib/inc\xmc4_scu.h ****   XMC_SCU_PERIPHERAL_RESET_VADC   = SCU_RESET_PRSTAT0_VADCRS_Msk,   /**< VADC reset. */
 334:D:/Workspace/Development/my/DAVE/Infineon_CANopen/Libraries/XMCLib/inc\xmc4_scu.h **** #if defined(DSD)
 335:D:/Workspace/Development/my/DAVE/Infineon_CANopen/Libraries/XMCLib/inc\xmc4_scu.h ****   XMC_SCU_PERIPHERAL_RESET_DSD    = SCU_RESET_PRSTAT0_DSDRS_Msk,    /**< DSD reset. */
 336:D:/Workspace/Development/my/DAVE/Infineon_CANopen/Libraries/XMCLib/inc\xmc4_scu.h **** #endif
 337:D:/Workspace/Development/my/DAVE/Infineon_CANopen/Libraries/XMCLib/inc\xmc4_scu.h ****   XMC_SCU_PERIPHERAL_RESET_CCU40  = SCU_RESET_PRSTAT0_CCU40RS_Msk,  /**< CCU40 reset. */
 338:D:/Workspace/Development/my/DAVE/Infineon_CANopen/Libraries/XMCLib/inc\xmc4_scu.h **** #if defined(CCU41)
 339:D:/Workspace/Development/my/DAVE/Infineon_CANopen/Libraries/XMCLib/inc\xmc4_scu.h ****   XMC_SCU_PERIPHERAL_RESET_CCU41  = SCU_RESET_PRSTAT0_CCU41RS_Msk,  /**< CCU41 reset. */
 340:D:/Workspace/Development/my/DAVE/Infineon_CANopen/Libraries/XMCLib/inc\xmc4_scu.h **** #endif
 341:D:/Workspace/Development/my/DAVE/Infineon_CANopen/Libraries/XMCLib/inc\xmc4_scu.h **** #if defined(CCU42)
 342:D:/Workspace/Development/my/DAVE/Infineon_CANopen/Libraries/XMCLib/inc\xmc4_scu.h ****   XMC_SCU_PERIPHERAL_RESET_CCU42  = SCU_RESET_PRSTAT0_CCU42RS_Msk,  /**< CCU42 reset. */
 343:D:/Workspace/Development/my/DAVE/Infineon_CANopen/Libraries/XMCLib/inc\xmc4_scu.h **** #endif
 344:D:/Workspace/Development/my/DAVE/Infineon_CANopen/Libraries/XMCLib/inc\xmc4_scu.h **** #if defined(CCU80)
 345:D:/Workspace/Development/my/DAVE/Infineon_CANopen/Libraries/XMCLib/inc\xmc4_scu.h ****   XMC_SCU_PERIPHERAL_RESET_CCU80  = SCU_RESET_PRSTAT0_CCU80RS_Msk,  /**< CCU80 reset. */
 346:D:/Workspace/Development/my/DAVE/Infineon_CANopen/Libraries/XMCLib/inc\xmc4_scu.h **** #endif
 347:D:/Workspace/Development/my/DAVE/Infineon_CANopen/Libraries/XMCLib/inc\xmc4_scu.h **** #if defined(CCU81)
 348:D:/Workspace/Development/my/DAVE/Infineon_CANopen/Libraries/XMCLib/inc\xmc4_scu.h ****   XMC_SCU_PERIPHERAL_RESET_CCU81  = SCU_RESET_PRSTAT0_CCU81RS_Msk,  /**< CCU81 reset. */
 349:D:/Workspace/Development/my/DAVE/Infineon_CANopen/Libraries/XMCLib/inc\xmc4_scu.h **** #endif
 350:D:/Workspace/Development/my/DAVE/Infineon_CANopen/Libraries/XMCLib/inc\xmc4_scu.h **** #if defined(POSIF0)
 351:D:/Workspace/Development/my/DAVE/Infineon_CANopen/Libraries/XMCLib/inc\xmc4_scu.h ****   XMC_SCU_PERIPHERAL_RESET_POSIF0 = SCU_RESET_PRSTAT0_POSIF0RS_Msk, /**< POSIF0 reset. */
 352:D:/Workspace/Development/my/DAVE/Infineon_CANopen/Libraries/XMCLib/inc\xmc4_scu.h **** #endif
 353:D:/Workspace/Development/my/DAVE/Infineon_CANopen/Libraries/XMCLib/inc\xmc4_scu.h **** #if defined(POSIF1)
 354:D:/Workspace/Development/my/DAVE/Infineon_CANopen/Libraries/XMCLib/inc\xmc4_scu.h ****   XMC_SCU_PERIPHERAL_RESET_POSIF1 = SCU_RESET_PRSTAT0_POSIF1RS_Msk, /**< POSIF1 reset.*/
 355:D:/Workspace/Development/my/DAVE/Infineon_CANopen/Libraries/XMCLib/inc\xmc4_scu.h **** #endif
 356:D:/Workspace/Development/my/DAVE/Infineon_CANopen/Libraries/XMCLib/inc\xmc4_scu.h ****   XMC_SCU_PERIPHERAL_RESET_USIC0  = SCU_RESET_PRSTAT0_USIC0RS_Msk,  /**< USIC0 reset. */
 357:D:/Workspace/Development/my/DAVE/Infineon_CANopen/Libraries/XMCLib/inc\xmc4_scu.h ****   XMC_SCU_PERIPHERAL_RESET_ERU1   = SCU_RESET_PRSTAT0_ERU1RS_Msk,   /**< ERU1 reset. */
 358:D:/Workspace/Development/my/DAVE/Infineon_CANopen/Libraries/XMCLib/inc\xmc4_scu.h **** #if defined(HRPWM0)
 359:D:/Workspace/Development/my/DAVE/Infineon_CANopen/Libraries/XMCLib/inc\xmc4_scu.h ****   XMC_SCU_PERIPHERAL_RESET_HRPWM0 = SCU_RESET_PRSTAT0_HRPWM0RS_Msk,  /**< HRPWM0 reset. */
 360:D:/Workspace/Development/my/DAVE/Infineon_CANopen/Libraries/XMCLib/inc\xmc4_scu.h **** #endif
 361:D:/Workspace/Development/my/DAVE/Infineon_CANopen/Libraries/XMCLib/inc\xmc4_scu.h **** #if defined(CCU43)
 362:D:/Workspace/Development/my/DAVE/Infineon_CANopen/Libraries/XMCLib/inc\xmc4_scu.h ****   XMC_SCU_PERIPHERAL_RESET_CCU43  = (SCU_RESET_PRSTAT1_CCU43RS_Msk | 0x10000000UL),   /**< CCU43 re
 363:D:/Workspace/Development/my/DAVE/Infineon_CANopen/Libraries/XMCLib/inc\xmc4_scu.h **** #endif
 364:D:/Workspace/Development/my/DAVE/Infineon_CANopen/Libraries/XMCLib/inc\xmc4_scu.h **** #if defined(LEDTS0)
 365:D:/Workspace/Development/my/DAVE/Infineon_CANopen/Libraries/XMCLib/inc\xmc4_scu.h ****   XMC_SCU_PERIPHERAL_RESET_LEDTS0 = (SCU_RESET_PRSTAT1_LEDTSCU0RS_Msk | 0x10000000UL), /**< LEDTS0 
 366:D:/Workspace/Development/my/DAVE/Infineon_CANopen/Libraries/XMCLib/inc\xmc4_scu.h **** #endif
 367:D:/Workspace/Development/my/DAVE/Infineon_CANopen/Libraries/XMCLib/inc\xmc4_scu.h **** #if defined(CAN)
 368:D:/Workspace/Development/my/DAVE/Infineon_CANopen/Libraries/XMCLib/inc\xmc4_scu.h ****   XMC_SCU_PERIPHERAL_RESET_MCAN   = (SCU_RESET_PRSTAT1_MCAN0RS_Msk | 0x10000000UL), /**< MCAN reset
 369:D:/Workspace/Development/my/DAVE/Infineon_CANopen/Libraries/XMCLib/inc\xmc4_scu.h **** #endif
 370:D:/Workspace/Development/my/DAVE/Infineon_CANopen/Libraries/XMCLib/inc\xmc4_scu.h **** #if defined(DAC)
 371:D:/Workspace/Development/my/DAVE/Infineon_CANopen/Libraries/XMCLib/inc\xmc4_scu.h ****   XMC_SCU_PERIPHERAL_RESET_DAC    = (SCU_RESET_PRSTAT1_DACRS_Msk | 0x10000000UL),    /**< DAC reset
 372:D:/Workspace/Development/my/DAVE/Infineon_CANopen/Libraries/XMCLib/inc\xmc4_scu.h **** #endif
 373:D:/Workspace/Development/my/DAVE/Infineon_CANopen/Libraries/XMCLib/inc\xmc4_scu.h **** #if defined(SDMMC)
 374:D:/Workspace/Development/my/DAVE/Infineon_CANopen/Libraries/XMCLib/inc\xmc4_scu.h ****   XMC_SCU_PERIPHERAL_RESET_SDMMC  = (SCU_RESET_PRSTAT1_MMCIRS_Msk | 0x10000000UL),     /**< SDMMC r
 375:D:/Workspace/Development/my/DAVE/Infineon_CANopen/Libraries/XMCLib/inc\xmc4_scu.h **** #endif
 376:D:/Workspace/Development/my/DAVE/Infineon_CANopen/Libraries/XMCLib/inc\xmc4_scu.h **** #if defined(USIC1)
 377:D:/Workspace/Development/my/DAVE/Infineon_CANopen/Libraries/XMCLib/inc\xmc4_scu.h ****   XMC_SCU_PERIPHERAL_RESET_USIC1  = (SCU_RESET_PRSTAT1_USIC1RS_Msk | 0x10000000UL),    /**< USIC1 r
 378:D:/Workspace/Development/my/DAVE/Infineon_CANopen/Libraries/XMCLib/inc\xmc4_scu.h **** #endif
 379:D:/Workspace/Development/my/DAVE/Infineon_CANopen/Libraries/XMCLib/inc\xmc4_scu.h **** #if defined(USIC2)
 380:D:/Workspace/Development/my/DAVE/Infineon_CANopen/Libraries/XMCLib/inc\xmc4_scu.h ****   XMC_SCU_PERIPHERAL_RESET_USIC2  = (SCU_RESET_PRSTAT1_USIC2RS_Msk | 0x10000000UL),    /**< USIC2 r
 381:D:/Workspace/Development/my/DAVE/Infineon_CANopen/Libraries/XMCLib/inc\xmc4_scu.h **** #endif
 382:D:/Workspace/Development/my/DAVE/Infineon_CANopen/Libraries/XMCLib/inc\xmc4_scu.h ****   XMC_SCU_PERIPHERAL_RESET_PORTS  = (SCU_RESET_PRSTAT1_PPORTSRS_Msk | 0x10000000UL),   /**< PORTS r
 383:D:/Workspace/Development/my/DAVE/Infineon_CANopen/Libraries/XMCLib/inc\xmc4_scu.h ****   XMC_SCU_PERIPHERAL_RESET_WDT    = (SCU_RESET_PRSTAT2_WDTRS_Msk | 0x20000000UL),      /**< WDT res
 384:D:/Workspace/Development/my/DAVE/Infineon_CANopen/Libraries/XMCLib/inc\xmc4_scu.h **** #if defined(ETH0)
 385:D:/Workspace/Development/my/DAVE/Infineon_CANopen/Libraries/XMCLib/inc\xmc4_scu.h ****   XMC_SCU_PERIPHERAL_RESET_ETH0   = (SCU_RESET_PRSTAT2_ETH0RS_Msk | 0x20000000UL),     /**< ETH0 re
 386:D:/Workspace/Development/my/DAVE/Infineon_CANopen/Libraries/XMCLib/inc\xmc4_scu.h **** #endif
 387:D:/Workspace/Development/my/DAVE/Infineon_CANopen/Libraries/XMCLib/inc\xmc4_scu.h ****   XMC_SCU_PERIPHERAL_RESET_GPDMA0 = (SCU_RESET_PRSTAT2_DMA0RS_Msk | 0x20000000UL),     /**< DMA0 re
 388:D:/Workspace/Development/my/DAVE/Infineon_CANopen/Libraries/XMCLib/inc\xmc4_scu.h **** #if defined(GPDMA1)
 389:D:/Workspace/Development/my/DAVE/Infineon_CANopen/Libraries/XMCLib/inc\xmc4_scu.h ****   XMC_SCU_PERIPHERAL_RESET_GPDMA1 = (SCU_RESET_PRSTAT2_DMA1RS_Msk | 0x20000000UL),     /**< DMA1 re
 390:D:/Workspace/Development/my/DAVE/Infineon_CANopen/Libraries/XMCLib/inc\xmc4_scu.h **** #endif
 391:D:/Workspace/Development/my/DAVE/Infineon_CANopen/Libraries/XMCLib/inc\xmc4_scu.h **** #if defined(FCE)
 392:D:/Workspace/Development/my/DAVE/Infineon_CANopen/Libraries/XMCLib/inc\xmc4_scu.h ****   XMC_SCU_PERIPHERAL_RESET_FCE    = (SCU_RESET_PRSTAT2_FCERS_Msk | 0x20000000UL),      /**< FCE res
 393:D:/Workspace/Development/my/DAVE/Infineon_CANopen/Libraries/XMCLib/inc\xmc4_scu.h **** #endif
 394:D:/Workspace/Development/my/DAVE/Infineon_CANopen/Libraries/XMCLib/inc\xmc4_scu.h **** #if defined(USB0)
 395:D:/Workspace/Development/my/DAVE/Infineon_CANopen/Libraries/XMCLib/inc\xmc4_scu.h ****   XMC_SCU_PERIPHERAL_RESET_USB0   = (SCU_RESET_PRSTAT2_USBRS_Msk | 0x20000000UL),      /**< USB0 re
 396:D:/Workspace/Development/my/DAVE/Infineon_CANopen/Libraries/XMCLib/inc\xmc4_scu.h **** #endif
 397:D:/Workspace/Development/my/DAVE/Infineon_CANopen/Libraries/XMCLib/inc\xmc4_scu.h **** #if defined(ECAT0)
 398:D:/Workspace/Development/my/DAVE/Infineon_CANopen/Libraries/XMCLib/inc\xmc4_scu.h ****   XMC_SCU_PERIPHERAL_RESET_ECAT0  = (SCU_RESET_PRSTAT2_ECAT0RS_Msk | 0x20000000UL),      /**< ECAT0
 399:D:/Workspace/Development/my/DAVE/Infineon_CANopen/Libraries/XMCLib/inc\xmc4_scu.h **** #endif
 400:D:/Workspace/Development/my/DAVE/Infineon_CANopen/Libraries/XMCLib/inc\xmc4_scu.h **** #if defined(EBU)
 401:D:/Workspace/Development/my/DAVE/Infineon_CANopen/Libraries/XMCLib/inc\xmc4_scu.h ****   XMC_SCU_PERIPHERAL_RESET_EBU    = (SCU_RESET_PRSTAT3_EBURS_Msk | 0x30000000UL)       /**< EBU res
 402:D:/Workspace/Development/my/DAVE/Infineon_CANopen/Libraries/XMCLib/inc\xmc4_scu.h **** #endif
 403:D:/Workspace/Development/my/DAVE/Infineon_CANopen/Libraries/XMCLib/inc\xmc4_scu.h **** } XMC_SCU_PERIPHERAL_RESET_t;
 404:D:/Workspace/Development/my/DAVE/Infineon_CANopen/Libraries/XMCLib/inc\xmc4_scu.h **** 
 405:D:/Workspace/Development/my/DAVE/Infineon_CANopen/Libraries/XMCLib/inc\xmc4_scu.h **** /**
 406:D:/Workspace/Development/my/DAVE/Infineon_CANopen/Libraries/XMCLib/inc\xmc4_scu.h ****  *  Defines enumerations for disabling the clocks sources of peripherals. Disabling of the peripher
 407:D:/Workspace/Development/my/DAVE/Infineon_CANopen/Libraries/XMCLib/inc\xmc4_scu.h ****  *  clock is configured via the \a CLKCLR registers.
 408:D:/Workspace/Development/my/DAVE/Infineon_CANopen/Libraries/XMCLib/inc\xmc4_scu.h ****  *  Use type \a XMC_SCU_PERIPHERAL_CLOCK_t for accessing these enum parameters.
 409:D:/Workspace/Development/my/DAVE/Infineon_CANopen/Libraries/XMCLib/inc\xmc4_scu.h ****  */
 410:D:/Workspace/Development/my/DAVE/Infineon_CANopen/Libraries/XMCLib/inc\xmc4_scu.h **** typedef enum XMC_SCU_CLOCK
 411:D:/Workspace/Development/my/DAVE/Infineon_CANopen/Libraries/XMCLib/inc\xmc4_scu.h **** {
 412:D:/Workspace/Development/my/DAVE/Infineon_CANopen/Libraries/XMCLib/inc\xmc4_scu.h ****   XMC_SCU_CLOCK_USB = SCU_CLK_CLKCLR_USBCDI_Msk, /**< USB module clock. */
 413:D:/Workspace/Development/my/DAVE/Infineon_CANopen/Libraries/XMCLib/inc\xmc4_scu.h **** #if defined(SDMMC)
 414:D:/Workspace/Development/my/DAVE/Infineon_CANopen/Libraries/XMCLib/inc\xmc4_scu.h ****   XMC_SCU_CLOCK_MMC = SCU_CLK_CLKCLR_MMCCDI_Msk, /**< MMC module clock. */
 415:D:/Workspace/Development/my/DAVE/Infineon_CANopen/Libraries/XMCLib/inc\xmc4_scu.h **** #endif
 416:D:/Workspace/Development/my/DAVE/Infineon_CANopen/Libraries/XMCLib/inc\xmc4_scu.h **** #if defined(ETH0)
 417:D:/Workspace/Development/my/DAVE/Infineon_CANopen/Libraries/XMCLib/inc\xmc4_scu.h ****   XMC_SCU_CLOCK_ETH = SCU_CLK_CLKCLR_ETH0CDI_Msk, /**< Ethernet module clock. */
 418:D:/Workspace/Development/my/DAVE/Infineon_CANopen/Libraries/XMCLib/inc\xmc4_scu.h **** #endif
 419:D:/Workspace/Development/my/DAVE/Infineon_CANopen/Libraries/XMCLib/inc\xmc4_scu.h **** #if defined(EBU)
 420:D:/Workspace/Development/my/DAVE/Infineon_CANopen/Libraries/XMCLib/inc\xmc4_scu.h ****   XMC_SCU_CLOCK_EBU = SCU_CLK_CLKCLR_EBUCDI_Msk, /**< EBU module clock. */
 421:D:/Workspace/Development/my/DAVE/Infineon_CANopen/Libraries/XMCLib/inc\xmc4_scu.h **** #endif
 422:D:/Workspace/Development/my/DAVE/Infineon_CANopen/Libraries/XMCLib/inc\xmc4_scu.h ****   XMC_SCU_CLOCK_CCU = SCU_CLK_CLKCLR_CCUCDI_Msk, /**< CCU module clock. */
 423:D:/Workspace/Development/my/DAVE/Infineon_CANopen/Libraries/XMCLib/inc\xmc4_scu.h ****   XMC_SCU_CLOCK_WDT = SCU_CLK_CLKCLR_WDTCDI_Msk  /**< WDT module clock. */
 424:D:/Workspace/Development/my/DAVE/Infineon_CANopen/Libraries/XMCLib/inc\xmc4_scu.h **** } XMC_SCU_CLOCK_t;
 425:D:/Workspace/Development/my/DAVE/Infineon_CANopen/Libraries/XMCLib/inc\xmc4_scu.h **** 
 426:D:/Workspace/Development/my/DAVE/Infineon_CANopen/Libraries/XMCLib/inc\xmc4_scu.h **** #if(UC_SERIES != XMC45)
 427:D:/Workspace/Development/my/DAVE/Infineon_CANopen/Libraries/XMCLib/inc\xmc4_scu.h **** /**
 428:D:/Workspace/Development/my/DAVE/Infineon_CANopen/Libraries/XMCLib/inc\xmc4_scu.h ****  * Defines enumeration for peripherals that support clock gating.
 429:D:/Workspace/Development/my/DAVE/Infineon_CANopen/Libraries/XMCLib/inc\xmc4_scu.h ****  * The enumerations can be used for gating or ungating the peripheral clocks.
 430:D:/Workspace/Development/my/DAVE/Infineon_CANopen/Libraries/XMCLib/inc\xmc4_scu.h ****  * All the enum items are tabulated as per bits present in \a CGATSTAT0 register.
 431:D:/Workspace/Development/my/DAVE/Infineon_CANopen/Libraries/XMCLib/inc\xmc4_scu.h ****  * Use type \a XMC_SCU_PERIPHERAL_CLOCK_t for accessing these enum parameters.
 432:D:/Workspace/Development/my/DAVE/Infineon_CANopen/Libraries/XMCLib/inc\xmc4_scu.h ****  */
 433:D:/Workspace/Development/my/DAVE/Infineon_CANopen/Libraries/XMCLib/inc\xmc4_scu.h **** typedef enum XMC_SCU_PERIPHERAL_CLOCK
 434:D:/Workspace/Development/my/DAVE/Infineon_CANopen/Libraries/XMCLib/inc\xmc4_scu.h **** {
 435:D:/Workspace/Development/my/DAVE/Infineon_CANopen/Libraries/XMCLib/inc\xmc4_scu.h ****   XMC_SCU_PERIPHERAL_CLOCK_VADC   = SCU_CLK_CGATSTAT0_VADC_Msk,  /**< VADC peripheral gating. */
 436:D:/Workspace/Development/my/DAVE/Infineon_CANopen/Libraries/XMCLib/inc\xmc4_scu.h **** #if defined(DSD)
 437:D:/Workspace/Development/my/DAVE/Infineon_CANopen/Libraries/XMCLib/inc\xmc4_scu.h ****   XMC_SCU_PERIPHERAL_CLOCK_DSD    = SCU_CLK_CGATSTAT0_DSD_Msk,   /**< DSD peripheral gating. */
 438:D:/Workspace/Development/my/DAVE/Infineon_CANopen/Libraries/XMCLib/inc\xmc4_scu.h **** #endif
 439:D:/Workspace/Development/my/DAVE/Infineon_CANopen/Libraries/XMCLib/inc\xmc4_scu.h ****   XMC_SCU_PERIPHERAL_CLOCK_CCU40  = SCU_CLK_CGATSTAT0_CCU40_Msk,  /**< CCU40 peripheral gating. */
 440:D:/Workspace/Development/my/DAVE/Infineon_CANopen/Libraries/XMCLib/inc\xmc4_scu.h **** #if defined(CCU41)
 441:D:/Workspace/Development/my/DAVE/Infineon_CANopen/Libraries/XMCLib/inc\xmc4_scu.h ****   XMC_SCU_PERIPHERAL_CLOCK_CCU41  = SCU_CLK_CGATSTAT0_CCU41_Msk,  /**< CCU41 peripheral gating. */
 442:D:/Workspace/Development/my/DAVE/Infineon_CANopen/Libraries/XMCLib/inc\xmc4_scu.h **** #endif
 443:D:/Workspace/Development/my/DAVE/Infineon_CANopen/Libraries/XMCLib/inc\xmc4_scu.h **** #if defined(CCU42)
 444:D:/Workspace/Development/my/DAVE/Infineon_CANopen/Libraries/XMCLib/inc\xmc4_scu.h ****   XMC_SCU_PERIPHERAL_CLOCK_CCU42  = SCU_CLK_CGATSTAT0_CCU42_Msk,  /**< CCU42 peripheral gating. */
 445:D:/Workspace/Development/my/DAVE/Infineon_CANopen/Libraries/XMCLib/inc\xmc4_scu.h **** #endif
 446:D:/Workspace/Development/my/DAVE/Infineon_CANopen/Libraries/XMCLib/inc\xmc4_scu.h **** #if defined(CCU80)
 447:D:/Workspace/Development/my/DAVE/Infineon_CANopen/Libraries/XMCLib/inc\xmc4_scu.h ****   XMC_SCU_PERIPHERAL_CLOCK_CCU80  = SCU_CLK_CGATSTAT0_CCU80_Msk,  /**< CCU80 peripheral gating. */
 448:D:/Workspace/Development/my/DAVE/Infineon_CANopen/Libraries/XMCLib/inc\xmc4_scu.h **** #endif
 449:D:/Workspace/Development/my/DAVE/Infineon_CANopen/Libraries/XMCLib/inc\xmc4_scu.h **** #if defined(CCU81)
 450:D:/Workspace/Development/my/DAVE/Infineon_CANopen/Libraries/XMCLib/inc\xmc4_scu.h ****   XMC_SCU_PERIPHERAL_CLOCK_CCU81  = SCU_CLK_CGATSTAT0_CCU81_Msk,  /**< CCU81 peripheral gating. */
 451:D:/Workspace/Development/my/DAVE/Infineon_CANopen/Libraries/XMCLib/inc\xmc4_scu.h **** #endif
 452:D:/Workspace/Development/my/DAVE/Infineon_CANopen/Libraries/XMCLib/inc\xmc4_scu.h **** #if defined(POSIF0)
 453:D:/Workspace/Development/my/DAVE/Infineon_CANopen/Libraries/XMCLib/inc\xmc4_scu.h ****   XMC_SCU_PERIPHERAL_CLOCK_POSIF0 = SCU_CLK_CGATSTAT0_POSIF0_Msk,  /**< POSIF0 peripheral gating. *
 454:D:/Workspace/Development/my/DAVE/Infineon_CANopen/Libraries/XMCLib/inc\xmc4_scu.h **** #endif
 455:D:/Workspace/Development/my/DAVE/Infineon_CANopen/Libraries/XMCLib/inc\xmc4_scu.h **** #if defined(POSIF1)
 456:D:/Workspace/Development/my/DAVE/Infineon_CANopen/Libraries/XMCLib/inc\xmc4_scu.h ****   XMC_SCU_PERIPHERAL_CLOCK_POSIF1 = SCU_CLK_CGATSTAT0_POSIF1_Msk,   /**< POSIF1 peripheral gating. 
 457:D:/Workspace/Development/my/DAVE/Infineon_CANopen/Libraries/XMCLib/inc\xmc4_scu.h **** #endif
 458:D:/Workspace/Development/my/DAVE/Infineon_CANopen/Libraries/XMCLib/inc\xmc4_scu.h ****   XMC_SCU_PERIPHERAL_CLOCK_USIC0  = SCU_CLK_CGATSTAT0_USIC0_Msk,   /**< USIC0 peripheral gating. */
 459:D:/Workspace/Development/my/DAVE/Infineon_CANopen/Libraries/XMCLib/inc\xmc4_scu.h ****   XMC_SCU_PERIPHERAL_CLOCK_ERU1   = SCU_CLK_CGATSTAT0_ERU1_Msk,    /**< ERU1 peripheral gating. */
 460:D:/Workspace/Development/my/DAVE/Infineon_CANopen/Libraries/XMCLib/inc\xmc4_scu.h **** #if defined(HRPWM0)
 461:D:/Workspace/Development/my/DAVE/Infineon_CANopen/Libraries/XMCLib/inc\xmc4_scu.h ****   XMC_SCU_PERIPHERAL_CLOCK_HRPWM0 = SCU_CLK_CGATSTAT0_HRPWM0_Msk,  /**< HRPWM0 peripheral gating. *
 462:D:/Workspace/Development/my/DAVE/Infineon_CANopen/Libraries/XMCLib/inc\xmc4_scu.h **** #endif
 463:D:/Workspace/Development/my/DAVE/Infineon_CANopen/Libraries/XMCLib/inc\xmc4_scu.h **** #if defined(CCU43)
 464:D:/Workspace/Development/my/DAVE/Infineon_CANopen/Libraries/XMCLib/inc\xmc4_scu.h ****   XMC_SCU_PERIPHERAL_CLOCK_CCU43  = (SCU_CLK_CGATSTAT1_CCU43_Msk | 0x10000000UL),   /**< CCU43 peri
 465:D:/Workspace/Development/my/DAVE/Infineon_CANopen/Libraries/XMCLib/inc\xmc4_scu.h **** #endif
 466:D:/Workspace/Development/my/DAVE/Infineon_CANopen/Libraries/XMCLib/inc\xmc4_scu.h **** #if defined(LEDTS0)
 467:D:/Workspace/Development/my/DAVE/Infineon_CANopen/Libraries/XMCLib/inc\xmc4_scu.h ****   XMC_SCU_PERIPHERAL_CLOCK_LEDTS0 = (SCU_CLK_CGATSTAT1_LEDTSCU0_Msk | 0x10000000UL), /**< LEDTS0 pe
 468:D:/Workspace/Development/my/DAVE/Infineon_CANopen/Libraries/XMCLib/inc\xmc4_scu.h **** #endif
 469:D:/Workspace/Development/my/DAVE/Infineon_CANopen/Libraries/XMCLib/inc\xmc4_scu.h **** #if defined(CAN)
 470:D:/Workspace/Development/my/DAVE/Infineon_CANopen/Libraries/XMCLib/inc\xmc4_scu.h ****   XMC_SCU_PERIPHERAL_CLOCK_MCAN   = (SCU_CLK_CGATSTAT1_MCAN0_Msk | 0x10000000UL),   /**< MCAN perip
 471:D:/Workspace/Development/my/DAVE/Infineon_CANopen/Libraries/XMCLib/inc\xmc4_scu.h **** #endif
 472:D:/Workspace/Development/my/DAVE/Infineon_CANopen/Libraries/XMCLib/inc\xmc4_scu.h **** #if defined(DAC)
 473:D:/Workspace/Development/my/DAVE/Infineon_CANopen/Libraries/XMCLib/inc\xmc4_scu.h ****   XMC_SCU_PERIPHERAL_CLOCK_DAC    = (SCU_CLK_CGATSTAT1_DAC_Msk | 0x10000000UL),     /**< DAC periph
 474:D:/Workspace/Development/my/DAVE/Infineon_CANopen/Libraries/XMCLib/inc\xmc4_scu.h **** #endif
 475:D:/Workspace/Development/my/DAVE/Infineon_CANopen/Libraries/XMCLib/inc\xmc4_scu.h **** #if defined(SDMMC)
 476:D:/Workspace/Development/my/DAVE/Infineon_CANopen/Libraries/XMCLib/inc\xmc4_scu.h ****   XMC_SCU_PERIPHERAL_CLOCK_SDMMC  = (SCU_CLK_CGATSTAT1_MMCI_Msk | 0x10000000UL),    /**< SDMMC peri
 477:D:/Workspace/Development/my/DAVE/Infineon_CANopen/Libraries/XMCLib/inc\xmc4_scu.h **** #endif
 478:D:/Workspace/Development/my/DAVE/Infineon_CANopen/Libraries/XMCLib/inc\xmc4_scu.h **** #if defined(USIC1)
 479:D:/Workspace/Development/my/DAVE/Infineon_CANopen/Libraries/XMCLib/inc\xmc4_scu.h ****   XMC_SCU_PERIPHERAL_CLOCK_USIC1  = (SCU_CLK_CGATSTAT1_USIC1_Msk | 0x10000000UL),   /**< USIC1 peri
 480:D:/Workspace/Development/my/DAVE/Infineon_CANopen/Libraries/XMCLib/inc\xmc4_scu.h **** #endif
 481:D:/Workspace/Development/my/DAVE/Infineon_CANopen/Libraries/XMCLib/inc\xmc4_scu.h **** #if defined(USIC2)
 482:D:/Workspace/Development/my/DAVE/Infineon_CANopen/Libraries/XMCLib/inc\xmc4_scu.h ****   XMC_SCU_PERIPHERAL_CLOCK_USIC2  = (SCU_CLK_CGATSTAT1_USIC2_Msk | 0x10000000UL),    /**< USIC2 per
 483:D:/Workspace/Development/my/DAVE/Infineon_CANopen/Libraries/XMCLib/inc\xmc4_scu.h **** #endif
 484:D:/Workspace/Development/my/DAVE/Infineon_CANopen/Libraries/XMCLib/inc\xmc4_scu.h ****   XMC_SCU_PERIPHERAL_CLOCK_PORTS  = (SCU_CLK_CGATSTAT1_PPORTS_Msk | 0x10000000UL),   /**< PORTS per
 485:D:/Workspace/Development/my/DAVE/Infineon_CANopen/Libraries/XMCLib/inc\xmc4_scu.h ****   XMC_SCU_PERIPHERAL_CLOCK_WDT    = (SCU_CLK_CGATSTAT2_WDT_Msk | 0x20000000UL),      /**< WDT perip
 486:D:/Workspace/Development/my/DAVE/Infineon_CANopen/Libraries/XMCLib/inc\xmc4_scu.h **** #if defined(ETH0)
 487:D:/Workspace/Development/my/DAVE/Infineon_CANopen/Libraries/XMCLib/inc\xmc4_scu.h ****   XMC_SCU_PERIPHERAL_CLOCK_ETH0   = (SCU_CLK_CGATSTAT2_ETH0_Msk | 0x20000000UL),     /**< ETH0 peri
 488:D:/Workspace/Development/my/DAVE/Infineon_CANopen/Libraries/XMCLib/inc\xmc4_scu.h **** #endif
 489:D:/Workspace/Development/my/DAVE/Infineon_CANopen/Libraries/XMCLib/inc\xmc4_scu.h ****   XMC_SCU_PERIPHERAL_CLOCK_GPDMA0 = (SCU_CLK_CGATSTAT2_DMA0_Msk | 0x20000000UL),     /**< DMA0 peri
 490:D:/Workspace/Development/my/DAVE/Infineon_CANopen/Libraries/XMCLib/inc\xmc4_scu.h **** #if defined(GPDMA1)
 491:D:/Workspace/Development/my/DAVE/Infineon_CANopen/Libraries/XMCLib/inc\xmc4_scu.h ****   XMC_SCU_PERIPHERAL_CLOCK_GPDMA1 = (SCU_CLK_CGATSTAT2_DMA1_Msk | 0x20000000UL),     /**< DMA1 peri
 492:D:/Workspace/Development/my/DAVE/Infineon_CANopen/Libraries/XMCLib/inc\xmc4_scu.h **** #endif
 493:D:/Workspace/Development/my/DAVE/Infineon_CANopen/Libraries/XMCLib/inc\xmc4_scu.h **** #if defined(FCE)
 494:D:/Workspace/Development/my/DAVE/Infineon_CANopen/Libraries/XMCLib/inc\xmc4_scu.h ****   XMC_SCU_PERIPHERAL_CLOCK_FCE    = (SCU_CLK_CGATSTAT2_FCE_Msk | 0x20000000UL),      /**< FCE perip
 495:D:/Workspace/Development/my/DAVE/Infineon_CANopen/Libraries/XMCLib/inc\xmc4_scu.h **** #endif
 496:D:/Workspace/Development/my/DAVE/Infineon_CANopen/Libraries/XMCLib/inc\xmc4_scu.h **** #if defined(USB0)
 497:D:/Workspace/Development/my/DAVE/Infineon_CANopen/Libraries/XMCLib/inc\xmc4_scu.h ****   XMC_SCU_PERIPHERAL_CLOCK_USB0   = (SCU_CLK_CGATSTAT2_USB_Msk | 0x20000000UL),      /**< USB0 peri
 498:D:/Workspace/Development/my/DAVE/Infineon_CANopen/Libraries/XMCLib/inc\xmc4_scu.h **** #endif
 499:D:/Workspace/Development/my/DAVE/Infineon_CANopen/Libraries/XMCLib/inc\xmc4_scu.h **** #if defined(ECAT0)
 500:D:/Workspace/Development/my/DAVE/Infineon_CANopen/Libraries/XMCLib/inc\xmc4_scu.h ****   XMC_SCU_PERIPHERAL_CLOCK_ECAT0   = (SCU_CLK_CGATSTAT2_ECAT0_Msk | 0x20000000UL),      /**< ECAT0 
 501:D:/Workspace/Development/my/DAVE/Infineon_CANopen/Libraries/XMCLib/inc\xmc4_scu.h **** #endif
 502:D:/Workspace/Development/my/DAVE/Infineon_CANopen/Libraries/XMCLib/inc\xmc4_scu.h **** #if defined(EBU)
 503:D:/Workspace/Development/my/DAVE/Infineon_CANopen/Libraries/XMCLib/inc\xmc4_scu.h ****   XMC_SCU_PERIPHERAL_CLOCK_EBU    = (SCU_CLK_CGATSTAT3_EBU_Msk | 0x30000000UL)       /**< EBU perip
 504:D:/Workspace/Development/my/DAVE/Infineon_CANopen/Libraries/XMCLib/inc\xmc4_scu.h **** #endif
 505:D:/Workspace/Development/my/DAVE/Infineon_CANopen/Libraries/XMCLib/inc\xmc4_scu.h **** } XMC_SCU_PERIPHERAL_CLOCK_t;
 506:D:/Workspace/Development/my/DAVE/Infineon_CANopen/Libraries/XMCLib/inc\xmc4_scu.h **** #endif
 507:D:/Workspace/Development/my/DAVE/Infineon_CANopen/Libraries/XMCLib/inc\xmc4_scu.h **** 
 508:D:/Workspace/Development/my/DAVE/Infineon_CANopen/Libraries/XMCLib/inc\xmc4_scu.h **** /**
 509:D:/Workspace/Development/my/DAVE/Infineon_CANopen/Libraries/XMCLib/inc\xmc4_scu.h ****  *  Defines options for system clock (fSYS) source. These enums are used to configure \a SYSSEL bit
 510:D:/Workspace/Development/my/DAVE/Infineon_CANopen/Libraries/XMCLib/inc\xmc4_scu.h ****  *  Clock Control Register.
 511:D:/Workspace/Development/my/DAVE/Infineon_CANopen/Libraries/XMCLib/inc\xmc4_scu.h ****  *  Use type \a XMC_SCU_CLOCK_SYSCLKSRC_t for accessing these enum parameters.
 512:D:/Workspace/Development/my/DAVE/Infineon_CANopen/Libraries/XMCLib/inc\xmc4_scu.h ****  */
 513:D:/Workspace/Development/my/DAVE/Infineon_CANopen/Libraries/XMCLib/inc\xmc4_scu.h **** typedef enum XMC_SCU_CLOCK_SYSCLKSRC
 514:D:/Workspace/Development/my/DAVE/Infineon_CANopen/Libraries/XMCLib/inc\xmc4_scu.h **** {
 515:D:/Workspace/Development/my/DAVE/Infineon_CANopen/Libraries/XMCLib/inc\xmc4_scu.h ****   XMC_SCU_CLOCK_SYSCLKSRC_OFI = (0UL << SCU_CLK_SYSCLKCR_SYSSEL_Pos), /**< Internal Fast Clock (fOF
 516:D:/Workspace/Development/my/DAVE/Infineon_CANopen/Libraries/XMCLib/inc\xmc4_scu.h ****                                                                            source for system clock 
 517:D:/Workspace/Development/my/DAVE/Infineon_CANopen/Libraries/XMCLib/inc\xmc4_scu.h ****   XMC_SCU_CLOCK_SYSCLKSRC_PLL = (1UL << SCU_CLK_SYSCLKCR_SYSSEL_Pos)  /**< PLL output (fPLL) as a
 518:D:/Workspace/Development/my/DAVE/Infineon_CANopen/Libraries/XMCLib/inc\xmc4_scu.h ****                                                                            source for system clock 
 519:D:/Workspace/Development/my/DAVE/Infineon_CANopen/Libraries/XMCLib/inc\xmc4_scu.h **** } XMC_SCU_CLOCK_SYSCLKSRC_t;
 520:D:/Workspace/Development/my/DAVE/Infineon_CANopen/Libraries/XMCLib/inc\xmc4_scu.h **** 
 521:D:/Workspace/Development/my/DAVE/Infineon_CANopen/Libraries/XMCLib/inc\xmc4_scu.h **** /**
 522:D:/Workspace/Development/my/DAVE/Infineon_CANopen/Libraries/XMCLib/inc\xmc4_scu.h ****  *  Defines options for selecting the P-Divider input frequency. These enums are used to configure 
 523:D:/Workspace/Development/my/DAVE/Infineon_CANopen/Libraries/XMCLib/inc\xmc4_scu.h ****  *  register.
 524:D:/Workspace/Development/my/DAVE/Infineon_CANopen/Libraries/XMCLib/inc\xmc4_scu.h ****  *  Use type \a XMC_SCU_CLOCK_OSCCLKSRC_t for accessing these enum parameters.
 525:D:/Workspace/Development/my/DAVE/Infineon_CANopen/Libraries/XMCLib/inc\xmc4_scu.h ****  */
 526:D:/Workspace/Development/my/DAVE/Infineon_CANopen/Libraries/XMCLib/inc\xmc4_scu.h **** typedef enum XMC_SCU_CLOCK_SYSPLLCLKSRC
 527:D:/Workspace/Development/my/DAVE/Infineon_CANopen/Libraries/XMCLib/inc\xmc4_scu.h **** {
 528:D:/Workspace/Development/my/DAVE/Infineon_CANopen/Libraries/XMCLib/inc\xmc4_scu.h ****   XMC_SCU_CLOCK_SYSPLLCLKSRC_OSCHP = 0UL,  /**< External crystal oscillator
 529:D:/Workspace/Development/my/DAVE/Infineon_CANopen/Libraries/XMCLib/inc\xmc4_scu.h ****                                                 (fOHP) as the source for P-Divider. */
 530:D:/Workspace/Development/my/DAVE/Infineon_CANopen/Libraries/XMCLib/inc\xmc4_scu.h ****   XMC_SCU_CLOCK_SYSPLLCLKSRC_OFI = SCU_PLL_PLLCON2_PINSEL_Msk | SCU_PLL_PLLCON2_K1INSEL_Msk /**< Ba
 531:D:/Workspace/Development/my/DAVE/Infineon_CANopen/Libraries/XMCLib/inc\xmc4_scu.h ****                                                                              as the source for P-Di
 532:D:/Workspace/Development/my/DAVE/Infineon_CANopen/Libraries/XMCLib/inc\xmc4_scu.h **** } XMC_SCU_CLOCK_SYSPLLCLKSRC_t;
 533:D:/Workspace/Development/my/DAVE/Infineon_CANopen/Libraries/XMCLib/inc\xmc4_scu.h **** 
 534:D:/Workspace/Development/my/DAVE/Infineon_CANopen/Libraries/XMCLib/inc\xmc4_scu.h **** /**
 535:D:/Workspace/Development/my/DAVE/Infineon_CANopen/Libraries/XMCLib/inc\xmc4_scu.h ****  * Defines options for selecting the USB clock source(fUSB/fSDMMC).
 536:D:/Workspace/Development/my/DAVE/Infineon_CANopen/Libraries/XMCLib/inc\xmc4_scu.h ****  * These enums are used to configure \a USBSEL bits of \a USBCLKCR
 537:D:/Workspace/Development/my/DAVE/Infineon_CANopen/Libraries/XMCLib/inc\xmc4_scu.h ****  * register. User can choose either fPLL or fUSBPLL clock as a source for USB clock.
 538:D:/Workspace/Development/my/DAVE/Infineon_CANopen/Libraries/XMCLib/inc\xmc4_scu.h ****  * Use type \a XMC_SCU_CLOCK_USBCLKSRC_t for accessing these enum parameters.
 539:D:/Workspace/Development/my/DAVE/Infineon_CANopen/Libraries/XMCLib/inc\xmc4_scu.h ****  */
 540:D:/Workspace/Development/my/DAVE/Infineon_CANopen/Libraries/XMCLib/inc\xmc4_scu.h **** typedef enum XMC_SCU_CLOCK_USBCLKSRC
 541:D:/Workspace/Development/my/DAVE/Infineon_CANopen/Libraries/XMCLib/inc\xmc4_scu.h **** {
 542:D:/Workspace/Development/my/DAVE/Infineon_CANopen/Libraries/XMCLib/inc\xmc4_scu.h ****   XMC_SCU_CLOCK_USBCLKSRC_USBPLL = (0UL << SCU_CLK_USBCLKCR_USBSEL_Pos), /**< USB PLL(fUSB PLL) as 
 543:D:/Workspace/Development/my/DAVE/Infineon_CANopen/Libraries/XMCLib/inc\xmc4_scu.h ****                                                                            source for USB clock (fU
 544:D:/Workspace/Development/my/DAVE/Infineon_CANopen/Libraries/XMCLib/inc\xmc4_scu.h ****   XMC_SCU_CLOCK_USBCLKSRC_SYSPLL = (1UL << SCU_CLK_USBCLKCR_USBSEL_Pos)  /**< Main PLL output (fPLL
 545:D:/Workspace/Development/my/DAVE/Infineon_CANopen/Libraries/XMCLib/inc\xmc4_scu.h ****                                                                            source for USB clock (fU
 546:D:/Workspace/Development/my/DAVE/Infineon_CANopen/Libraries/XMCLib/inc\xmc4_scu.h **** } XMC_SCU_CLOCK_USBCLKSRC_t;
 547:D:/Workspace/Development/my/DAVE/Infineon_CANopen/Libraries/XMCLib/inc\xmc4_scu.h **** 
 548:D:/Workspace/Development/my/DAVE/Infineon_CANopen/Libraries/XMCLib/inc\xmc4_scu.h **** #if defined(ECAT0)
 549:D:/Workspace/Development/my/DAVE/Infineon_CANopen/Libraries/XMCLib/inc\xmc4_scu.h **** /**
 550:D:/Workspace/Development/my/DAVE/Infineon_CANopen/Libraries/XMCLib/inc\xmc4_scu.h ****  * Defines options for selecting the ECAT clock source.
 551:D:/Workspace/Development/my/DAVE/Infineon_CANopen/Libraries/XMCLib/inc\xmc4_scu.h ****  */
 552:D:/Workspace/Development/my/DAVE/Infineon_CANopen/Libraries/XMCLib/inc\xmc4_scu.h **** typedef enum XMC_SCU_CLOCK_ECATCLKSRC
 553:D:/Workspace/Development/my/DAVE/Infineon_CANopen/Libraries/XMCLib/inc\xmc4_scu.h **** {
 554:D:/Workspace/Development/my/DAVE/Infineon_CANopen/Libraries/XMCLib/inc\xmc4_scu.h ****   XMC_SCU_CLOCK_ECATCLKSRC_USBPLL = (0UL << SCU_CLK_ECATCLKCR_ECATSEL_Pos), /**< USB PLL (fUSBPLL) 
 555:D:/Workspace/Development/my/DAVE/Infineon_CANopen/Libraries/XMCLib/inc\xmc4_scu.h ****   XMC_SCU_CLOCK_ECATCLKSRC_SYSPLL = (1UL << SCU_CLK_ECATCLKCR_ECATSEL_Pos)  /**< Main PLL output (f
 556:D:/Workspace/Development/my/DAVE/Infineon_CANopen/Libraries/XMCLib/inc\xmc4_scu.h **** } XMC_SCU_CLOCK_ECATCLKSRC_t;
 557:D:/Workspace/Development/my/DAVE/Infineon_CANopen/Libraries/XMCLib/inc\xmc4_scu.h **** #endif
 558:D:/Workspace/Development/my/DAVE/Infineon_CANopen/Libraries/XMCLib/inc\xmc4_scu.h **** 
 559:D:/Workspace/Development/my/DAVE/Infineon_CANopen/Libraries/XMCLib/inc\xmc4_scu.h **** /**
 560:D:/Workspace/Development/my/DAVE/Infineon_CANopen/Libraries/XMCLib/inc\xmc4_scu.h ****  *  Defines options for selecting the source of WDT clock(fWDT). These enums are used to configure 
 561:D:/Workspace/Development/my/DAVE/Infineon_CANopen/Libraries/XMCLib/inc\xmc4_scu.h ****  *  register. User can choose either fOFI or fPLL or fSTDBY clock as a source for WDT clock.
 562:D:/Workspace/Development/my/DAVE/Infineon_CANopen/Libraries/XMCLib/inc\xmc4_scu.h ****  *  Use type \a XMC_SCU_CLOCK_USBCLKSRC_t for accessing these enum parameters.
 563:D:/Workspace/Development/my/DAVE/Infineon_CANopen/Libraries/XMCLib/inc\xmc4_scu.h ****  */
 564:D:/Workspace/Development/my/DAVE/Infineon_CANopen/Libraries/XMCLib/inc\xmc4_scu.h **** typedef enum XMC_SCU_CLOCK_WDTCLKSRC
 565:D:/Workspace/Development/my/DAVE/Infineon_CANopen/Libraries/XMCLib/inc\xmc4_scu.h **** {
 566:D:/Workspace/Development/my/DAVE/Infineon_CANopen/Libraries/XMCLib/inc\xmc4_scu.h ****   XMC_SCU_CLOCK_WDTCLKSRC_OFI = (0UL << SCU_CLK_WDTCLKCR_WDTSEL_Pos),  /**< Internal Fast Clock
 567:D:/Workspace/Development/my/DAVE/Infineon_CANopen/Libraries/XMCLib/inc\xmc4_scu.h ****                                                                            (fOFI) as the source for
 568:D:/Workspace/Development/my/DAVE/Infineon_CANopen/Libraries/XMCLib/inc\xmc4_scu.h ****   XMC_SCU_CLOCK_WDTCLKSRC_STDBY = (1UL << SCU_CLK_WDTCLKCR_WDTSEL_Pos), /**< Standby clock
 569:D:/Workspace/Development/my/DAVE/Infineon_CANopen/Libraries/XMCLib/inc\xmc4_scu.h ****                                                                            (fSTDBY) as the source f
 570:D:/Workspace/Development/my/DAVE/Infineon_CANopen/Libraries/XMCLib/inc\xmc4_scu.h ****   XMC_SCU_CLOCK_WDTCLKSRC_PLL = (2UL << SCU_CLK_WDTCLKCR_WDTSEL_Pos)   /**< PLL output (fPLL) as th
 571:D:/Workspace/Development/my/DAVE/Infineon_CANopen/Libraries/XMCLib/inc\xmc4_scu.h ****                                                                            source for WDT clock (fW
 572:D:/Workspace/Development/my/DAVE/Infineon_CANopen/Libraries/XMCLib/inc\xmc4_scu.h **** } XMC_SCU_CLOCK_WDTCLKSRC_t;
 573:D:/Workspace/Development/my/DAVE/Infineon_CANopen/Libraries/XMCLib/inc\xmc4_scu.h **** 
 574:D:/Workspace/Development/my/DAVE/Infineon_CANopen/Libraries/XMCLib/inc\xmc4_scu.h **** /**
 575:D:/Workspace/Development/my/DAVE/Infineon_CANopen/Libraries/XMCLib/inc\xmc4_scu.h ****  *  Defines options for selecting the source of external clock out (fEXT). These enums are used to 
 576:D:/Workspace/Development/my/DAVE/Infineon_CANopen/Libraries/XMCLib/inc\xmc4_scu.h ****  *  register. User can choose either fSYS or fPLL or fUSBPLL clock as a source for external clock o
 577:D:/Workspace/Development/my/DAVE/Infineon_CANopen/Libraries/XMCLib/inc\xmc4_scu.h ****  *  Use type \a XMC_SCU_CLOCK_EXTOUTCLKSRC_t for accessing these enum parameters.
 578:D:/Workspace/Development/my/DAVE/Infineon_CANopen/Libraries/XMCLib/inc\xmc4_scu.h ****  */
 579:D:/Workspace/Development/my/DAVE/Infineon_CANopen/Libraries/XMCLib/inc\xmc4_scu.h **** typedef enum XMC_SCU_CLOCK_EXTOUTCLKSRC
 580:D:/Workspace/Development/my/DAVE/Infineon_CANopen/Libraries/XMCLib/inc\xmc4_scu.h **** {
 581:D:/Workspace/Development/my/DAVE/Infineon_CANopen/Libraries/XMCLib/inc\xmc4_scu.h ****   XMC_SCU_CLOCK_EXTOUTCLKSRC_SYS = (0UL << SCU_CLK_EXTCLKCR_ECKSEL_Pos),  /**< System clock (fSYS) 
 582:D:/Workspace/Development/my/DAVE/Infineon_CANopen/Libraries/XMCLib/inc\xmc4_scu.h ****                                                                             the source for external
 583:D:/Workspace/Development/my/DAVE/Infineon_CANopen/Libraries/XMCLib/inc\xmc4_scu.h ****   XMC_SCU_CLOCK_EXTOUTCLKSRC_USB = (2UL << SCU_CLK_EXTCLKCR_ECKSEL_Pos), /**< USB PLL output(fUSB P
 584:D:/Workspace/Development/my/DAVE/Infineon_CANopen/Libraries/XMCLib/inc\xmc4_scu.h ****                                                                            source for external cloc
 585:D:/Workspace/Development/my/DAVE/Infineon_CANopen/Libraries/XMCLib/inc\xmc4_scu.h ****   XMC_SCU_CLOCK_EXTOUTCLKSRC_PLL = (3UL << SCU_CLK_EXTCLKCR_ECKSEL_Pos), /**< Main PLL output(fPLL)
 586:D:/Workspace/Development/my/DAVE/Infineon_CANopen/Libraries/XMCLib/inc\xmc4_scu.h ****                                                                            source for external cloc
 587:D:/Workspace/Development/my/DAVE/Infineon_CANopen/Libraries/XMCLib/inc\xmc4_scu.h **** #if ((UC_SERIES == XMC42) || (UC_SERIES == XMC41))
 588:D:/Workspace/Development/my/DAVE/Infineon_CANopen/Libraries/XMCLib/inc\xmc4_scu.h ****   XMC_SCU_CLOCK_EXTOUTCLKSRC_STDBY = (4UL << SCU_CLK_EXTCLKCR_ECKSEL_Pos), /**< Standby clock(fSTDB
 589:D:/Workspace/Development/my/DAVE/Infineon_CANopen/Libraries/XMCLib/inc\xmc4_scu.h ****                                                                            source for external cloc
 590:D:/Workspace/Development/my/DAVE/Infineon_CANopen/Libraries/XMCLib/inc\xmc4_scu.h **** #endif
 591:D:/Workspace/Development/my/DAVE/Infineon_CANopen/Libraries/XMCLib/inc\xmc4_scu.h **** } XMC_SCU_CLOCK_EXTOUTCLKSRC_t;
 592:D:/Workspace/Development/my/DAVE/Infineon_CANopen/Libraries/XMCLib/inc\xmc4_scu.h **** 
 593:D:/Workspace/Development/my/DAVE/Infineon_CANopen/Libraries/XMCLib/inc\xmc4_scu.h **** /**
 594:D:/Workspace/Development/my/DAVE/Infineon_CANopen/Libraries/XMCLib/inc\xmc4_scu.h ****  *  Defines options for selecting the source of RTC Clock (fRTC). These enums are used to configure
 595:D:/Workspace/Development/my/DAVE/Infineon_CANopen/Libraries/XMCLib/inc\xmc4_scu.h ****  *  User can choose either fOSI or fULP clock as a source for RTC Clock (fRTC).
 596:D:/Workspace/Development/my/DAVE/Infineon_CANopen/Libraries/XMCLib/inc\xmc4_scu.h ****  *  Use type \a XMC_SCU_HIB_RTCCLKSRC_t for accessing these enum parameters.
 597:D:/Workspace/Development/my/DAVE/Infineon_CANopen/Libraries/XMCLib/inc\xmc4_scu.h ****  */
 598:D:/Workspace/Development/my/DAVE/Infineon_CANopen/Libraries/XMCLib/inc\xmc4_scu.h **** typedef enum XMC_SCU_HIB_RTCCLKSRC
 599:D:/Workspace/Development/my/DAVE/Infineon_CANopen/Libraries/XMCLib/inc\xmc4_scu.h **** {
 600:D:/Workspace/Development/my/DAVE/Infineon_CANopen/Libraries/XMCLib/inc\xmc4_scu.h ****   XMC_SCU_HIB_RTCCLKSRC_OSI = (0UL << SCU_HIBERNATE_HDCR_RCS_Pos), /**< Internal Slow Clock
 601:D:/Workspace/Development/my/DAVE/Infineon_CANopen/Libraries/XMCLib/inc\xmc4_scu.h ****                                                                          (fOSI) as the source for R
 602:D:/Workspace/Development/my/DAVE/Infineon_CANopen/Libraries/XMCLib/inc\xmc4_scu.h ****   XMC_SCU_HIB_RTCCLKSRC_ULP = (1UL << SCU_HIBERNATE_HDCR_RCS_Pos) /**< Ultra Low Power Clock (fULP)
 603:D:/Workspace/Development/my/DAVE/Infineon_CANopen/Libraries/XMCLib/inc\xmc4_scu.h ****                                                                         as the source for RTC Clock
 604:D:/Workspace/Development/my/DAVE/Infineon_CANopen/Libraries/XMCLib/inc\xmc4_scu.h **** } XMC_SCU_HIB_RTCCLKSRC_t;
 605:D:/Workspace/Development/my/DAVE/Infineon_CANopen/Libraries/XMCLib/inc\xmc4_scu.h **** 
 606:D:/Workspace/Development/my/DAVE/Infineon_CANopen/Libraries/XMCLib/inc\xmc4_scu.h **** /**
 607:D:/Workspace/Development/my/DAVE/Infineon_CANopen/Libraries/XMCLib/inc\xmc4_scu.h ****  *  Defines options for selecting the source of Standby Clock (fSTDBY). These enums are used to con
 608:D:/Workspace/Development/my/DAVE/Infineon_CANopen/Libraries/XMCLib/inc\xmc4_scu.h ****  *  register. User can choose either fOSI or fULP clock as a source for Standby Clock (fSTDBY).
 609:D:/Workspace/Development/my/DAVE/Infineon_CANopen/Libraries/XMCLib/inc\xmc4_scu.h ****  *  Use type \a XMC_SCU_HIB_STDBYCLKSRC_t for accessing these enum parameters.
 610:D:/Workspace/Development/my/DAVE/Infineon_CANopen/Libraries/XMCLib/inc\xmc4_scu.h ****  */
 611:D:/Workspace/Development/my/DAVE/Infineon_CANopen/Libraries/XMCLib/inc\xmc4_scu.h **** typedef enum XMC_SCU_HIB_STDBYCLKSRC
 612:D:/Workspace/Development/my/DAVE/Infineon_CANopen/Libraries/XMCLib/inc\xmc4_scu.h **** {
 613:D:/Workspace/Development/my/DAVE/Infineon_CANopen/Libraries/XMCLib/inc\xmc4_scu.h ****   XMC_SCU_HIB_STDBYCLKSRC_OSI = (0UL << SCU_HIBERNATE_HDCR_STDBYSEL_Pos), /**< Internal Slow Clock
 614:D:/Workspace/Development/my/DAVE/Infineon_CANopen/Libraries/XMCLib/inc\xmc4_scu.h ****                                                                           (fOSI) as the source for 
 615:D:/Workspace/Development/my/DAVE/Infineon_CANopen/Libraries/XMCLib/inc\xmc4_scu.h ****                                                                           (fSTDBY). */
 616:D:/Workspace/Development/my/DAVE/Infineon_CANopen/Libraries/XMCLib/inc\xmc4_scu.h ****   XMC_SCU_HIB_STDBYCLKSRC_OSCULP = (1UL << SCU_HIBERNATE_HDCR_STDBYSEL_Pos) /**< Ultra Low Power Cl
 617:D:/Workspace/Development/my/DAVE/Infineon_CANopen/Libraries/XMCLib/inc\xmc4_scu.h ****                                                                           (fULP) as the source for 
 618:D:/Workspace/Development/my/DAVE/Infineon_CANopen/Libraries/XMCLib/inc\xmc4_scu.h ****                                                                           (fSTDBY). */
 619:D:/Workspace/Development/my/DAVE/Infineon_CANopen/Libraries/XMCLib/inc\xmc4_scu.h **** } XMC_SCU_HIB_STDBYCLKSRC_t;
 620:D:/Workspace/Development/my/DAVE/Infineon_CANopen/Libraries/XMCLib/inc\xmc4_scu.h **** 
 621:D:/Workspace/Development/my/DAVE/Infineon_CANopen/Libraries/XMCLib/inc\xmc4_scu.h **** /**
 622:D:/Workspace/Development/my/DAVE/Infineon_CANopen/Libraries/XMCLib/inc\xmc4_scu.h ****  *  Defines options for backup clock trimming. These enums are used to configure \a AOTREN  \a FOTR
 623:D:/Workspace/Development/my/DAVE/Infineon_CANopen/Libraries/XMCLib/inc\xmc4_scu.h ****  *  PLLCON0 register. Use type \a XMC_SCU_CLOCK_BACKUP_TRIM_t for accessing these enum parameters.
 624:D:/Workspace/Development/my/DAVE/Infineon_CANopen/Libraries/XMCLib/inc\xmc4_scu.h ****  */
 625:D:/Workspace/Development/my/DAVE/Infineon_CANopen/Libraries/XMCLib/inc\xmc4_scu.h **** typedef enum XMC_SCU_CLOCK_FOFI_CALIBRATION_MODE
 626:D:/Workspace/Development/my/DAVE/Infineon_CANopen/Libraries/XMCLib/inc\xmc4_scu.h **** {
 627:D:/Workspace/Development/my/DAVE/Infineon_CANopen/Libraries/XMCLib/inc\xmc4_scu.h ****   XMC_SCU_CLOCK_FOFI_CALIBRATION_MODE_FACTORY   = 0UL,  /**< Factory Oscillator Calibration:
 628:D:/Workspace/Development/my/DAVE/Infineon_CANopen/Libraries/XMCLib/inc\xmc4_scu.h ****                                                         Force adjustment of the internal oscillator
 629:D:/Workspace/Development/my/DAVE/Infineon_CANopen/Libraries/XMCLib/inc\xmc4_scu.h ****   XMC_SCU_CLOCK_FOFI_CALIBRATION_MODE_AUTOMATIC = 1UL   /**<  Automatic Oscillator Calibration adju
 630:D:/Workspace/Development/my/DAVE/Infineon_CANopen/Libraries/XMCLib/inc\xmc4_scu.h **** } XMC_SCU_CLOCK_FOFI_CALIBRATION_MODE_t;
 631:D:/Workspace/Development/my/DAVE/Infineon_CANopen/Libraries/XMCLib/inc\xmc4_scu.h **** 
 632:D:/Workspace/Development/my/DAVE/Infineon_CANopen/Libraries/XMCLib/inc\xmc4_scu.h **** 
 633:D:/Workspace/Development/my/DAVE/Infineon_CANopen/Libraries/XMCLib/inc\xmc4_scu.h **** /**
 634:D:/Workspace/Development/my/DAVE/Infineon_CANopen/Libraries/XMCLib/inc\xmc4_scu.h ****  *  Defines options for selecting device boot mode. These enums are used to configure \a SWCON bits
 635:D:/Workspace/Development/my/DAVE/Infineon_CANopen/Libraries/XMCLib/inc\xmc4_scu.h ****  *  User can choose among various boot modes by configuring SWCON bits.
 636:D:/Workspace/Development/my/DAVE/Infineon_CANopen/Libraries/XMCLib/inc\xmc4_scu.h ****  *  Use type \a XMC_SCU_BOOTMODE_t for accessing these enum parameters.
 637:D:/Workspace/Development/my/DAVE/Infineon_CANopen/Libraries/XMCLib/inc\xmc4_scu.h ****  */
 638:D:/Workspace/Development/my/DAVE/Infineon_CANopen/Libraries/XMCLib/inc\xmc4_scu.h **** typedef enum XMC_SCU_BOOTMODE
 639:D:/Workspace/Development/my/DAVE/Infineon_CANopen/Libraries/XMCLib/inc\xmc4_scu.h **** {
 640:D:/Workspace/Development/my/DAVE/Infineon_CANopen/Libraries/XMCLib/inc\xmc4_scu.h ****   XMC_SCU_BOOTMODE_NORMAL     = (0UL << SCU_GENERAL_STCON_SWCON_Pos), /**< Boot from start of flash
 641:D:/Workspace/Development/my/DAVE/Infineon_CANopen/Libraries/XMCLib/inc\xmc4_scu.h ****   XMC_SCU_BOOTMODE_ASC_BSL    = (1UL << SCU_GENERAL_STCON_SWCON_Pos), /**< UART bootstrap. */
 642:D:/Workspace/Development/my/DAVE/Infineon_CANopen/Libraries/XMCLib/inc\xmc4_scu.h ****   XMC_SCU_BOOTMODE_BMI        = (2UL << SCU_GENERAL_STCON_SWCON_Pos), /**< Boot Mode Index - Custom
 643:D:/Workspace/Development/my/DAVE/Infineon_CANopen/Libraries/XMCLib/inc\xmc4_scu.h ****                                                                            sequence. */
 644:D:/Workspace/Development/my/DAVE/Infineon_CANopen/Libraries/XMCLib/inc\xmc4_scu.h ****   XMC_SCU_BOOTMODE_CAN_BSL    = (3UL << SCU_GENERAL_STCON_SWCON_Pos), /**< CAN bootstrap. */
 645:D:/Workspace/Development/my/DAVE/Infineon_CANopen/Libraries/XMCLib/inc\xmc4_scu.h ****   XMC_SCU_BOOTMODE_PSRAM_BOOT = (4UL << SCU_GENERAL_STCON_SWCON_Pos), /**< Boot from PSRAM. */
 646:D:/Workspace/Development/my/DAVE/Infineon_CANopen/Libraries/XMCLib/inc\xmc4_scu.h ****   XMC_SCU_BOOTMODE_ABM0       = (8UL << SCU_GENERAL_STCON_SWCON_Pos), /**< Boot from flash - fixed 
 647:D:/Workspace/Development/my/DAVE/Infineon_CANopen/Libraries/XMCLib/inc\xmc4_scu.h ****                                                                            address 0. */
 648:D:/Workspace/Development/my/DAVE/Infineon_CANopen/Libraries/XMCLib/inc\xmc4_scu.h ****   XMC_SCU_BOOTMODE_ABM1       = (12UL << SCU_GENERAL_STCON_SWCON_Pos), /**< Boot from flash - fixed
 649:D:/Workspace/Development/my/DAVE/Infineon_CANopen/Libraries/XMCLib/inc\xmc4_scu.h ****                                                                             address 1. */
 650:D:/Workspace/Development/my/DAVE/Infineon_CANopen/Libraries/XMCLib/inc\xmc4_scu.h ****   XMC_SCU_BOOTMODE_FABM       = (14UL << SCU_GENERAL_STCON_SWCON_Pos), /**< fallback Alternate Boot
 651:D:/Workspace/Development/my/DAVE/Infineon_CANopen/Libraries/XMCLib/inc\xmc4_scu.h ****                                                                             Try ABM-0 then try ABM-
 652:D:/Workspace/Development/my/DAVE/Infineon_CANopen/Libraries/XMCLib/inc\xmc4_scu.h **** } XMC_SCU_BOOTMODE_t;
 653:D:/Workspace/Development/my/DAVE/Infineon_CANopen/Libraries/XMCLib/inc\xmc4_scu.h **** 
 654:D:/Workspace/Development/my/DAVE/Infineon_CANopen/Libraries/XMCLib/inc\xmc4_scu.h **** 
 655:D:/Workspace/Development/my/DAVE/Infineon_CANopen/Libraries/XMCLib/inc\xmc4_scu.h **** /**
 656:D:/Workspace/Development/my/DAVE/Infineon_CANopen/Libraries/XMCLib/inc\xmc4_scu.h ****  *  Defines various PLL modes of operation. These enums are used to configure \a VCOBYP bit of \a P
 657:D:/Workspace/Development/my/DAVE/Infineon_CANopen/Libraries/XMCLib/inc\xmc4_scu.h ****  *  User can choose either normal or prescalar mode by configuring VCOBYP bit.
 658:D:/Workspace/Development/my/DAVE/Infineon_CANopen/Libraries/XMCLib/inc\xmc4_scu.h ****  *  Use type \a XMC_SCU_PLL_MODE_t for accessing these enum parameters.
 659:D:/Workspace/Development/my/DAVE/Infineon_CANopen/Libraries/XMCLib/inc\xmc4_scu.h ****  */
 660:D:/Workspace/Development/my/DAVE/Infineon_CANopen/Libraries/XMCLib/inc\xmc4_scu.h **** typedef enum XMC_SCU_CLOCK_SYSPLL_MODE
 661:D:/Workspace/Development/my/DAVE/Infineon_CANopen/Libraries/XMCLib/inc\xmc4_scu.h **** {
 662:D:/Workspace/Development/my/DAVE/Infineon_CANopen/Libraries/XMCLib/inc\xmc4_scu.h ****   XMC_SCU_CLOCK_SYSPLL_MODE_DISABLED, /**< fPLL derived from fOSC and PLL operating in prescalar mo
 663:D:/Workspace/Development/my/DAVE/Infineon_CANopen/Libraries/XMCLib/inc\xmc4_scu.h ****   XMC_SCU_CLOCK_SYSPLL_MODE_NORMAL,  /**< fPLL derived from fVCO and PLL operating in normal mode. 
 664:D:/Workspace/Development/my/DAVE/Infineon_CANopen/Libraries/XMCLib/inc\xmc4_scu.h ****   XMC_SCU_CLOCK_SYSPLL_MODE_PRESCALAR /**< fPLL derived from fOSC and PLL operating in prescalar mo
 665:D:/Workspace/Development/my/DAVE/Infineon_CANopen/Libraries/XMCLib/inc\xmc4_scu.h **** } XMC_SCU_CLOCK_SYSPLL_MODE_t;
 666:D:/Workspace/Development/my/DAVE/Infineon_CANopen/Libraries/XMCLib/inc\xmc4_scu.h **** 
 667:D:/Workspace/Development/my/DAVE/Infineon_CANopen/Libraries/XMCLib/inc\xmc4_scu.h **** /**
 668:D:/Workspace/Development/my/DAVE/Infineon_CANopen/Libraries/XMCLib/inc\xmc4_scu.h ****  *  Defines the source of the system clock and peripherals clock gating in SLEEP state.
 669:D:/Workspace/Development/my/DAVE/Infineon_CANopen/Libraries/XMCLib/inc\xmc4_scu.h ****  *  Use this enum as parameter of XMC_SCU_CLOCK_SetSleepConfig before going to SLEEP state.
 670:D:/Workspace/Development/my/DAVE/Infineon_CANopen/Libraries/XMCLib/inc\xmc4_scu.h ****  *
 671:D:/Workspace/Development/my/DAVE/Infineon_CANopen/Libraries/XMCLib/inc\xmc4_scu.h ****  *  The SLEEP state of the system corresponds to the SLEEP state of the CPU. The state is
 672:D:/Workspace/Development/my/DAVE/Infineon_CANopen/Libraries/XMCLib/inc\xmc4_scu.h ****  *  entered via WFI or WFE instruction of the CPU. In this state the clock to the CPU is
 673:D:/Workspace/Development/my/DAVE/Infineon_CANopen/Libraries/XMCLib/inc\xmc4_scu.h ****  *  stopped. Peripherals are only clocked when configured to stay enabled.
 674:D:/Workspace/Development/my/DAVE/Infineon_CANopen/Libraries/XMCLib/inc\xmc4_scu.h ****  *
 675:D:/Workspace/Development/my/DAVE/Infineon_CANopen/Libraries/XMCLib/inc\xmc4_scu.h ****  *  Peripherals can continue to operate unaffected and eventually generate an event to
 676:D:/Workspace/Development/my/DAVE/Infineon_CANopen/Libraries/XMCLib/inc\xmc4_scu.h ****  *  wake-up the CPU. Any interrupt to the NVIC will bring the CPU back to operation. The
 677:D:/Workspace/Development/my/DAVE/Infineon_CANopen/Libraries/XMCLib/inc\xmc4_scu.h ****  *  clock tree upon exit from SLEEP state is restored to what it was before entry into SLEEP
 678:D:/Workspace/Development/my/DAVE/Infineon_CANopen/Libraries/XMCLib/inc\xmc4_scu.h ****  *  state.
 679:D:/Workspace/Development/my/DAVE/Infineon_CANopen/Libraries/XMCLib/inc\xmc4_scu.h ****  *
 680:D:/Workspace/Development/my/DAVE/Infineon_CANopen/Libraries/XMCLib/inc\xmc4_scu.h ****  */
 681:D:/Workspace/Development/my/DAVE/Infineon_CANopen/Libraries/XMCLib/inc\xmc4_scu.h **** typedef enum XMC_SCU_CLOCK_SLEEP_MODE_CONFIG
 682:D:/Workspace/Development/my/DAVE/Infineon_CANopen/Libraries/XMCLib/inc\xmc4_scu.h **** {
 683:D:/Workspace/Development/my/DAVE/Infineon_CANopen/Libraries/XMCLib/inc\xmc4_scu.h ****   XMC_SCU_CLOCK_SLEEP_MODE_CONFIG_SYSCLK_FOFI = 0,  /**< fOFI used as system clock source in SLEEP 
 684:D:/Workspace/Development/my/DAVE/Infineon_CANopen/Libraries/XMCLib/inc\xmc4_scu.h ****   XMC_SCU_CLOCK_SLEEP_MODE_CONFIG_SYSCLK_FPLL = SCU_CLK_SLEEPCR_SYSSEL_Msk,  /**< fPLL used as syst
 685:D:/Workspace/Development/my/DAVE/Infineon_CANopen/Libraries/XMCLib/inc\xmc4_scu.h **** #if defined(USB0)
 686:D:/Workspace/Development/my/DAVE/Infineon_CANopen/Libraries/XMCLib/inc\xmc4_scu.h ****   XMC_SCU_CLOCK_SLEEP_MODE_CONFIG_DISABLE_USB = 0,  /**< USB clock disabled in SLEEP state */
 687:D:/Workspace/Development/my/DAVE/Infineon_CANopen/Libraries/XMCLib/inc\xmc4_scu.h ****   XMC_SCU_CLOCK_SLEEP_MODE_CONFIG_ENABLE_USB = SCU_CLK_SLEEPCR_USBCR_Msk,  /**< USB clock enabled i
 688:D:/Workspace/Development/my/DAVE/Infineon_CANopen/Libraries/XMCLib/inc\xmc4_scu.h **** #endif
 689:D:/Workspace/Development/my/DAVE/Infineon_CANopen/Libraries/XMCLib/inc\xmc4_scu.h **** #if defined(SDMMC)
 690:D:/Workspace/Development/my/DAVE/Infineon_CANopen/Libraries/XMCLib/inc\xmc4_scu.h ****   XMC_SCU_CLOCK_SLEEP_MODE_CONFIG_DISABLE_SDMMC = 0,/**< SDMMC clock disabled in SLEEP state */
 691:D:/Workspace/Development/my/DAVE/Infineon_CANopen/Libraries/XMCLib/inc\xmc4_scu.h ****   XMC_SCU_CLOCK_SLEEP_MODE_CONFIG_ENABLE_SDMMC = SCU_CLK_SLEEPCR_MMCCR_Msk,/**< SDMMC clock enabled
 692:D:/Workspace/Development/my/DAVE/Infineon_CANopen/Libraries/XMCLib/inc\xmc4_scu.h **** #endif
 693:D:/Workspace/Development/my/DAVE/Infineon_CANopen/Libraries/XMCLib/inc\xmc4_scu.h **** #if defined(ETH0)
 694:D:/Workspace/Development/my/DAVE/Infineon_CANopen/Libraries/XMCLib/inc\xmc4_scu.h ****   XMC_SCU_CLOCK_SLEEP_MODE_CONFIG_DISABLE_ETH = 0,  /**< ETH clock disabled in SLEEP state */
 695:D:/Workspace/Development/my/DAVE/Infineon_CANopen/Libraries/XMCLib/inc\xmc4_scu.h ****   XMC_SCU_CLOCK_SLEEP_MODE_CONFIG_ENABLE_ETH = SCU_CLK_SLEEPCR_ETH0CR_Msk,  /**< ETH clock enabled 
 696:D:/Workspace/Development/my/DAVE/Infineon_CANopen/Libraries/XMCLib/inc\xmc4_scu.h **** #endif
 697:D:/Workspace/Development/my/DAVE/Infineon_CANopen/Libraries/XMCLib/inc\xmc4_scu.h **** #if defined(EBU)
 698:D:/Workspace/Development/my/DAVE/Infineon_CANopen/Libraries/XMCLib/inc\xmc4_scu.h ****   XMC_SCU_CLOCK_SLEEP_MODE_CONFIG_DISABLE_EBU = 0,  /**< EBU clock disabled in SLEEP state */
 699:D:/Workspace/Development/my/DAVE/Infineon_CANopen/Libraries/XMCLib/inc\xmc4_scu.h ****   XMC_SCU_CLOCK_SLEEP_MODE_CONFIG_ENABLE_EBU = SCU_CLK_SLEEPCR_EBUCR_Msk,  /**< EBU clock enabled i
 700:D:/Workspace/Development/my/DAVE/Infineon_CANopen/Libraries/XMCLib/inc\xmc4_scu.h **** #endif
 701:D:/Workspace/Development/my/DAVE/Infineon_CANopen/Libraries/XMCLib/inc\xmc4_scu.h ****   XMC_SCU_CLOCK_SLEEP_MODE_CONFIG_DISABLED_CCU = 0,  /**< CCU clock disabled in SLEEP state */
 702:D:/Workspace/Development/my/DAVE/Infineon_CANopen/Libraries/XMCLib/inc\xmc4_scu.h ****   XMC_SCU_CLOCK_SLEEP_MODE_CONFIG_ENABLE_CCU = SCU_CLK_SLEEPCR_CCUCR_Msk,  /**< CCU clock enabled i
 703:D:/Workspace/Development/my/DAVE/Infineon_CANopen/Libraries/XMCLib/inc\xmc4_scu.h ****   XMC_SCU_CLOCK_SLEEP_MODE_CONFIG_DISABLED_WDT = 0,  /**< WDT clock disabled in SLEEP state */
 704:D:/Workspace/Development/my/DAVE/Infineon_CANopen/Libraries/XMCLib/inc\xmc4_scu.h ****   XMC_SCU_CLOCK_SLEEP_MODE_CONFIG_ENABLE_WDT = SCU_CLK_SLEEPCR_WDTCR_Msk,  /**< WDT clock enabled i
 705:D:/Workspace/Development/my/DAVE/Infineon_CANopen/Libraries/XMCLib/inc\xmc4_scu.h **** } XMC_SCU_CLOCK_SLEEP_MODE_CONFIG_t;
 706:D:/Workspace/Development/my/DAVE/Infineon_CANopen/Libraries/XMCLib/inc\xmc4_scu.h **** 
 707:D:/Workspace/Development/my/DAVE/Infineon_CANopen/Libraries/XMCLib/inc\xmc4_scu.h **** /**
 708:D:/Workspace/Development/my/DAVE/Infineon_CANopen/Libraries/XMCLib/inc\xmc4_scu.h ****  *  Defines the source of the system clock and peripherals clock gating in DEEPSLEEP state.
 709:D:/Workspace/Development/my/DAVE/Infineon_CANopen/Libraries/XMCLib/inc\xmc4_scu.h ****  *  In addition the state of FLASH, PLL and PLLVCO during DEEPSLEEP state.
 710:D:/Workspace/Development/my/DAVE/Infineon_CANopen/Libraries/XMCLib/inc\xmc4_scu.h ****  *  Use this enum as parameter of XMC_SCU_CLOCK_SetDeepSleepConfig before going to DEEPSLEEP state.
 711:D:/Workspace/Development/my/DAVE/Infineon_CANopen/Libraries/XMCLib/inc\xmc4_scu.h ****  *
 712:D:/Workspace/Development/my/DAVE/Infineon_CANopen/Libraries/XMCLib/inc\xmc4_scu.h ****  *  The DEEPSLEEP state of the system corresponds to the DEEPSLEEP state of the CPU. The state is
 713:D:/Workspace/Development/my/DAVE/Infineon_CANopen/Libraries/XMCLib/inc\xmc4_scu.h ****  *  entered via WFI or WFE instruction of the CPU. In this state the clock to the CPU is
 714:D:/Workspace/Development/my/DAVE/Infineon_CANopen/Libraries/XMCLib/inc\xmc4_scu.h ****  *  stopped.
 715:D:/Workspace/Development/my/DAVE/Infineon_CANopen/Libraries/XMCLib/inc\xmc4_scu.h ****  *
 716:D:/Workspace/Development/my/DAVE/Infineon_CANopen/Libraries/XMCLib/inc\xmc4_scu.h ****  *  In Deep Sleep state the OSC_HP and the PLL may be switched off. The wake-up logic in the NVIC i
 717:D:/Workspace/Development/my/DAVE/Infineon_CANopen/Libraries/XMCLib/inc\xmc4_scu.h ****  *  by a free-running clock. Peripherals are only clocked when configured to stay enabled.
 718:D:/Workspace/Development/my/DAVE/Infineon_CANopen/Libraries/XMCLib/inc\xmc4_scu.h ****  *  Configuration of peripherals and any SRAM content is preserved.
 719:D:/Workspace/Development/my/DAVE/Infineon_CANopen/Libraries/XMCLib/inc\xmc4_scu.h ****  *  The Flash module can be put into low-power mode to achieve a further power reduction.
 720:D:/Workspace/Development/my/DAVE/Infineon_CANopen/Libraries/XMCLib/inc\xmc4_scu.h ****  *  On wake-up Flash module will be restarted again before instructions or data access is possible.
 721:D:/Workspace/Development/my/DAVE/Infineon_CANopen/Libraries/XMCLib/inc\xmc4_scu.h ****  *  Any interrupt will bring the system back to operation via the NVIC.The clock setup before
 722:D:/Workspace/Development/my/DAVE/Infineon_CANopen/Libraries/XMCLib/inc\xmc4_scu.h ****  *  entering Deep Sleep state is restored upon wake-up.
 723:D:/Workspace/Development/my/DAVE/Infineon_CANopen/Libraries/XMCLib/inc\xmc4_scu.h ****  */
 724:D:/Workspace/Development/my/DAVE/Infineon_CANopen/Libraries/XMCLib/inc\xmc4_scu.h **** typedef enum XMC_SCU_CLOCK_DEEPSLEEP_MODE_CONFIG
 725:D:/Workspace/Development/my/DAVE/Infineon_CANopen/Libraries/XMCLib/inc\xmc4_scu.h **** {
 726:D:/Workspace/Development/my/DAVE/Infineon_CANopen/Libraries/XMCLib/inc\xmc4_scu.h ****   XMC_SCU_CLOCK_DEEPSLEEP_MODE_CONFIG_SYSCLK_FOFI = 0,  /**< fOFI used as system clock source in DE
 727:D:/Workspace/Development/my/DAVE/Infineon_CANopen/Libraries/XMCLib/inc\xmc4_scu.h ****   XMC_SCU_CLOCK_DEEPSLEEP_MODE_CONFIG_SYSCLK_FPLL = SCU_CLK_DSLEEPCR_SYSSEL_Msk,  /**< fPLL used as
 728:D:/Workspace/Development/my/DAVE/Infineon_CANopen/Libraries/XMCLib/inc\xmc4_scu.h ****   XMC_SCU_CLOCK_DEEPSLEEP_MODE_CONFIG_FLASH_POWERDOWN = SCU_CLK_DSLEEPCR_FPDN_Msk,/**< Flash power 
 729:D:/Workspace/Development/my/DAVE/Infineon_CANopen/Libraries/XMCLib/inc\xmc4_scu.h ****   XMC_SCU_CLOCK_DEEPSLEEP_MODE_CONFIG_PLL_POWERDOWN = SCU_CLK_DSLEEPCR_PLLPDN_Msk,  /**<  Switch of
 730:D:/Workspace/Development/my/DAVE/Infineon_CANopen/Libraries/XMCLib/inc\xmc4_scu.h ****   XMC_SCU_CLOCK_DEEPSLEEP_MODE_CONFIG_VCO_POWERDOWN = SCU_CLK_DSLEEPCR_VCOPDN_Msk,  /**<  Switch of
 731:D:/Workspace/Development/my/DAVE/Infineon_CANopen/Libraries/XMCLib/inc\xmc4_scu.h **** #if defined(USB0)
 732:D:/Workspace/Development/my/DAVE/Infineon_CANopen/Libraries/XMCLib/inc\xmc4_scu.h ****   XMC_SCU_CLOCK_DEEPSLEEP_MODE_CONFIG_DISABLE_USB = 0,  /**< USB clock disabled in DEEPSLEEP state 
 733:D:/Workspace/Development/my/DAVE/Infineon_CANopen/Libraries/XMCLib/inc\xmc4_scu.h ****   XMC_SCU_CLOCK_DEEPSLEEP_MODE_CONFIG_ENABLE_USB = SCU_CLK_DSLEEPCR_USBCR_Msk,  /**< USB clock enab
 734:D:/Workspace/Development/my/DAVE/Infineon_CANopen/Libraries/XMCLib/inc\xmc4_scu.h **** #endif
 735:D:/Workspace/Development/my/DAVE/Infineon_CANopen/Libraries/XMCLib/inc\xmc4_scu.h **** #if defined(SDMMC)
 736:D:/Workspace/Development/my/DAVE/Infineon_CANopen/Libraries/XMCLib/inc\xmc4_scu.h ****   XMC_SCU_CLOCK_DEEPSLEEP_MODE_CONFIG_DISABLE_SDMMC = 0,/**< SDMMC clock disabled in DEEPSLEEP stat
 737:D:/Workspace/Development/my/DAVE/Infineon_CANopen/Libraries/XMCLib/inc\xmc4_scu.h ****   XMC_SCU_CLOCK_DEEPSLEEP_MODE_CONFIG_ENABLE_SDMMC = SCU_CLK_DSLEEPCR_MMCCR_Msk,/**< SDMMC clock en
 738:D:/Workspace/Development/my/DAVE/Infineon_CANopen/Libraries/XMCLib/inc\xmc4_scu.h **** #endif
 739:D:/Workspace/Development/my/DAVE/Infineon_CANopen/Libraries/XMCLib/inc\xmc4_scu.h **** #if defined(ETH0)
 740:D:/Workspace/Development/my/DAVE/Infineon_CANopen/Libraries/XMCLib/inc\xmc4_scu.h ****   XMC_SCU_CLOCK_DEEPSLEEP_MODE_CONFIG_DISABLE_ETH = 0,  /**< ETH clock disabled in DEEPSLEEP state 
 741:D:/Workspace/Development/my/DAVE/Infineon_CANopen/Libraries/XMCLib/inc\xmc4_scu.h ****   XMC_SCU_CLOCK_DEEPSLEEP_MODE_CONFIG_ENABLE_ETH = SCU_CLK_DSLEEPCR_ETH0CR_Msk,  /**< ETH clock ena
 742:D:/Workspace/Development/my/DAVE/Infineon_CANopen/Libraries/XMCLib/inc\xmc4_scu.h **** #endif
 743:D:/Workspace/Development/my/DAVE/Infineon_CANopen/Libraries/XMCLib/inc\xmc4_scu.h **** #if defined(EBU)
 744:D:/Workspace/Development/my/DAVE/Infineon_CANopen/Libraries/XMCLib/inc\xmc4_scu.h ****   XMC_SCU_CLOCK_DEEPSLEEP_MODE_CONFIG_DISABLE_EBU = 0,  /**< EBU clock disabled in DEEPSLEEP state 
 745:D:/Workspace/Development/my/DAVE/Infineon_CANopen/Libraries/XMCLib/inc\xmc4_scu.h ****   XMC_SCU_CLOCK_DEEPSLEEP_MODE_CONFIG_ENABLE_EBU = SCU_CLK_DSLEEPCR_EBUCR_Msk,  /**< EBU clock enab
 746:D:/Workspace/Development/my/DAVE/Infineon_CANopen/Libraries/XMCLib/inc\xmc4_scu.h **** #endif
 747:D:/Workspace/Development/my/DAVE/Infineon_CANopen/Libraries/XMCLib/inc\xmc4_scu.h ****   XMC_SCU_CLOCK_DEEPSLEEP_MODE_CONFIG_DISABLE_CCU = 0,  /**< CCU clock disabled in DEEPSLEEP state 
 748:D:/Workspace/Development/my/DAVE/Infineon_CANopen/Libraries/XMCLib/inc\xmc4_scu.h ****   XMC_SCU_CLOCK_DEEPSLEEP_MODE_CONFIG_ENABLE_CCU = SCU_CLK_DSLEEPCR_CCUCR_Msk,  /**< CCU clock enab
 749:D:/Workspace/Development/my/DAVE/Infineon_CANopen/Libraries/XMCLib/inc\xmc4_scu.h ****   XMC_SCU_CLOCK_DEEPSLEEP_MODE_CONFIG_DISABLE_WDT = 0,  /**< WDT clock disabled in DEEPSLEEP state 
 750:D:/Workspace/Development/my/DAVE/Infineon_CANopen/Libraries/XMCLib/inc\xmc4_scu.h ****   XMC_SCU_CLOCK_DEEPSLEEP_MODE_CONFIG_ENABLE_WDT = SCU_CLK_DSLEEPCR_WDTCR_Msk,  /**< WDT clock enab
 751:D:/Workspace/Development/my/DAVE/Infineon_CANopen/Libraries/XMCLib/inc\xmc4_scu.h **** } XMC_SCU_CLOCK_DEEPSLEEP_MODE_CONFIG_t;
 752:D:/Workspace/Development/my/DAVE/Infineon_CANopen/Libraries/XMCLib/inc\xmc4_scu.h **** 
 753:D:/Workspace/Development/my/DAVE/Infineon_CANopen/Libraries/XMCLib/inc\xmc4_scu.h **** /**
 754:D:/Workspace/Development/my/DAVE/Infineon_CANopen/Libraries/XMCLib/inc\xmc4_scu.h ****  * Defines status of EVR13 regulator
 755:D:/Workspace/Development/my/DAVE/Infineon_CANopen/Libraries/XMCLib/inc\xmc4_scu.h ****  */
 756:D:/Workspace/Development/my/DAVE/Infineon_CANopen/Libraries/XMCLib/inc\xmc4_scu.h **** typedef enum XMC_SCU_POWER_EVR_STATUS
 757:D:/Workspace/Development/my/DAVE/Infineon_CANopen/Libraries/XMCLib/inc\xmc4_scu.h **** {
 758:D:/Workspace/Development/my/DAVE/Infineon_CANopen/Libraries/XMCLib/inc\xmc4_scu.h ****   XMC_SCU_POWER_EVR_STATUS_OK = 0, /**< EVR13 regulator No overvoltage condition */
 759:D:/Workspace/Development/my/DAVE/Infineon_CANopen/Libraries/XMCLib/inc\xmc4_scu.h ****   XMC_SCU_POWER_EVR_STATUS_EVR13_OVERVOLTAGE = SCU_POWER_EVRSTAT_OV13_Msk /**< EVR13 regulator is i
 760:D:/Workspace/Development/my/DAVE/Infineon_CANopen/Libraries/XMCLib/inc\xmc4_scu.h **** } XMC_SCU_POWER_EVR_STATUS_t;
 761:D:/Workspace/Development/my/DAVE/Infineon_CANopen/Libraries/XMCLib/inc\xmc4_scu.h **** 
 762:D:/Workspace/Development/my/DAVE/Infineon_CANopen/Libraries/XMCLib/inc\xmc4_scu.h **** /**
 763:D:/Workspace/Development/my/DAVE/Infineon_CANopen/Libraries/XMCLib/inc\xmc4_scu.h ****  * Define status of external hibernate control
 764:D:/Workspace/Development/my/DAVE/Infineon_CANopen/Libraries/XMCLib/inc\xmc4_scu.h ****  */
 765:D:/Workspace/Development/my/DAVE/Infineon_CANopen/Libraries/XMCLib/inc\xmc4_scu.h **** typedef enum XMC_SCU_HIB_CTRL_STATUS
 766:D:/Workspace/Development/my/DAVE/Infineon_CANopen/Libraries/XMCLib/inc\xmc4_scu.h **** {
 767:D:/Workspace/Development/my/DAVE/Infineon_CANopen/Libraries/XMCLib/inc\xmc4_scu.h ****   XMC_SCU_HIB_CTRL_STATUS_NO_ACTIVE = 0, /**< Hibernate not driven active to pads */
 768:D:/Workspace/Development/my/DAVE/Infineon_CANopen/Libraries/XMCLib/inc\xmc4_scu.h ****   XMC_SCU_HIB_CTRL_STATUS_ACTIVE = SCU_HIBERNATE_HDSTAT_HIBNOUT_Msk, /**< Hibernate driven active t
 769:D:/Workspace/Development/my/DAVE/Infineon_CANopen/Libraries/XMCLib/inc\xmc4_scu.h **** } XMC_SCU_HIB_CTRL_STATUS_t;
 770:D:/Workspace/Development/my/DAVE/Infineon_CANopen/Libraries/XMCLib/inc\xmc4_scu.h **** 
 771:D:/Workspace/Development/my/DAVE/Infineon_CANopen/Libraries/XMCLib/inc\xmc4_scu.h **** /**
 772:D:/Workspace/Development/my/DAVE/Infineon_CANopen/Libraries/XMCLib/inc\xmc4_scu.h ****  *  Hibernate domain event status
 773:D:/Workspace/Development/my/DAVE/Infineon_CANopen/Libraries/XMCLib/inc\xmc4_scu.h ****  */
 774:D:/Workspace/Development/my/DAVE/Infineon_CANopen/Libraries/XMCLib/inc\xmc4_scu.h **** typedef enum XMC_SCU_HIB_EVENT
 775:D:/Workspace/Development/my/DAVE/Infineon_CANopen/Libraries/XMCLib/inc\xmc4_scu.h **** {
 776:D:/Workspace/Development/my/DAVE/Infineon_CANopen/Libraries/XMCLib/inc\xmc4_scu.h ****   XMC_SCU_HIB_EVENT_WAKEUP_ON_POS_EDGE = SCU_HIBERNATE_HDCR_WKPEP_Msk, /**< Wake-up on positive edg
 777:D:/Workspace/Development/my/DAVE/Infineon_CANopen/Libraries/XMCLib/inc\xmc4_scu.h ****   XMC_SCU_HIB_EVENT_WAKEUP_ON_NEG_EDGE = SCU_HIBERNATE_HDCR_WKPEN_Msk, /**< Wake-up on negative edg
 778:D:/Workspace/Development/my/DAVE/Infineon_CANopen/Libraries/XMCLib/inc\xmc4_scu.h ****   XMC_SCU_HIB_EVENT_WAKEUP_ON_RTC = SCU_HIBERNATE_HDCR_RTCE_Msk, /**< Wake-up on RTC event */
 779:D:/Workspace/Development/my/DAVE/Infineon_CANopen/Libraries/XMCLib/inc\xmc4_scu.h ****   XMC_SCU_HIB_EVENT_ULPWDG = SCU_HIBERNATE_HDCR_ULPWDGEN_Msk, /**< ULP watchdog alarm status */
 780:D:/Workspace/Development/my/DAVE/Infineon_CANopen/Libraries/XMCLib/inc\xmc4_scu.h **** #if (defined(DOXYGEN) || (UC_SERIES == XMC44) || (UC_SERIES == XMC42) || (UC_SERIES == XMC41))
 781:D:/Workspace/Development/my/DAVE/Infineon_CANopen/Libraries/XMCLib/inc\xmc4_scu.h ****   XMC_SCU_HIB_EVENT_LPAC_VBAT_POSEDGE = SCU_HIBERNATE_HDSTAT_VBATPEV_Msk, /**< Wake-up on LPAC posi
 782:D:/Workspace/Development/my/DAVE/Infineon_CANopen/Libraries/XMCLib/inc\xmc4_scu.h ****   XMC_SCU_HIB_EVENT_LPAC_VBAT_NEGEDGE = SCU_HIBERNATE_HDSTAT_VBATNEV_Msk, /**< Wake-up on LPAC nega
 783:D:/Workspace/Development/my/DAVE/Infineon_CANopen/Libraries/XMCLib/inc\xmc4_scu.h ****   XMC_SCU_HIB_EVENT_LPAC_HIB_IO_0_POSEDGE = SCU_HIBERNATE_HDSTAT_AHIBIO0PEV_Msk, /**< Wake-up on LP
 784:D:/Workspace/Development/my/DAVE/Infineon_CANopen/Libraries/XMCLib/inc\xmc4_scu.h ****   XMC_SCU_HIB_EVENT_LPAC_HIB_IO_0_NEGEDGE = SCU_HIBERNATE_HDSTAT_AHIBIO0NEV_Msk, /**< Wake-up on LP
 785:D:/Workspace/Development/my/DAVE/Infineon_CANopen/Libraries/XMCLib/inc\xmc4_scu.h **** #if (defined(DOXYGEN) || ((UC_SERIES == XMC44) && (UC_PACKAGE == LQFP100)))
 786:D:/Workspace/Development/my/DAVE/Infineon_CANopen/Libraries/XMCLib/inc\xmc4_scu.h ****   XMC_SCU_HIB_EVENT_LPAC_HIB_IO_1_POSEDGE = SCU_HIBERNATE_HDSTAT_AHIBIO1PEV_Msk, /**< Wake-up on LP
 787:D:/Workspace/Development/my/DAVE/Infineon_CANopen/Libraries/XMCLib/inc\xmc4_scu.h ****   XMC_SCU_HIB_EVENT_LPAC_HIB_IO_1_NEGEDGE = SCU_HIBERNATE_HDSTAT_AHIBIO1NEV_Msk, /**< Wake-up on LP
 788:D:/Workspace/Development/my/DAVE/Infineon_CANopen/Libraries/XMCLib/inc\xmc4_scu.h **** #endif
 789:D:/Workspace/Development/my/DAVE/Infineon_CANopen/Libraries/XMCLib/inc\xmc4_scu.h **** #endif
 790:D:/Workspace/Development/my/DAVE/Infineon_CANopen/Libraries/XMCLib/inc\xmc4_scu.h **** } XMC_SCU_HIB_EVENT_t;
 791:D:/Workspace/Development/my/DAVE/Infineon_CANopen/Libraries/XMCLib/inc\xmc4_scu.h **** 
 792:D:/Workspace/Development/my/DAVE/Infineon_CANopen/Libraries/XMCLib/inc\xmc4_scu.h **** /**
 793:D:/Workspace/Development/my/DAVE/Infineon_CANopen/Libraries/XMCLib/inc\xmc4_scu.h ****   * Hibernate domain dedicated pins
 794:D:/Workspace/Development/my/DAVE/Infineon_CANopen/Libraries/XMCLib/inc\xmc4_scu.h ****   */
 795:D:/Workspace/Development/my/DAVE/Infineon_CANopen/Libraries/XMCLib/inc\xmc4_scu.h **** typedef enum XMC_SCU_HIB_IO
 796:D:/Workspace/Development/my/DAVE/Infineon_CANopen/Libraries/XMCLib/inc\xmc4_scu.h **** {
 797:D:/Workspace/Development/my/DAVE/Infineon_CANopen/Libraries/XMCLib/inc\xmc4_scu.h ****   XMC_SCU_HIB_IO_0 = 0, /**< HIB_IO_0 pin.
 798:D:/Workspace/Development/my/DAVE/Infineon_CANopen/Libraries/XMCLib/inc\xmc4_scu.h ****                              At the first power-up and with every reset of the hibernate domain thi
 799:D:/Workspace/Development/my/DAVE/Infineon_CANopen/Libraries/XMCLib/inc\xmc4_scu.h **** #if (defined(DOXYGEN) || (UC_PACKAGE == BGA196) || (UC_PACKAGE == BGA144) || (UC_PACKAGE == LQFP144
 800:D:/Workspace/Development/my/DAVE/Infineon_CANopen/Libraries/XMCLib/inc\xmc4_scu.h ****   XMC_SCU_HIB_IO_1 = 1 /**< HIB_IO_1 pin.
 801:D:/Workspace/Development/my/DAVE/Infineon_CANopen/Libraries/XMCLib/inc\xmc4_scu.h ****                             At the first power-up and with every reset of the hibernate domain this
 802:D:/Workspace/Development/my/DAVE/Infineon_CANopen/Libraries/XMCLib/inc\xmc4_scu.h ****                             @note : Only available in certain packages*/
 803:D:/Workspace/Development/my/DAVE/Infineon_CANopen/Libraries/XMCLib/inc\xmc4_scu.h **** #endif
 804:D:/Workspace/Development/my/DAVE/Infineon_CANopen/Libraries/XMCLib/inc\xmc4_scu.h **** } XMC_SCU_HIB_IO_t;
 805:D:/Workspace/Development/my/DAVE/Infineon_CANopen/Libraries/XMCLib/inc\xmc4_scu.h **** 
 806:D:/Workspace/Development/my/DAVE/Infineon_CANopen/Libraries/XMCLib/inc\xmc4_scu.h **** /**
 807:D:/Workspace/Development/my/DAVE/Infineon_CANopen/Libraries/XMCLib/inc\xmc4_scu.h ****  * HIB_IOx pin I/O control
 808:D:/Workspace/Development/my/DAVE/Infineon_CANopen/Libraries/XMCLib/inc\xmc4_scu.h ****  */
 809:D:/Workspace/Development/my/DAVE/Infineon_CANopen/Libraries/XMCLib/inc\xmc4_scu.h **** typedef enum XMC_SCU_HIB_PIN_MODE
 810:D:/Workspace/Development/my/DAVE/Infineon_CANopen/Libraries/XMCLib/inc\xmc4_scu.h **** {
 811:D:/Workspace/Development/my/DAVE/Infineon_CANopen/Libraries/XMCLib/inc\xmc4_scu.h ****   XMC_SCU_HIB_PIN_MODE_INPUT_PULL_NONE = 0 << SCU_HIBERNATE_HDCR_HIBIO0SEL_Pos, /**< Direct input, 
 812:D:/Workspace/Development/my/DAVE/Infineon_CANopen/Libraries/XMCLib/inc\xmc4_scu.h ****   XMC_SCU_HIB_PIN_MODE_INPUT_PULL_DOWN = 1 << SCU_HIBERNATE_HDCR_HIBIO0SEL_Pos, /**< Direct input, 
 813:D:/Workspace/Development/my/DAVE/Infineon_CANopen/Libraries/XMCLib/inc\xmc4_scu.h ****   XMC_SCU_HIB_PIN_MODE_INPUT_PULL_UP = 2 << SCU_HIBERNATE_HDCR_HIBIO0SEL_Pos, /**< Direct input, in
 814:D:/Workspace/Development/my/DAVE/Infineon_CANopen/Libraries/XMCLib/inc\xmc4_scu.h ****   XMC_SCU_HIB_PIN_MODE_OUTPUT_PUSH_PULL_HIBCTRL = 8 << SCU_HIBERNATE_HDCR_HIBIO0SEL_Pos, /**< Push-
 815:D:/Workspace/Development/my/DAVE/Infineon_CANopen/Libraries/XMCLib/inc\xmc4_scu.h ****   XMC_SCU_HIB_PIN_MODE_OUTPUT_PUSH_PULL_WDTSRV = 9 << SCU_HIBERNATE_HDCR_HIBIO0SEL_Pos, /**< Push-p
 816:D:/Workspace/Development/my/DAVE/Infineon_CANopen/Libraries/XMCLib/inc\xmc4_scu.h ****   XMC_SCU_HIB_PIN_MODE_OUTPUT_PUSH_PULL_GPIO = 10 << SCU_HIBERNATE_HDCR_HIBIO0SEL_Pos, /**< Push-pu
 817:D:/Workspace/Development/my/DAVE/Infineon_CANopen/Libraries/XMCLib/inc\xmc4_scu.h ****   XMC_SCU_HIB_PIN_MODE_OUTPUT_OPEN_DRAIN_HIBCTRL = 12 << SCU_HIBERNATE_HDCR_HIBIO0SEL_Pos, /**< Ope
 818:D:/Workspace/Development/my/DAVE/Infineon_CANopen/Libraries/XMCLib/inc\xmc4_scu.h ****   XMC_SCU_HIB_PIN_MODE_OUTPUT_OPEN_DRAIN_WDTSRV = 13 << SCU_HIBERNATE_HDCR_HIBIO0SEL_Pos, /**< Open
 819:D:/Workspace/Development/my/DAVE/Infineon_CANopen/Libraries/XMCLib/inc\xmc4_scu.h ****   XMC_SCU_HIB_PIN_MODE_OUTPUT_OPEN_DRAIN_GPIO = 14 << SCU_HIBERNATE_HDCR_HIBIO0SEL_Pos, /**< Open d
 820:D:/Workspace/Development/my/DAVE/Infineon_CANopen/Libraries/XMCLib/inc\xmc4_scu.h **** } XMC_SCU_HIB_PIN_MODE_t;
 821:D:/Workspace/Development/my/DAVE/Infineon_CANopen/Libraries/XMCLib/inc\xmc4_scu.h **** 
 822:D:/Workspace/Development/my/DAVE/Infineon_CANopen/Libraries/XMCLib/inc\xmc4_scu.h **** /**
 823:D:/Workspace/Development/my/DAVE/Infineon_CANopen/Libraries/XMCLib/inc\xmc4_scu.h ****  * Selects the output polarity of the HIB_IOx
 824:D:/Workspace/Development/my/DAVE/Infineon_CANopen/Libraries/XMCLib/inc\xmc4_scu.h ****  */
 825:D:/Workspace/Development/my/DAVE/Infineon_CANopen/Libraries/XMCLib/inc\xmc4_scu.h **** typedef enum XMC_SCU_HIB_IO_OUTPUT_LEVEL
 826:D:/Workspace/Development/my/DAVE/Infineon_CANopen/Libraries/XMCLib/inc\xmc4_scu.h **** {
 827:D:/Workspace/Development/my/DAVE/Infineon_CANopen/Libraries/XMCLib/inc\xmc4_scu.h ****   XMC_SCU_HIB_IO_OUTPUT_LEVEL_LOW = 0 << SCU_HIBERNATE_HDCR_HIBIO0POL_Pos, /**< Direct value */
 828:D:/Workspace/Development/my/DAVE/Infineon_CANopen/Libraries/XMCLib/inc\xmc4_scu.h ****   XMC_SCU_HIB_IO_OUTPUT_LEVEL_HIGH = 1 << SCU_HIBERNATE_HDCR_HIBIO0POL_Pos /**< Inverted value */
 829:D:/Workspace/Development/my/DAVE/Infineon_CANopen/Libraries/XMCLib/inc\xmc4_scu.h **** } XMC_SCU_HIB_IO_OUTPUT_LEVEL_t;
 830:D:/Workspace/Development/my/DAVE/Infineon_CANopen/Libraries/XMCLib/inc\xmc4_scu.h **** 
 831:D:/Workspace/Development/my/DAVE/Infineon_CANopen/Libraries/XMCLib/inc\xmc4_scu.h **** /**
 832:D:/Workspace/Development/my/DAVE/Infineon_CANopen/Libraries/XMCLib/inc\xmc4_scu.h ****  * Selects hibernate mode
 833:D:/Workspace/Development/my/DAVE/Infineon_CANopen/Libraries/XMCLib/inc\xmc4_scu.h ****  */
 834:D:/Workspace/Development/my/DAVE/Infineon_CANopen/Libraries/XMCLib/inc\xmc4_scu.h **** typedef enum XMC_SCU_HIB_HIBERNATE_MODE
 835:D:/Workspace/Development/my/DAVE/Infineon_CANopen/Libraries/XMCLib/inc\xmc4_scu.h **** {
 836:D:/Workspace/Development/my/DAVE/Infineon_CANopen/Libraries/XMCLib/inc\xmc4_scu.h ****   XMC_SCU_HIB_HIBERNATE_MODE_EXTERNAL = 0, /**< Request external hibernate mode */
 837:D:/Workspace/Development/my/DAVE/Infineon_CANopen/Libraries/XMCLib/inc\xmc4_scu.h **** #if (defined(DOXYGEN) || (UC_SERIES == XMC44) || (UC_SERIES == XMC42) || (UC_SERIES == XMC41))
 838:D:/Workspace/Development/my/DAVE/Infineon_CANopen/Libraries/XMCLib/inc\xmc4_scu.h ****   XMC_SCU_HIB_HIBERNATE_MODE_INTERNAL = 1, /**< Request internal hibernate mode. @note Only availab
 839:D:/Workspace/Development/my/DAVE/Infineon_CANopen/Libraries/XMCLib/inc\xmc4_scu.h **** #endif
 840:D:/Workspace/Development/my/DAVE/Infineon_CANopen/Libraries/XMCLib/inc\xmc4_scu.h **** } XMC_SCU_HIB_HIBERNATE_MODE_t;
 841:D:/Workspace/Development/my/DAVE/Infineon_CANopen/Libraries/XMCLib/inc\xmc4_scu.h **** 
 842:D:/Workspace/Development/my/DAVE/Infineon_CANopen/Libraries/XMCLib/inc\xmc4_scu.h **** /**
 843:D:/Workspace/Development/my/DAVE/Infineon_CANopen/Libraries/XMCLib/inc\xmc4_scu.h ****  * Selects input signal HIB_SR0 of ERU0
 844:D:/Workspace/Development/my/DAVE/Infineon_CANopen/Libraries/XMCLib/inc\xmc4_scu.h ****  */
 845:D:/Workspace/Development/my/DAVE/Infineon_CANopen/Libraries/XMCLib/inc\xmc4_scu.h **** typedef enum XMC_SCU_HIB_SR0_INPUT
 846:D:/Workspace/Development/my/DAVE/Infineon_CANopen/Libraries/XMCLib/inc\xmc4_scu.h **** {
 847:D:/Workspace/Development/my/DAVE/Infineon_CANopen/Libraries/XMCLib/inc\xmc4_scu.h ****   XMC_SCU_HIB_SR0_INPUT_HIB_IO_0 = SCU_HIBERNATE_HDCR_GPI0SEL_Msk, /**< Set HIB_SR0 to HIB_IO_0 dig
 848:D:/Workspace/Development/my/DAVE/Infineon_CANopen/Libraries/XMCLib/inc\xmc4_scu.h **** #if (defined(DOXYGEN) || (UC_PACKAGE == BGA196) || (UC_PACKAGE == BGA144) || (UC_PACKAGE == LQFP144
 849:D:/Workspace/Development/my/DAVE/Infineon_CANopen/Libraries/XMCLib/inc\xmc4_scu.h ****   XMC_SCU_HIB_SR0_INPUT_HIB_IO_1 = 0, /**< Set HIB_SR0 to HIB_IO_1 digital input. @note Only availa
 850:D:/Workspace/Development/my/DAVE/Infineon_CANopen/Libraries/XMCLib/inc\xmc4_scu.h **** #endif
 851:D:/Workspace/Development/my/DAVE/Infineon_CANopen/Libraries/XMCLib/inc\xmc4_scu.h **** #if (defined(DOXYGEN) || (UC_SERIES == XMC44) || (UC_SERIES == XMC42) || (UC_SERIES == XMC41))
 852:D:/Workspace/Development/my/DAVE/Infineon_CANopen/Libraries/XMCLib/inc\xmc4_scu.h ****   XMC_SCU_HIB_SR0_INPUT_ACMP0 = SCU_HIBERNATE_HDCR_ADIG0SEL_Msk,  /**< Set HIB_SR0 to LPAC CMP0. @n
 853:D:/Workspace/Development/my/DAVE/Infineon_CANopen/Libraries/XMCLib/inc\xmc4_scu.h **** #endif
 854:D:/Workspace/Development/my/DAVE/Infineon_CANopen/Libraries/XMCLib/inc\xmc4_scu.h **** } XMC_SCU_HIB_SR0_INPUT_t;
 855:D:/Workspace/Development/my/DAVE/Infineon_CANopen/Libraries/XMCLib/inc\xmc4_scu.h **** 
 856:D:/Workspace/Development/my/DAVE/Infineon_CANopen/Libraries/XMCLib/inc\xmc4_scu.h **** #if (defined(DOXYGEN) || (UC_SERIES == XMC44) || (UC_SERIES == XMC42) || (UC_SERIES == XMC41))
 857:D:/Workspace/Development/my/DAVE/Infineon_CANopen/Libraries/XMCLib/inc\xmc4_scu.h **** 
 858:D:/Workspace/Development/my/DAVE/Infineon_CANopen/Libraries/XMCLib/inc\xmc4_scu.h **** #if ((UC_SERIES == XMC44) && (UC_PACKAGE == LQFP100))
 859:D:/Workspace/Development/my/DAVE/Infineon_CANopen/Libraries/XMCLib/inc\xmc4_scu.h **** /**
 860:D:/Workspace/Development/my/DAVE/Infineon_CANopen/Libraries/XMCLib/inc\xmc4_scu.h ****  * Selects input signal HIB_SR1 of ERU0. @note Only available in XMC44 in certain packages.
 861:D:/Workspace/Development/my/DAVE/Infineon_CANopen/Libraries/XMCLib/inc\xmc4_scu.h ****  */
 862:D:/Workspace/Development/my/DAVE/Infineon_CANopen/Libraries/XMCLib/inc\xmc4_scu.h **** typedef enum XMC_SCU_HIB_SR1_INPUT
 863:D:/Workspace/Development/my/DAVE/Infineon_CANopen/Libraries/XMCLib/inc\xmc4_scu.h **** {
 864:D:/Workspace/Development/my/DAVE/Infineon_CANopen/Libraries/XMCLib/inc\xmc4_scu.h ****   XMC_SCU_HIB_SR1_INPUT_HIB_IO_0 = SCU_HIBERNATE_HDCR_GPI1SEL_Msk, /**< Set HIB_SR1 to HIB_IO_0 dig
 865:D:/Workspace/Development/my/DAVE/Infineon_CANopen/Libraries/XMCLib/inc\xmc4_scu.h ****   XMC_SCU_HIB_SR1_INPUT_HIB_IO_1 = 0, /**< Set HIB_SR1 to HIB_IO_1 digital input.  */
 866:D:/Workspace/Development/my/DAVE/Infineon_CANopen/Libraries/XMCLib/inc\xmc4_scu.h ****   XMC_SCU_HIB_SR1_INPUT_ACMP1 = SCU_HIBERNATE_HDCR_ADIG1SEL_Msk,  /**< Set HIB_SR0 to LPAC CMP1. */
 867:D:/Workspace/Development/my/DAVE/Infineon_CANopen/Libraries/XMCLib/inc\xmc4_scu.h ****   XMC_SCU_HIB_SR1_INPUT_XTAL_GPI = SCU_HIBERNATE_HDCR_XTALGPI1SEL_Msk,  /**< Set HIB_SR0 to RTC_XTA
 868:D:/Workspace/Development/my/DAVE/Infineon_CANopen/Libraries/XMCLib/inc\xmc4_scu.h **** } XMC_SCU_HIB_SR1_INPUT_t;
 869:D:/Workspace/Development/my/DAVE/Infineon_CANopen/Libraries/XMCLib/inc\xmc4_scu.h **** #endif
 870:D:/Workspace/Development/my/DAVE/Infineon_CANopen/Libraries/XMCLib/inc\xmc4_scu.h **** 
 871:D:/Workspace/Development/my/DAVE/Infineon_CANopen/Libraries/XMCLib/inc\xmc4_scu.h **** /**
 872:D:/Workspace/Development/my/DAVE/Infineon_CANopen/Libraries/XMCLib/inc\xmc4_scu.h ****  * HIB LPAC input selection
 873:D:/Workspace/Development/my/DAVE/Infineon_CANopen/Libraries/XMCLib/inc\xmc4_scu.h ****  */
 874:D:/Workspace/Development/my/DAVE/Infineon_CANopen/Libraries/XMCLib/inc\xmc4_scu.h **** typedef enum XMC_SCU_HIB_LPAC_INPUT
 875:D:/Workspace/Development/my/DAVE/Infineon_CANopen/Libraries/XMCLib/inc\xmc4_scu.h **** {
 876:D:/Workspace/Development/my/DAVE/Infineon_CANopen/Libraries/XMCLib/inc\xmc4_scu.h ****   XMC_SCU_HIB_LPAC_INPUT_DISABLED = 0 << SCU_HIBERNATE_LPACCONF_CMPEN_Pos, /**< Comparator permanen
 877:D:/Workspace/Development/my/DAVE/Infineon_CANopen/Libraries/XMCLib/inc\xmc4_scu.h ****   XMC_SCU_HIB_LPAC_INPUT_VBAT = 0x1 << SCU_HIBERNATE_LPACCONF_CMPEN_Pos, /**< Comparator activated 
 878:D:/Workspace/Development/my/DAVE/Infineon_CANopen/Libraries/XMCLib/inc\xmc4_scu.h ****   XMC_SCU_HIB_LPAC_INPUT_HIB_IO_0 = 0x2 << SCU_HIBERNATE_LPACCONF_CMPEN_Pos, /**< Comparator activa
 879:D:/Workspace/Development/my/DAVE/Infineon_CANopen/Libraries/XMCLib/inc\xmc4_scu.h **** #if (defined(DOXYGEN) || ((UC_SERIES == XMC44) && (UC_PACKAGE == LQFP100)))
 880:D:/Workspace/Development/my/DAVE/Infineon_CANopen/Libraries/XMCLib/inc\xmc4_scu.h ****   XMC_SCU_HIB_LPAC_INPUT_HIB_IO_1 = 0x4 << SCU_HIBERNATE_LPACCONF_CMPEN_Pos, /**< Comparator activa
 881:D:/Workspace/Development/my/DAVE/Infineon_CANopen/Libraries/XMCLib/inc\xmc4_scu.h **** #endif
 882:D:/Workspace/Development/my/DAVE/Infineon_CANopen/Libraries/XMCLib/inc\xmc4_scu.h **** } XMC_SCU_HIB_LPAC_INPUT_t;
 883:D:/Workspace/Development/my/DAVE/Infineon_CANopen/Libraries/XMCLib/inc\xmc4_scu.h **** 
 884:D:/Workspace/Development/my/DAVE/Infineon_CANopen/Libraries/XMCLib/inc\xmc4_scu.h **** /**
 885:D:/Workspace/Development/my/DAVE/Infineon_CANopen/Libraries/XMCLib/inc\xmc4_scu.h ****  * HIB LPAC start trigger selection for selected inputs
 886:D:/Workspace/Development/my/DAVE/Infineon_CANopen/Libraries/XMCLib/inc\xmc4_scu.h ****  */
 887:D:/Workspace/Development/my/DAVE/Infineon_CANopen/Libraries/XMCLib/inc\xmc4_scu.h **** typedef enum XMC_SCU_HIB_LPAC_TRIGGER
 888:D:/Workspace/Development/my/DAVE/Infineon_CANopen/Libraries/XMCLib/inc\xmc4_scu.h **** {
 889:D:/Workspace/Development/my/DAVE/Infineon_CANopen/Libraries/XMCLib/inc\xmc4_scu.h ****   XMC_SCU_HIB_LPAC_TRIGGER_SUBSECOND_INTERVAL_COUNTER = 0 << SCU_HIBERNATE_LPACCONF_TRIGSEL_Pos, /*
 890:D:/Workspace/Development/my/DAVE/Infineon_CANopen/Libraries/XMCLib/inc\xmc4_scu.h ****   XMC_SCU_HIB_LPAC_TRIGGER_RTC_ALARM_EVENT = 0x1 << SCU_HIBERNATE_LPACCONF_TRIGSEL_Pos, /**< RTC al
 891:D:/Workspace/Development/my/DAVE/Infineon_CANopen/Libraries/XMCLib/inc\xmc4_scu.h ****   XMC_SCU_HIB_LPAC_TRIGGER_RTC_PERIODIC_EVENT = 0x2 << SCU_HIBERNATE_LPACCONF_TRIGSEL_Pos, /**< RTC
 892:D:/Workspace/Development/my/DAVE/Infineon_CANopen/Libraries/XMCLib/inc\xmc4_scu.h ****   XMC_SCU_HIB_LPAC_TRIGGER_ON_WAKEUP_POSITIVE_EDGE_EVENT = 0x3 << SCU_HIBERNATE_LPACCONF_TRIGSEL_Po
 893:D:/Workspace/Development/my/DAVE/Infineon_CANopen/Libraries/XMCLib/inc\xmc4_scu.h ****   XMC_SCU_HIB_LPAC_TRIGGER_ON_WAKEUP_NEGATIVE_EDGE_EVENT = 0x5 << SCU_HIBERNATE_LPACCONF_TRIGSEL_Po
 894:D:/Workspace/Development/my/DAVE/Infineon_CANopen/Libraries/XMCLib/inc\xmc4_scu.h ****   XMC_SCU_HIB_LPAC_TRIGGER_CONTINOUS = 0x6 << SCU_HIBERNATE_LPACCONF_TRIGSEL_Pos, /**< Continuous m
 895:D:/Workspace/Development/my/DAVE/Infineon_CANopen/Libraries/XMCLib/inc\xmc4_scu.h ****   XMC_SCU_HIB_LPAC_TRIGGER_SINGLE_SHOT = 0x7 << SCU_HIBERNATE_LPACCONF_TRIGSEL_Pos, /**< Single sho
 896:D:/Workspace/Development/my/DAVE/Infineon_CANopen/Libraries/XMCLib/inc\xmc4_scu.h **** } XMC_SCU_HIB_LPAC_TRIGGER_t;
 897:D:/Workspace/Development/my/DAVE/Infineon_CANopen/Libraries/XMCLib/inc\xmc4_scu.h **** 
 898:D:/Workspace/Development/my/DAVE/Infineon_CANopen/Libraries/XMCLib/inc\xmc4_scu.h **** /**
 899:D:/Workspace/Development/my/DAVE/Infineon_CANopen/Libraries/XMCLib/inc\xmc4_scu.h ****  * HIB LPAC status
 900:D:/Workspace/Development/my/DAVE/Infineon_CANopen/Libraries/XMCLib/inc\xmc4_scu.h ****  */
 901:D:/Workspace/Development/my/DAVE/Infineon_CANopen/Libraries/XMCLib/inc\xmc4_scu.h **** typedef enum XMC_SCU_HIB_LPAC_STATUS
 902:D:/Workspace/Development/my/DAVE/Infineon_CANopen/Libraries/XMCLib/inc\xmc4_scu.h **** {
 903:D:/Workspace/Development/my/DAVE/Infineon_CANopen/Libraries/XMCLib/inc\xmc4_scu.h ****   XMC_SCU_HIB_LPAC_STATUS_VBAT_COMPARE_DONE = SCU_HIBERNATE_LPACST_VBATSCMP_Msk, /**< VBAT compare 
 904:D:/Workspace/Development/my/DAVE/Infineon_CANopen/Libraries/XMCLib/inc\xmc4_scu.h ****   XMC_SCU_HIB_LPAC_STATUS_HIB_IO_0_COMPARE_DONE = SCU_HIBERNATE_LPACST_AHIBIO0SCMP_Msk, /**< HBI_IO
 905:D:/Workspace/Development/my/DAVE/Infineon_CANopen/Libraries/XMCLib/inc\xmc4_scu.h **** #if (defined(DOXYGEN) || ((UC_SERIES == XMC44) && (UC_PACKAGE == LQFP100)))
 906:D:/Workspace/Development/my/DAVE/Infineon_CANopen/Libraries/XMCLib/inc\xmc4_scu.h ****   XMC_SCU_HIB_LPAC_STATUS_HIB_IO_1_COMPARE_DONE = SCU_HIBERNATE_LPACST_AHIBIO1SCMP_Msk, /**< HBI_IO
 907:D:/Workspace/Development/my/DAVE/Infineon_CANopen/Libraries/XMCLib/inc\xmc4_scu.h **** #endif
 908:D:/Workspace/Development/my/DAVE/Infineon_CANopen/Libraries/XMCLib/inc\xmc4_scu.h ****   XMC_SCU_HIB_LPAC_STATUS_VBAT_ABOVE_THRESHOLD = SCU_HIBERNATE_LPACST_VBATVAL_Msk, /**< VBAT compar
 909:D:/Workspace/Development/my/DAVE/Infineon_CANopen/Libraries/XMCLib/inc\xmc4_scu.h ****   XMC_SCU_HIB_LPAC_STATUS_HIB_IO_0_ABOVE_THRESHOLD = SCU_HIBERNATE_LPACST_AHIBIO0VAL_Msk, /**< HBI_
 910:D:/Workspace/Development/my/DAVE/Infineon_CANopen/Libraries/XMCLib/inc\xmc4_scu.h **** #if (defined(DOXYGEN) || ((UC_SERIES == XMC44) && (UC_PACKAGE == LQFP100)))
 911:D:/Workspace/Development/my/DAVE/Infineon_CANopen/Libraries/XMCLib/inc\xmc4_scu.h ****   XMC_SCU_HIB_LPAC_STATUS_HIB_IO_1_ABOVE_THRESHOLD = SCU_HIBERNATE_LPACST_AHIBIO1VAL_Msk, /**< HBI_
 912:D:/Workspace/Development/my/DAVE/Infineon_CANopen/Libraries/XMCLib/inc\xmc4_scu.h **** #endif
 913:D:/Workspace/Development/my/DAVE/Infineon_CANopen/Libraries/XMCLib/inc\xmc4_scu.h **** } XMC_SCU_HIB_LPAC_STATUS_t;
 914:D:/Workspace/Development/my/DAVE/Infineon_CANopen/Libraries/XMCLib/inc\xmc4_scu.h **** 
 915:D:/Workspace/Development/my/DAVE/Infineon_CANopen/Libraries/XMCLib/inc\xmc4_scu.h **** #endif /* (defined(DOXYGEN) || (UC_SERIES == XMC44) || (UC_SERIES == XMC42) || (UC_SERIES == XMC41)
 916:D:/Workspace/Development/my/DAVE/Infineon_CANopen/Libraries/XMCLib/inc\xmc4_scu.h **** 
 917:D:/Workspace/Development/my/DAVE/Infineon_CANopen/Libraries/XMCLib/inc\xmc4_scu.h **** /**************************************************************************************************
 918:D:/Workspace/Development/my/DAVE/Infineon_CANopen/Libraries/XMCLib/inc\xmc4_scu.h ****  * DATA STRUCTURES
 919:D:/Workspace/Development/my/DAVE/Infineon_CANopen/Libraries/XMCLib/inc\xmc4_scu.h ****  **************************************************************************************************
 920:D:/Workspace/Development/my/DAVE/Infineon_CANopen/Libraries/XMCLib/inc\xmc4_scu.h **** 
 921:D:/Workspace/Development/my/DAVE/Infineon_CANopen/Libraries/XMCLib/inc\xmc4_scu.h **** /**
 922:D:/Workspace/Development/my/DAVE/Infineon_CANopen/Libraries/XMCLib/inc\xmc4_scu.h ****  *  Defines a data structure for initializing the PLL functional block.
 923:D:/Workspace/Development/my/DAVE/Infineon_CANopen/Libraries/XMCLib/inc\xmc4_scu.h ****  *  Structure holds divider values for N-DIV, P-DIV, K1-DIV, K2-DIV in order to generate desired
 924:D:/Workspace/Development/my/DAVE/Infineon_CANopen/Libraries/XMCLib/inc\xmc4_scu.h ****  *  frequency using VCO. It holds the PLL mode of operation either normal or prescaler (VCO bypasse
 925:D:/Workspace/Development/my/DAVE/Infineon_CANopen/Libraries/XMCLib/inc\xmc4_scu.h ****  *  Use type \a XMC_SCU_CLOCK_PLL_CONFIG_t for accessing these structure parameters.
 926:D:/Workspace/Development/my/DAVE/Infineon_CANopen/Libraries/XMCLib/inc\xmc4_scu.h ****  */
 927:D:/Workspace/Development/my/DAVE/Infineon_CANopen/Libraries/XMCLib/inc\xmc4_scu.h **** typedef struct XMC_SCU_CLOCK_SYSPLL_CONFIG
 928:D:/Workspace/Development/my/DAVE/Infineon_CANopen/Libraries/XMCLib/inc\xmc4_scu.h **** {
 929:D:/Workspace/Development/my/DAVE/Infineon_CANopen/Libraries/XMCLib/inc\xmc4_scu.h ****   uint8_t n_div;                       /**<  PLL N-Divider value. */
 930:D:/Workspace/Development/my/DAVE/Infineon_CANopen/Libraries/XMCLib/inc\xmc4_scu.h ****   uint8_t p_div;                       /**<  PLL P-Divider value. */
 931:D:/Workspace/Development/my/DAVE/Infineon_CANopen/Libraries/XMCLib/inc\xmc4_scu.h ****   uint8_t k_div;                       /**<  K1-Divider(Prescalar mode) or K2-Divider (Normal mode)
 932:D:/Workspace/Development/my/DAVE/Infineon_CANopen/Libraries/XMCLib/inc\xmc4_scu.h ****   XMC_SCU_CLOCK_SYSPLL_MODE_t mode;    /**<  PLL mode of operation. */
 933:D:/Workspace/Development/my/DAVE/Infineon_CANopen/Libraries/XMCLib/inc\xmc4_scu.h ****   XMC_SCU_CLOCK_SYSPLLCLKSRC_t clksrc; /**<  PLL divider input frequency. */
 934:D:/Workspace/Development/my/DAVE/Infineon_CANopen/Libraries/XMCLib/inc\xmc4_scu.h **** } XMC_SCU_CLOCK_SYSPLL_CONFIG_t;
 935:D:/Workspace/Development/my/DAVE/Infineon_CANopen/Libraries/XMCLib/inc\xmc4_scu.h **** 
 936:D:/Workspace/Development/my/DAVE/Infineon_CANopen/Libraries/XMCLib/inc\xmc4_scu.h **** /**
 937:D:/Workspace/Development/my/DAVE/Infineon_CANopen/Libraries/XMCLib/inc\xmc4_scu.h ****  *  Defines a data structure used for initializing the clock functional block.
 938:D:/Workspace/Development/my/DAVE/Infineon_CANopen/Libraries/XMCLib/inc\xmc4_scu.h ****  *  Clock functional block configures clock source needed for various peripheral and its divider va
 939:D:/Workspace/Development/my/DAVE/Infineon_CANopen/Libraries/XMCLib/inc\xmc4_scu.h ****  *  Use type \a XMC_SCU_CLOCK_CONFIG_t for accessing these structure parameters.
 940:D:/Workspace/Development/my/DAVE/Infineon_CANopen/Libraries/XMCLib/inc\xmc4_scu.h ****  */
 941:D:/Workspace/Development/my/DAVE/Infineon_CANopen/Libraries/XMCLib/inc\xmc4_scu.h **** typedef struct XMC_SCU_CLOCK_CONFIG
 942:D:/Workspace/Development/my/DAVE/Infineon_CANopen/Libraries/XMCLib/inc\xmc4_scu.h **** {
 943:D:/Workspace/Development/my/DAVE/Infineon_CANopen/Libraries/XMCLib/inc\xmc4_scu.h ****   XMC_SCU_CLOCK_SYSPLL_CONFIG_t         syspll_config;      /**< PLL configuration */
 944:D:/Workspace/Development/my/DAVE/Infineon_CANopen/Libraries/XMCLib/inc\xmc4_scu.h ****   bool                                  enable_oschp;       /**< Enable external high precision osc
 945:D:/Workspace/Development/my/DAVE/Infineon_CANopen/Libraries/XMCLib/inc\xmc4_scu.h ****                                                                  Should be enabled when fOHP has to
 946:D:/Workspace/Development/my/DAVE/Infineon_CANopen/Libraries/XMCLib/inc\xmc4_scu.h ****   bool                                  enable_osculp;      /**< Enable external ultra low power os
 947:D:/Workspace/Development/my/DAVE/Infineon_CANopen/Libraries/XMCLib/inc\xmc4_scu.h ****                                                                  Should be enabled when fULP has to
 948:D:/Workspace/Development/my/DAVE/Infineon_CANopen/Libraries/XMCLib/inc\xmc4_scu.h ****   XMC_SCU_CLOCK_FOFI_CALIBRATION_MODE_t calibration_mode;   /**< Backup clock trimming mode. */
 949:D:/Workspace/Development/my/DAVE/Infineon_CANopen/Libraries/XMCLib/inc\xmc4_scu.h ****   XMC_SCU_HIB_STDBYCLKSRC_t             fstdby_clksrc;      /**< Standby clock source. */
 950:D:/Workspace/Development/my/DAVE/Infineon_CANopen/Libraries/XMCLib/inc\xmc4_scu.h ****   XMC_SCU_CLOCK_SYSCLKSRC_t             fsys_clksrc;        /**< Choice of system clock. */
 951:D:/Workspace/Development/my/DAVE/Infineon_CANopen/Libraries/XMCLib/inc\xmc4_scu.h ****   uint8_t                               fsys_clkdiv;        /**< Ratio of fPLL to fSYS. */
 952:D:/Workspace/Development/my/DAVE/Infineon_CANopen/Libraries/XMCLib/inc\xmc4_scu.h ****   uint8_t                               fcpu_clkdiv;        /**< Ratio of fSys to fCPU. */
 953:D:/Workspace/Development/my/DAVE/Infineon_CANopen/Libraries/XMCLib/inc\xmc4_scu.h ****   uint8_t                               fccu_clkdiv;        /**< Ratio of fSys to fCCU. */
 954:D:/Workspace/Development/my/DAVE/Infineon_CANopen/Libraries/XMCLib/inc\xmc4_scu.h ****   uint8_t                               fperipheral_clkdiv; /**< Ratio of fSYS to fPERI. */
 955:D:/Workspace/Development/my/DAVE/Infineon_CANopen/Libraries/XMCLib/inc\xmc4_scu.h **** } const XMC_SCU_CLOCK_CONFIG_t;
 956:D:/Workspace/Development/my/DAVE/Infineon_CANopen/Libraries/XMCLib/inc\xmc4_scu.h **** 
 957:D:/Workspace/Development/my/DAVE/Infineon_CANopen/Libraries/XMCLib/inc\xmc4_scu.h **** /**
 958:D:/Workspace/Development/my/DAVE/Infineon_CANopen/Libraries/XMCLib/inc\xmc4_scu.h ****  * Low power modes
 959:D:/Workspace/Development/my/DAVE/Infineon_CANopen/Libraries/XMCLib/inc\xmc4_scu.h ****  */
 960:D:/Workspace/Development/my/DAVE/Infineon_CANopen/Libraries/XMCLib/inc\xmc4_scu.h **** typedef enum XMC_SCU_POWER_MODE_t
 961:D:/Workspace/Development/my/DAVE/Infineon_CANopen/Libraries/XMCLib/inc\xmc4_scu.h **** {
 962:D:/Workspace/Development/my/DAVE/Infineon_CANopen/Libraries/XMCLib/inc\xmc4_scu.h ****   XMC_SCU_POWER_MODE_SLEEP = 0, /**< sleep mode stops the processor clock */
 963:D:/Workspace/Development/my/DAVE/Infineon_CANopen/Libraries/XMCLib/inc\xmc4_scu.h ****   XMC_SCU_POWER_MODE_DEEPSLEEP = SCB_SCR_SLEEPDEEP_Msk /**< deep sleep mode stops the system clock 
 964:D:/Workspace/Development/my/DAVE/Infineon_CANopen/Libraries/XMCLib/inc\xmc4_scu.h **** } XMC_SCU_POWER_MODE_t;
 965:D:/Workspace/Development/my/DAVE/Infineon_CANopen/Libraries/XMCLib/inc\xmc4_scu.h **** 
 966:D:/Workspace/Development/my/DAVE/Infineon_CANopen/Libraries/XMCLib/inc\xmc4_scu.h **** /**************************************************************************************************
 967:D:/Workspace/Development/my/DAVE/Infineon_CANopen/Libraries/XMCLib/inc\xmc4_scu.h ****  * API PROTOTYPES
 968:D:/Workspace/Development/my/DAVE/Infineon_CANopen/Libraries/XMCLib/inc\xmc4_scu.h ****  **************************************************************************************************
 969:D:/Workspace/Development/my/DAVE/Infineon_CANopen/Libraries/XMCLib/inc\xmc4_scu.h **** 
 970:D:/Workspace/Development/my/DAVE/Infineon_CANopen/Libraries/XMCLib/inc\xmc4_scu.h **** #ifdef __cplusplus
 971:D:/Workspace/Development/my/DAVE/Infineon_CANopen/Libraries/XMCLib/inc\xmc4_scu.h **** extern "C" {
 972:D:/Workspace/Development/my/DAVE/Infineon_CANopen/Libraries/XMCLib/inc\xmc4_scu.h **** #endif
 973:D:/Workspace/Development/my/DAVE/Infineon_CANopen/Libraries/XMCLib/inc\xmc4_scu.h **** 
 974:D:/Workspace/Development/my/DAVE/Infineon_CANopen/Libraries/XMCLib/inc\xmc4_scu.h **** /**
 975:D:/Workspace/Development/my/DAVE/Infineon_CANopen/Libraries/XMCLib/inc\xmc4_scu.h ****  *
 976:D:/Workspace/Development/my/DAVE/Infineon_CANopen/Libraries/XMCLib/inc\xmc4_scu.h ****  * @param group   ADC Group to which the channel being monitored belongs to.\n
 977:D:/Workspace/Development/my/DAVE/Infineon_CANopen/Libraries/XMCLib/inc\xmc4_scu.h ****  *                 \b Range: 0 or 1.
 978:D:/Workspace/Development/my/DAVE/Infineon_CANopen/Libraries/XMCLib/inc\xmc4_scu.h ****  * @param channel  The channel whose voltage range has to be monitored.\n
 979:D:/Workspace/Development/my/DAVE/Infineon_CANopen/Libraries/XMCLib/inc\xmc4_scu.h ****  *                 \b Range: 6 or 7. Value identifies the channel in the selected ADC group.
 980:D:/Workspace/Development/my/DAVE/Infineon_CANopen/Libraries/XMCLib/inc\xmc4_scu.h ****  *
 981:D:/Workspace/Development/my/DAVE/Infineon_CANopen/Libraries/XMCLib/inc\xmc4_scu.h ****  * @return None
 982:D:/Workspace/Development/my/DAVE/Infineon_CANopen/Libraries/XMCLib/inc\xmc4_scu.h ****  *
 983:D:/Workspace/Development/my/DAVE/Infineon_CANopen/Libraries/XMCLib/inc\xmc4_scu.h ****  * \par<b>Description</b><br>
 984:D:/Workspace/Development/my/DAVE/Infineon_CANopen/Libraries/XMCLib/inc\xmc4_scu.h ****  * Enables out of range comparator for the selected ADC group and channel. \n\n
 985:D:/Workspace/Development/my/DAVE/Infineon_CANopen/Libraries/XMCLib/inc\xmc4_scu.h ****  * The ADC channel input is compared by Out of Range Comparator (ORC) for overvoltage monitoring
 986:D:/Workspace/Development/my/DAVE/Infineon_CANopen/Libraries/XMCLib/inc\xmc4_scu.h ****  * or for detection of out of range analog inputs. ORC must be turned on explicitly
 987:D:/Workspace/Development/my/DAVE/Infineon_CANopen/Libraries/XMCLib/inc\xmc4_scu.h ****  * to leverage the auditing feature. ORC is enabled by setting the enable bit in the GORCEN registe
 988:D:/Workspace/Development/my/DAVE/Infineon_CANopen/Libraries/XMCLib/inc\xmc4_scu.h ****  * \par<b>Related APIs:</b><BR>
 989:D:/Workspace/Development/my/DAVE/Infineon_CANopen/Libraries/XMCLib/inc\xmc4_scu.h ****  * XMC_SCU_DisableOutOfRangeComparator()\n\n\n
 990:D:/Workspace/Development/my/DAVE/Infineon_CANopen/Libraries/XMCLib/inc\xmc4_scu.h ****  */
 991:D:/Workspace/Development/my/DAVE/Infineon_CANopen/Libraries/XMCLib/inc\xmc4_scu.h **** void XMC_SCU_EnableOutOfRangeComparator(const uint32_t group, const uint32_t channel);
 992:D:/Workspace/Development/my/DAVE/Infineon_CANopen/Libraries/XMCLib/inc\xmc4_scu.h **** 
 993:D:/Workspace/Development/my/DAVE/Infineon_CANopen/Libraries/XMCLib/inc\xmc4_scu.h **** /**
 994:D:/Workspace/Development/my/DAVE/Infineon_CANopen/Libraries/XMCLib/inc\xmc4_scu.h ****  *
 995:D:/Workspace/Development/my/DAVE/Infineon_CANopen/Libraries/XMCLib/inc\xmc4_scu.h ****  * @param group   ADC Group to which the channel being monitored belongs to.\n
 996:D:/Workspace/Development/my/DAVE/Infineon_CANopen/Libraries/XMCLib/inc\xmc4_scu.h ****  *                 \b Range: 0 or 1.
 997:D:/Workspace/Development/my/DAVE/Infineon_CANopen/Libraries/XMCLib/inc\xmc4_scu.h ****  * @param channel  The channel whose voltage range has to be monitored.\n
 998:D:/Workspace/Development/my/DAVE/Infineon_CANopen/Libraries/XMCLib/inc\xmc4_scu.h ****  *                 \b Range: 6 or 7. Value identifies the channel in the selected ADC group.
 999:D:/Workspace/Development/my/DAVE/Infineon_CANopen/Libraries/XMCLib/inc\xmc4_scu.h ****  *
1000:D:/Workspace/Development/my/DAVE/Infineon_CANopen/Libraries/XMCLib/inc\xmc4_scu.h ****  * @return None
1001:D:/Workspace/Development/my/DAVE/Infineon_CANopen/Libraries/XMCLib/inc\xmc4_scu.h ****  *
1002:D:/Workspace/Development/my/DAVE/Infineon_CANopen/Libraries/XMCLib/inc\xmc4_scu.h ****  * \par<b>Description</b><br>
1003:D:/Workspace/Development/my/DAVE/Infineon_CANopen/Libraries/XMCLib/inc\xmc4_scu.h ****  * Disables the out of range comparator for the selected ADC group and the channel. \n\n
1004:D:/Workspace/Development/my/DAVE/Infineon_CANopen/Libraries/XMCLib/inc\xmc4_scu.h ****  * Out of range comparator is disabled by clearing the enable bit in the GORCEN register.
1005:D:/Workspace/Development/my/DAVE/Infineon_CANopen/Libraries/XMCLib/inc\xmc4_scu.h ****  * \par<b>Related APIs:</b><BR>
1006:D:/Workspace/Development/my/DAVE/Infineon_CANopen/Libraries/XMCLib/inc\xmc4_scu.h ****  * XMC_SCU_EnableOutOfRangeComparator()\n\n\n
1007:D:/Workspace/Development/my/DAVE/Infineon_CANopen/Libraries/XMCLib/inc\xmc4_scu.h ****  */
1008:D:/Workspace/Development/my/DAVE/Infineon_CANopen/Libraries/XMCLib/inc\xmc4_scu.h **** void XMC_SCU_DisableOutOfRangeComparator(const uint32_t group, const uint32_t channel);
1009:D:/Workspace/Development/my/DAVE/Infineon_CANopen/Libraries/XMCLib/inc\xmc4_scu.h **** 
1010:D:/Workspace/Development/my/DAVE/Infineon_CANopen/Libraries/XMCLib/inc\xmc4_scu.h **** /**
1011:D:/Workspace/Development/my/DAVE/Infineon_CANopen/Libraries/XMCLib/inc\xmc4_scu.h ****  * @return None
1012:D:/Workspace/Development/my/DAVE/Infineon_CANopen/Libraries/XMCLib/inc\xmc4_scu.h ****  *
1013:D:/Workspace/Development/my/DAVE/Infineon_CANopen/Libraries/XMCLib/inc\xmc4_scu.h ****  * \par<b>Description</b><br>
1014:D:/Workspace/Development/my/DAVE/Infineon_CANopen/Libraries/XMCLib/inc\xmc4_scu.h ****  * Enables die temperature measurement by powering the DTS module.\n\n
1015:D:/Workspace/Development/my/DAVE/Infineon_CANopen/Libraries/XMCLib/inc\xmc4_scu.h ****  * Die temperature sensor is enabled by setting the PWD bit of DTSCON register.
1016:D:/Workspace/Development/my/DAVE/Infineon_CANopen/Libraries/XMCLib/inc\xmc4_scu.h ****  * \par<b>Related APIs:</b><BR>
1017:D:/Workspace/Development/my/DAVE/Infineon_CANopen/Libraries/XMCLib/inc\xmc4_scu.h ****  * XMC_SCU_DisableTemperatureSensor(), XMC_SCU_IsTemperatureSensorEnabled(), XMC_SCU_CalibrateTempe
1018:D:/Workspace/Development/my/DAVE/Infineon_CANopen/Libraries/XMCLib/inc\xmc4_scu.h ****  * XMC_SCU_StartTemperatureMeasurement(), XMC_SCU_GetTemperatureMeasurement() \n\n\n
1019:D:/Workspace/Development/my/DAVE/Infineon_CANopen/Libraries/XMCLib/inc\xmc4_scu.h ****  */
1020:D:/Workspace/Development/my/DAVE/Infineon_CANopen/Libraries/XMCLib/inc\xmc4_scu.h **** void XMC_SCU_EnableTemperatureSensor(void);
1021:D:/Workspace/Development/my/DAVE/Infineon_CANopen/Libraries/XMCLib/inc\xmc4_scu.h **** 
1022:D:/Workspace/Development/my/DAVE/Infineon_CANopen/Libraries/XMCLib/inc\xmc4_scu.h **** /**
1023:D:/Workspace/Development/my/DAVE/Infineon_CANopen/Libraries/XMCLib/inc\xmc4_scu.h ****  * @return None
1024:D:/Workspace/Development/my/DAVE/Infineon_CANopen/Libraries/XMCLib/inc\xmc4_scu.h ****  *
1025:D:/Workspace/Development/my/DAVE/Infineon_CANopen/Libraries/XMCLib/inc\xmc4_scu.h ****  * \par<b>Description</b><br>
1026:D:/Workspace/Development/my/DAVE/Infineon_CANopen/Libraries/XMCLib/inc\xmc4_scu.h ****  * Disables die temperature measurement by powering the DTS module off.\n\n
1027:D:/Workspace/Development/my/DAVE/Infineon_CANopen/Libraries/XMCLib/inc\xmc4_scu.h ****  * Die temperature sensor is disabled by clearing the PWD bit of DTSCON register.
1028:D:/Workspace/Development/my/DAVE/Infineon_CANopen/Libraries/XMCLib/inc\xmc4_scu.h ****  * \par<b>Related APIs:</b><BR>
1029:D:/Workspace/Development/my/DAVE/Infineon_CANopen/Libraries/XMCLib/inc\xmc4_scu.h ****  * XMC_SCU_EnableTemperatureSensor(), XMC_SCU_IsTemperatureSensorEnabled(), XMC_SCU_CalibrateTemper
1030:D:/Workspace/Development/my/DAVE/Infineon_CANopen/Libraries/XMCLib/inc\xmc4_scu.h ****  * XMC_SCU_StartTemperatureMeasurement(), XMC_SCU_GetTemperatureMeasurement() \n\n\n
1031:D:/Workspace/Development/my/DAVE/Infineon_CANopen/Libraries/XMCLib/inc\xmc4_scu.h ****  */
1032:D:/Workspace/Development/my/DAVE/Infineon_CANopen/Libraries/XMCLib/inc\xmc4_scu.h **** void XMC_SCU_DisableTemperatureSensor(void);
1033:D:/Workspace/Development/my/DAVE/Infineon_CANopen/Libraries/XMCLib/inc\xmc4_scu.h **** 
1034:D:/Workspace/Development/my/DAVE/Infineon_CANopen/Libraries/XMCLib/inc\xmc4_scu.h **** /**
1035:D:/Workspace/Development/my/DAVE/Infineon_CANopen/Libraries/XMCLib/inc\xmc4_scu.h ****  * @return Status of die temperature sensor. \n
1036:D:/Workspace/Development/my/DAVE/Infineon_CANopen/Libraries/XMCLib/inc\xmc4_scu.h ****  *          \b Range: true - if temperature sensor is enabled.\n
1037:D:/Workspace/Development/my/DAVE/Infineon_CANopen/Libraries/XMCLib/inc\xmc4_scu.h ****  *                    false - if temperature sensor is disabled.
1038:D:/Workspace/Development/my/DAVE/Infineon_CANopen/Libraries/XMCLib/inc\xmc4_scu.h ****  *
1039:D:/Workspace/Development/my/DAVE/Infineon_CANopen/Libraries/XMCLib/inc\xmc4_scu.h ****  * \par<b>Description</b><br>
1040:D:/Workspace/Development/my/DAVE/Infineon_CANopen/Libraries/XMCLib/inc\xmc4_scu.h ****  * Provides the die temperature sensor power status.\n\n
1041:D:/Workspace/Development/my/DAVE/Infineon_CANopen/Libraries/XMCLib/inc\xmc4_scu.h ****  * The status is obtained by reading the PWD bit of DTSCON register.
1042:D:/Workspace/Development/my/DAVE/Infineon_CANopen/Libraries/XMCLib/inc\xmc4_scu.h ****  * \par<b>Related APIs:</b><BR>
1043:D:/Workspace/Development/my/DAVE/Infineon_CANopen/Libraries/XMCLib/inc\xmc4_scu.h ****  * XMC_SCU_EnableTemperatureSensor(), XMC_SCU_CalibrateTemperatureSensor(),
1044:D:/Workspace/Development/my/DAVE/Infineon_CANopen/Libraries/XMCLib/inc\xmc4_scu.h ****  * XMC_SCU_StartTemperatureMeasurement(), XMC_SCU_GetTemperatureMeasurement() \n\n\n
1045:D:/Workspace/Development/my/DAVE/Infineon_CANopen/Libraries/XMCLib/inc\xmc4_scu.h ****  */
1046:D:/Workspace/Development/my/DAVE/Infineon_CANopen/Libraries/XMCLib/inc\xmc4_scu.h **** bool XMC_SCU_IsTemperatureSensorEnabled(void);
1047:D:/Workspace/Development/my/DAVE/Infineon_CANopen/Libraries/XMCLib/inc\xmc4_scu.h **** 
1048:D:/Workspace/Development/my/DAVE/Infineon_CANopen/Libraries/XMCLib/inc\xmc4_scu.h **** /**
1049:D:/Workspace/Development/my/DAVE/Infineon_CANopen/Libraries/XMCLib/inc\xmc4_scu.h ****  *
1050:D:/Workspace/Development/my/DAVE/Infineon_CANopen/Libraries/XMCLib/inc\xmc4_scu.h ****  * @param offset  Offset value for calibrating the DTS result.\n
1051:D:/Workspace/Development/my/DAVE/Infineon_CANopen/Libraries/XMCLib/inc\xmc4_scu.h ****  *                \b Range: 0 to 127.
1052:D:/Workspace/Development/my/DAVE/Infineon_CANopen/Libraries/XMCLib/inc\xmc4_scu.h ****  * @param gain    Gain value for calibrating the DTS conversion result.\n
1053:D:/Workspace/Development/my/DAVE/Infineon_CANopen/Libraries/XMCLib/inc\xmc4_scu.h ****  *                \b Range: 0 to 63.
1054:D:/Workspace/Development/my/DAVE/Infineon_CANopen/Libraries/XMCLib/inc\xmc4_scu.h ****  *
1055:D:/Workspace/Development/my/DAVE/Infineon_CANopen/Libraries/XMCLib/inc\xmc4_scu.h ****  * @return None
1056:D:/Workspace/Development/my/DAVE/Infineon_CANopen/Libraries/XMCLib/inc\xmc4_scu.h ****  *
1057:D:/Workspace/Development/my/DAVE/Infineon_CANopen/Libraries/XMCLib/inc\xmc4_scu.h ****  * \par<b>Description</b><br>
1058:D:/Workspace/Development/my/DAVE/Infineon_CANopen/Libraries/XMCLib/inc\xmc4_scu.h ****  * Calibrates the measurement of temperature by configuring the values of offset and gain of \a DTS
1059:D:/Workspace/Development/my/DAVE/Infineon_CANopen/Libraries/XMCLib/inc\xmc4_scu.h ****  * Allows to improve the accuracy of the temperature measurement with the adjustment of \a OFFSET a
1060:D:/Workspace/Development/my/DAVE/Infineon_CANopen/Libraries/XMCLib/inc\xmc4_scu.h ****  * in the \a DTSCON register.
1061:D:/Workspace/Development/my/DAVE/Infineon_CANopen/Libraries/XMCLib/inc\xmc4_scu.h ****  * Offset adjustment is defined as a shift of the conversion result. The range of the offset adjust
1062:D:/Workspace/Development/my/DAVE/Infineon_CANopen/Libraries/XMCLib/inc\xmc4_scu.h ****  * resolution that corresponds to +/- 12.5C. The offset value gets added to the measure result.
1063:D:/Workspace/Development/my/DAVE/Infineon_CANopen/Libraries/XMCLib/inc\xmc4_scu.h ****  * Offset is considered as a signed value.
1064:D:/Workspace/Development/my/DAVE/Infineon_CANopen/Libraries/XMCLib/inc\xmc4_scu.h ****  * Gain adjustment helps in minimizing gain error. When the \a gain value is 0, result is generated
1065:D:/Workspace/Development/my/DAVE/Infineon_CANopen/Libraries/XMCLib/inc\xmc4_scu.h ****  * When the \a gain value is 63, result is generated with least gain, i.e, \a RESULT - 63 at the hi
1066:D:/Workspace/Development/my/DAVE/Infineon_CANopen/Libraries/XMCLib/inc\xmc4_scu.h ****  * It is recommended to use following steps:\n
1067:D:/Workspace/Development/my/DAVE/Infineon_CANopen/Libraries/XMCLib/inc\xmc4_scu.h ****  * - Call \a XMC_SCU_StopTempMeasurement to stop temperature measurement if it was started previous
1068:D:/Workspace/Development/my/DAVE/Infineon_CANopen/Libraries/XMCLib/inc\xmc4_scu.h ****  * - Call \a XMC_SCU_CalibrateTempMonitor with desired offset and gain calibration values to the DT
1069:D:/Workspace/Development/my/DAVE/Infineon_CANopen/Libraries/XMCLib/inc\xmc4_scu.h ****  * - Call \a XMC_SCU_SetRawTempLimits with desired lower and upper temperature threshold limit valu
1070:D:/Workspace/Development/my/DAVE/Infineon_CANopen/Libraries/XMCLib/inc\xmc4_scu.h ****  * - Call \a XMC_SCU_StartTempMeasurement to start temperature measurement.\n
1071:D:/Workspace/Development/my/DAVE/Infineon_CANopen/Libraries/XMCLib/inc\xmc4_scu.h ****  * - Check whether Die Temperature Sensor (DTS) is busy in conversion by calling \a XMC_SCU_IsTempe
1072:D:/Workspace/Development/my/DAVE/Infineon_CANopen/Libraries/XMCLib/inc\xmc4_scu.h ****  * conversion complete.\n
1073:D:/Workspace/Development/my/DAVE/Infineon_CANopen/Libraries/XMCLib/inc\xmc4_scu.h ****  * - Read the die temperature value using \a XMC_SCU_GetTemperatureMeasurement API.
1074:D:/Workspace/Development/my/DAVE/Infineon_CANopen/Libraries/XMCLib/inc\xmc4_scu.h ****  * \par<b>Related APIs:</b><BR>
1075:D:/Workspace/Development/my/DAVE/Infineon_CANopen/Libraries/XMCLib/inc\xmc4_scu.h ****  * XMC_SCU_EnableTemperatureSensor(),
1076:D:/Workspace/Development/my/DAVE/Infineon_CANopen/Libraries/XMCLib/inc\xmc4_scu.h ****  * XMC_SCU_StartTemperatureMeasurement(), XMC_SCU_GetTemperatureMeasurement() \n\n\n
1077:D:/Workspace/Development/my/DAVE/Infineon_CANopen/Libraries/XMCLib/inc\xmc4_scu.h ****  */
1078:D:/Workspace/Development/my/DAVE/Infineon_CANopen/Libraries/XMCLib/inc\xmc4_scu.h **** void XMC_SCU_CalibrateTemperatureSensor(uint32_t offset, uint32_t gain);
1079:D:/Workspace/Development/my/DAVE/Infineon_CANopen/Libraries/XMCLib/inc\xmc4_scu.h **** 
1080:D:/Workspace/Development/my/DAVE/Infineon_CANopen/Libraries/XMCLib/inc\xmc4_scu.h **** /**
1081:D:/Workspace/Development/my/DAVE/Infineon_CANopen/Libraries/XMCLib/inc\xmc4_scu.h ****  * @return XMC_SCU_STATUS_t  Result of starting the temperature measurement.\n
1082:D:/Workspace/Development/my/DAVE/Infineon_CANopen/Libraries/XMCLib/inc\xmc4_scu.h ****  *                           \b Range: \n
1083:D:/Workspace/Development/my/DAVE/Infineon_CANopen/Libraries/XMCLib/inc\xmc4_scu.h ****  *                              XMC_SCU_STATUS_OK if the measurement is started successfully.\n
1084:D:/Workspace/Development/my/DAVE/Infineon_CANopen/Libraries/XMCLib/inc\xmc4_scu.h ****  *                              XMC_SCU_STATUS_ERROR if temperature sensor is not enabled.\n
1085:D:/Workspace/Development/my/DAVE/Infineon_CANopen/Libraries/XMCLib/inc\xmc4_scu.h ****  *                              XMC_SCU_STATUS_BUSY if temperature sensor is busy measuring the tem
1086:D:/Workspace/Development/my/DAVE/Infineon_CANopen/Libraries/XMCLib/inc\xmc4_scu.h ****  *
1087:D:/Workspace/Development/my/DAVE/Infineon_CANopen/Libraries/XMCLib/inc\xmc4_scu.h ****  *
1088:D:/Workspace/Development/my/DAVE/Infineon_CANopen/Libraries/XMCLib/inc\xmc4_scu.h ****  * \par<b>Description</b><br>
1089:D:/Workspace/Development/my/DAVE/Infineon_CANopen/Libraries/XMCLib/inc\xmc4_scu.h ****  * Starts die temperature measurement using internal temperature sensor.\n\n
1090:D:/Workspace/Development/my/DAVE/Infineon_CANopen/Libraries/XMCLib/inc\xmc4_scu.h ****  * The API checks if the temperature sensor is enabled and is not busy in measurement.\n
1091:D:/Workspace/Development/my/DAVE/Infineon_CANopen/Libraries/XMCLib/inc\xmc4_scu.h ****  * It is recommended to use following steps:\n
1092:D:/Workspace/Development/my/DAVE/Infineon_CANopen/Libraries/XMCLib/inc\xmc4_scu.h ****  * - Call \a XMC_SCU_StopTempMeasurement to stop temperature measurement if it was started previous
1093:D:/Workspace/Development/my/DAVE/Infineon_CANopen/Libraries/XMCLib/inc\xmc4_scu.h ****  * - Call \a XMC_SCU_SetRawTempLimits with desired lower and upper temperature threshold limit valu
1094:D:/Workspace/Development/my/DAVE/Infineon_CANopen/Libraries/XMCLib/inc\xmc4_scu.h ****  * - Call \a XMC_SCU_StartTempMeasurement to start temperature measurement.\n
1095:D:/Workspace/Development/my/DAVE/Infineon_CANopen/Libraries/XMCLib/inc\xmc4_scu.h ****  * - Check whether Die Temperature Sensor (DTS) is busy in conversion by calling \a XMC_SCU_IsTempe
1096:D:/Workspace/Development/my/DAVE/Infineon_CANopen/Libraries/XMCLib/inc\xmc4_scu.h ****  * conversion complete.\n
1097:D:/Workspace/Development/my/DAVE/Infineon_CANopen/Libraries/XMCLib/inc\xmc4_scu.h ****  * - Read the die temperature value using \a XMC_SCU_GetTemperatureMeasurement API.
1098:D:/Workspace/Development/my/DAVE/Infineon_CANopen/Libraries/XMCLib/inc\xmc4_scu.h ****  * \par<b>Related APIs:</b><BR>
1099:D:/Workspace/Development/my/DAVE/Infineon_CANopen/Libraries/XMCLib/inc\xmc4_scu.h ****  * XMC_SCU_EnableTemperatureSensor(), XMC_SCU_CalibrateTemperatureSensor(),
1100:D:/Workspace/Development/my/DAVE/Infineon_CANopen/Libraries/XMCLib/inc\xmc4_scu.h ****  * XMC_SCU_GetTemperatureMeasurement() \n\n\n
1101:D:/Workspace/Development/my/DAVE/Infineon_CANopen/Libraries/XMCLib/inc\xmc4_scu.h ****  */
1102:D:/Workspace/Development/my/DAVE/Infineon_CANopen/Libraries/XMCLib/inc\xmc4_scu.h **** XMC_SCU_STATUS_t XMC_SCU_StartTemperatureMeasurement(void);
1103:D:/Workspace/Development/my/DAVE/Infineon_CANopen/Libraries/XMCLib/inc\xmc4_scu.h **** 
1104:D:/Workspace/Development/my/DAVE/Infineon_CANopen/Libraries/XMCLib/inc\xmc4_scu.h **** 
1105:D:/Workspace/Development/my/DAVE/Infineon_CANopen/Libraries/XMCLib/inc\xmc4_scu.h **** /**
1106:D:/Workspace/Development/my/DAVE/Infineon_CANopen/Libraries/XMCLib/inc\xmc4_scu.h ****  *
1107:D:/Workspace/Development/my/DAVE/Infineon_CANopen/Libraries/XMCLib/inc\xmc4_scu.h ****  * @return uint32_t  Measured temperature value.\n
1108:D:/Workspace/Development/my/DAVE/Infineon_CANopen/Libraries/XMCLib/inc\xmc4_scu.h ****  *              \b Range: Valid temperature range is 0 to 1023. \n
1109:D:/Workspace/Development/my/DAVE/Infineon_CANopen/Libraries/XMCLib/inc\xmc4_scu.h ****  *              If sensor is not enabled, 0x7FFFFFFFH is returned.
1110:D:/Workspace/Development/my/DAVE/Infineon_CANopen/Libraries/XMCLib/inc\xmc4_scu.h ****  *
1111:D:/Workspace/Development/my/DAVE/Infineon_CANopen/Libraries/XMCLib/inc\xmc4_scu.h ****  * \par<b>Description</b><br>
1112:D:/Workspace/Development/my/DAVE/Infineon_CANopen/Libraries/XMCLib/inc\xmc4_scu.h ****  * Reads the measured value of die temperature.\n\n
1113:D:/Workspace/Development/my/DAVE/Infineon_CANopen/Libraries/XMCLib/inc\xmc4_scu.h ****  * Temperature measurement result is read from \a RESULT bit field of \a DTSSTAT register.
1114:D:/Workspace/Development/my/DAVE/Infineon_CANopen/Libraries/XMCLib/inc\xmc4_scu.h ****  * The temperature measured in C is given by (RESULT - 605) / 2.05 [C]
1115:D:/Workspace/Development/my/DAVE/Infineon_CANopen/Libraries/XMCLib/inc\xmc4_scu.h ****  * \par<b>Related APIs:</b><BR>
1116:D:/Workspace/Development/my/DAVE/Infineon_CANopen/Libraries/XMCLib/inc\xmc4_scu.h ****  * XMC_SCU_IsTemperatureSensorBusy() \n\n\n
1117:D:/Workspace/Development/my/DAVE/Infineon_CANopen/Libraries/XMCLib/inc\xmc4_scu.h ****  */
1118:D:/Workspace/Development/my/DAVE/Infineon_CANopen/Libraries/XMCLib/inc\xmc4_scu.h **** uint32_t XMC_SCU_GetTemperatureMeasurement(void);
1119:D:/Workspace/Development/my/DAVE/Infineon_CANopen/Libraries/XMCLib/inc\xmc4_scu.h **** 
1120:D:/Workspace/Development/my/DAVE/Infineon_CANopen/Libraries/XMCLib/inc\xmc4_scu.h **** /**
1121:D:/Workspace/Development/my/DAVE/Infineon_CANopen/Libraries/XMCLib/inc\xmc4_scu.h ****  * @return bool  Indicates if the die temperature sensor is busy.\n
1122:D:/Workspace/Development/my/DAVE/Infineon_CANopen/Libraries/XMCLib/inc\xmc4_scu.h ****  *                    \b Range: \a true if sensor is busy in temperature measurement.
1123:D:/Workspace/Development/my/DAVE/Infineon_CANopen/Libraries/XMCLib/inc\xmc4_scu.h ****  *                    \a false if sensor is free and can accept a new request for measurement.
1124:D:/Workspace/Development/my/DAVE/Infineon_CANopen/Libraries/XMCLib/inc\xmc4_scu.h ****  *
1125:D:/Workspace/Development/my/DAVE/Infineon_CANopen/Libraries/XMCLib/inc\xmc4_scu.h ****  * \par<b>Description</b><br>
1126:D:/Workspace/Development/my/DAVE/Infineon_CANopen/Libraries/XMCLib/inc\xmc4_scu.h ****  * Checks whether Die Temperature Sensor (DTS) is busy in temperature measurement.\n\n
1127:D:/Workspace/Development/my/DAVE/Infineon_CANopen/Libraries/XMCLib/inc\xmc4_scu.h ****  * The status is read from the \a BUSY bit field of the \a DTSSTAT register.
1128:D:/Workspace/Development/my/DAVE/Infineon_CANopen/Libraries/XMCLib/inc\xmc4_scu.h ****  * \par<b>Related APIs:</b><BR>
1129:D:/Workspace/Development/my/DAVE/Infineon_CANopen/Libraries/XMCLib/inc\xmc4_scu.h ****  * XMC_SCU_GetTemperatureMeasurement() \n\n\n
1130:D:/Workspace/Development/my/DAVE/Infineon_CANopen/Libraries/XMCLib/inc\xmc4_scu.h ****  */
1131:D:/Workspace/Development/my/DAVE/Infineon_CANopen/Libraries/XMCLib/inc\xmc4_scu.h **** bool XMC_SCU_IsTemperatureSensorBusy(void);
1132:D:/Workspace/Development/my/DAVE/Infineon_CANopen/Libraries/XMCLib/inc\xmc4_scu.h **** 
1133:D:/Workspace/Development/my/DAVE/Infineon_CANopen/Libraries/XMCLib/inc\xmc4_scu.h **** /**
1134:D:/Workspace/Development/my/DAVE/Infineon_CANopen/Libraries/XMCLib/inc\xmc4_scu.h ****  * @return bool Status of die temperature sensor whether it is ready to start measurement. \n
1135:D:/Workspace/Development/my/DAVE/Infineon_CANopen/Libraries/XMCLib/inc\xmc4_scu.h ****  *          \b Range: \n \a true if temperature sensor is ready to start measurement. \n
1136:D:/Workspace/Development/my/DAVE/Infineon_CANopen/Libraries/XMCLib/inc\xmc4_scu.h ****  *          \a false if temperature sensor is not ready to start measurement.
1137:D:/Workspace/Development/my/DAVE/Infineon_CANopen/Libraries/XMCLib/inc\xmc4_scu.h ****  *
1138:D:/Workspace/Development/my/DAVE/Infineon_CANopen/Libraries/XMCLib/inc\xmc4_scu.h ****  * \par<b>Description</b><br>
1139:D:/Workspace/Development/my/DAVE/Infineon_CANopen/Libraries/XMCLib/inc\xmc4_scu.h ****  * Checks if the die temperature sensor is ready to start a measurement\n\n
1140:D:/Workspace/Development/my/DAVE/Infineon_CANopen/Libraries/XMCLib/inc\xmc4_scu.h ****  * The status is obtained by reading \a RDY bit of \a DTSSTAT register. It is recommended
1141:D:/Workspace/Development/my/DAVE/Infineon_CANopen/Libraries/XMCLib/inc\xmc4_scu.h ****  * to check the ready status of die temperature sensor before starting it.
