   1              	 .syntax unified
   2              	 .cpu cortex-m4
   3              	 .eabi_attribute 27,3
   4              	 .fpu fpv4-sp-d16
   5              	 .eabi_attribute 20,1
   6              	 .eabi_attribute 21,1
   7              	 .eabi_attribute 23,3
   8              	 .eabi_attribute 24,1
   9              	 .eabi_attribute 25,1
  10              	 .eabi_attribute 26,1
  11              	 .eabi_attribute 30,6
  12              	 .eabi_attribute 34,1
  13              	 .eabi_attribute 18,4
  14              	 .thumb
  15              	 .file "xmc_dsd.c"
  16              	 .text
  17              	.Ltext0:
  18              	 .cfi_sections .debug_frame
  19              	 .section .text.XMC_DSD_Enable,"ax",%progbits
  20              	 .align 2
  21              	 .global XMC_DSD_Enable
  22              	 .thumb
  23              	 .thumb_func
  25              	XMC_DSD_Enable:
  26              	.LFB192:
  27              	 .file 1 "../Libraries/XMCLib/src/xmc_dsd.c"
   1:../Libraries/XMCLib/src/xmc_dsd.c **** /**
   2:../Libraries/XMCLib/src/xmc_dsd.c ****  * @file xmc_dsd.c
   3:../Libraries/XMCLib/src/xmc_dsd.c ****  * @date 2019-05-07
   4:../Libraries/XMCLib/src/xmc_dsd.c ****  *
   5:../Libraries/XMCLib/src/xmc_dsd.c ****  * @cond
   6:../Libraries/XMCLib/src/xmc_dsd.c ****  *****************************************************************************
   7:../Libraries/XMCLib/src/xmc_dsd.c ****  * XMClib v2.2.0 - XMC Peripheral Driver Library
   8:../Libraries/XMCLib/src/xmc_dsd.c ****  *
   9:../Libraries/XMCLib/src/xmc_dsd.c ****  * Copyright (c) 2015-2020, Infineon Technologies AG
  10:../Libraries/XMCLib/src/xmc_dsd.c ****  * All rights reserved.
  11:../Libraries/XMCLib/src/xmc_dsd.c ****  *
  12:../Libraries/XMCLib/src/xmc_dsd.c ****  * Boost Software License - Version 1.0 - August 17th, 2003
  13:../Libraries/XMCLib/src/xmc_dsd.c ****  *
  14:../Libraries/XMCLib/src/xmc_dsd.c ****  * Permission is hereby granted, free of charge, to any person or organization
  15:../Libraries/XMCLib/src/xmc_dsd.c ****  * obtaining a copy of the software and accompanying documentation covered by
  16:../Libraries/XMCLib/src/xmc_dsd.c ****  * this license (the "Software") to use, reproduce, display, distribute,
  17:../Libraries/XMCLib/src/xmc_dsd.c ****  * execute, and transmit the Software, and to prepare derivative works of the
  18:../Libraries/XMCLib/src/xmc_dsd.c ****  * Software, and to permit third-parties to whom the Software is furnished to
  19:../Libraries/XMCLib/src/xmc_dsd.c ****  * do so, all subject to the following:
  20:../Libraries/XMCLib/src/xmc_dsd.c ****  *
  21:../Libraries/XMCLib/src/xmc_dsd.c ****  * The copyright notices in the Software and this entire statement, including
  22:../Libraries/XMCLib/src/xmc_dsd.c ****  * the above license grant, this restriction and the following disclaimer,
  23:../Libraries/XMCLib/src/xmc_dsd.c ****  * must be included in all copies of the Software, in whole or in part, and
  24:../Libraries/XMCLib/src/xmc_dsd.c ****  * all derivative works of the Software, unless such copies or derivative
  25:../Libraries/XMCLib/src/xmc_dsd.c ****  * works are solely in the form of machine-executable object code generated by
  26:../Libraries/XMCLib/src/xmc_dsd.c ****  * a source language processor.
  27:../Libraries/XMCLib/src/xmc_dsd.c ****  *
  28:../Libraries/XMCLib/src/xmc_dsd.c ****  * THE SOFTWARE IS PROVIDED "AS IS", WITHOUT WARRANTY OF ANY KIND, EXPRESS OR
  29:../Libraries/XMCLib/src/xmc_dsd.c ****  * IMPLIED, INCLUDING BUT NOT LIMITED TO THE WARRANTIES OF MERCHANTABILITY,
  30:../Libraries/XMCLib/src/xmc_dsd.c ****  * FITNESS FOR A PARTICULAR PURPOSE, TITLE AND NON-INFRINGEMENT. IN NO EVENT
  31:../Libraries/XMCLib/src/xmc_dsd.c ****  * SHALL THE COPYRIGHT HOLDERS OR ANYONE DISTRIBUTING THE SOFTWARE BE LIABLE
  32:../Libraries/XMCLib/src/xmc_dsd.c ****  * FOR ANY DAMAGES OR OTHER LIABILITY, WHETHER IN CONTRACT, TORT OR OTHERWISE,
  33:../Libraries/XMCLib/src/xmc_dsd.c ****  * ARISING FROM, OUT OF OR IN CONNECTION WITH THE SOFTWARE OR THE USE OR OTHER
  34:../Libraries/XMCLib/src/xmc_dsd.c ****  * DEALINGS IN THE SOFTWARE.
  35:../Libraries/XMCLib/src/xmc_dsd.c ****  *
  36:../Libraries/XMCLib/src/xmc_dsd.c ****  * To improve the quality of the software, users are encouraged to share
  37:../Libraries/XMCLib/src/xmc_dsd.c ****  * modifications, enhancements or bug fixes with Infineon Technologies AG
  38:../Libraries/XMCLib/src/xmc_dsd.c ****  * at XMCSupport@infineon.com.
  39:../Libraries/XMCLib/src/xmc_dsd.c ****  *****************************************************************************
  40:../Libraries/XMCLib/src/xmc_dsd.c ****  *
  41:../Libraries/XMCLib/src/xmc_dsd.c ****  * Change History
  42:../Libraries/XMCLib/src/xmc_dsd.c ****  * --------------
  43:../Libraries/XMCLib/src/xmc_dsd.c ****  *
  44:../Libraries/XMCLib/src/xmc_dsd.c ****  * 2015-03-30:
  45:../Libraries/XMCLib/src/xmc_dsd.c ****  *     - Initial version
  46:../Libraries/XMCLib/src/xmc_dsd.c ****  *
  47:../Libraries/XMCLib/src/xmc_dsd.c ****  * 2015-06-19:
  48:../Libraries/XMCLib/src/xmc_dsd.c ****  *     - Removed GetDriverVersion API <BR>
  49:../Libraries/XMCLib/src/xmc_dsd.c ****  *
  50:../Libraries/XMCLib/src/xmc_dsd.c ****  * 2015-09-18:
  51:../Libraries/XMCLib/src/xmc_dsd.c ****  *     - Support added for XMC4800 microcontroller family <BR>
  52:../Libraries/XMCLib/src/xmc_dsd.c ****  *
  53:../Libraries/XMCLib/src/xmc_dsd.c ****  * 2019-05-07:
  54:../Libraries/XMCLib/src/xmc_dsd.c ****  *     - Fixed compilation warnings
  55:../Libraries/XMCLib/src/xmc_dsd.c ****  *
  56:../Libraries/XMCLib/src/xmc_dsd.c ****  * @endcond
  57:../Libraries/XMCLib/src/xmc_dsd.c ****  *
  58:../Libraries/XMCLib/src/xmc_dsd.c ****  */
  59:../Libraries/XMCLib/src/xmc_dsd.c **** 
  60:../Libraries/XMCLib/src/xmc_dsd.c **** /**************************************************************************************************
  61:../Libraries/XMCLib/src/xmc_dsd.c ****  * HEADER FILES
  62:../Libraries/XMCLib/src/xmc_dsd.c ****  **************************************************************************************************
  63:../Libraries/XMCLib/src/xmc_dsd.c **** #include "xmc_dsd.h"
  64:../Libraries/XMCLib/src/xmc_dsd.c **** 
  65:../Libraries/XMCLib/src/xmc_dsd.c **** #if defined(DSD)
  66:../Libraries/XMCLib/src/xmc_dsd.c **** 
  67:../Libraries/XMCLib/src/xmc_dsd.c **** /**************************************************************************************************
  68:../Libraries/XMCLib/src/xmc_dsd.c ****  * MACROS
  69:../Libraries/XMCLib/src/xmc_dsd.c ****  **************************************************************************************************
  70:../Libraries/XMCLib/src/xmc_dsd.c **** 
  71:../Libraries/XMCLib/src/xmc_dsd.c **** #define XMC_DSD_MIN_FILTER_START  (4U)
  72:../Libraries/XMCLib/src/xmc_dsd.c **** #define XMC_DSD_MIN_DECIMATION_FACTOR (4U)
  73:../Libraries/XMCLib/src/xmc_dsd.c **** #define XMC_DSD_MAX_DECIMATION_FACTOR (256U)
  74:../Libraries/XMCLib/src/xmc_dsd.c **** #define XMC_DSD_MAX_DECIMATION_FACTOR_AUX (32U)
  75:../Libraries/XMCLib/src/xmc_dsd.c **** 
  76:../Libraries/XMCLib/src/xmc_dsd.c **** /**************************************************************************************************
  77:../Libraries/XMCLib/src/xmc_dsd.c ****  * API IMPLEMENTATION
  78:../Libraries/XMCLib/src/xmc_dsd.c ****  **************************************************************************************************
  79:../Libraries/XMCLib/src/xmc_dsd.c **** 
  80:../Libraries/XMCLib/src/xmc_dsd.c **** /*Enable the DSD Module*/
  81:../Libraries/XMCLib/src/xmc_dsd.c **** void XMC_DSD_Enable(XMC_DSD_t *const dsd)
  82:../Libraries/XMCLib/src/xmc_dsd.c **** {
  28              	 .loc 1 82 0
  29              	 .cfi_startproc
  30              	 
  31              	 
  32 0000 80B5     	 push {r7,lr}
  33              	.LCFI0:
  34              	 .cfi_def_cfa_offset 8
  35              	 .cfi_offset 7,-8
  36              	 .cfi_offset 14,-4
  37 0002 82B0     	 sub sp,sp,#8
  38              	.LCFI1:
  39              	 .cfi_def_cfa_offset 16
  40 0004 00AF     	 add r7,sp,#0
  41              	.LCFI2:
  42              	 .cfi_def_cfa_register 7
  43 0006 7860     	 str r0,[r7,#4]
  83:../Libraries/XMCLib/src/xmc_dsd.c ****   XMC_ASSERT("XMC_DSD_Enable:Invalid module pointer", XMC_DSD_CHECK_MODULE_PTR(dsd));
  84:../Libraries/XMCLib/src/xmc_dsd.c ****   XMC_UNUSED_ARG(dsd);
  85:../Libraries/XMCLib/src/xmc_dsd.c **** 
  86:../Libraries/XMCLib/src/xmc_dsd.c **** #if defined(CLOCK_GATING_SUPPORTED)
  87:../Libraries/XMCLib/src/xmc_dsd.c ****   XMC_SCU_CLOCK_UngatePeripheralClock(XMC_SCU_PERIPHERAL_CLOCK_DSD);
  44              	 .loc 1 87 0
  45 0008 0220     	 movs r0,#2
  46 000a FFF7FEFF 	 bl XMC_SCU_CLOCK_UngatePeripheralClock
  88:../Libraries/XMCLib/src/xmc_dsd.c **** #endif
  89:../Libraries/XMCLib/src/xmc_dsd.c ****   XMC_SCU_RESET_DeassertPeripheralReset(XMC_SCU_PERIPHERAL_RESET_DSD);
  47              	 .loc 1 89 0
  48 000e 0220     	 movs r0,#2
  49 0010 FFF7FEFF 	 bl XMC_SCU_RESET_DeassertPeripheralReset
  90:../Libraries/XMCLib/src/xmc_dsd.c **** }
  50              	 .loc 1 90 0
  51 0014 0837     	 adds r7,r7,#8
  52              	.LCFI3:
  53              	 .cfi_def_cfa_offset 8
  54 0016 BD46     	 mov sp,r7
  55              	.LCFI4:
  56              	 .cfi_def_cfa_register 13
  57              	 
  58 0018 80BD     	 pop {r7,pc}
  59              	 .cfi_endproc
  60              	.LFE192:
  62 001a 00BF     	 .section .text.XMC_DSD_Disable,"ax",%progbits
  63              	 .align 2
  64              	 .global XMC_DSD_Disable
  65              	 .thumb
  66              	 .thumb_func
  68              	XMC_DSD_Disable:
  69              	.LFB193:
  91:../Libraries/XMCLib/src/xmc_dsd.c **** 
  92:../Libraries/XMCLib/src/xmc_dsd.c **** /*Disable the DSD Module*/
  93:../Libraries/XMCLib/src/xmc_dsd.c **** void XMC_DSD_Disable(XMC_DSD_t *const dsd)
  94:../Libraries/XMCLib/src/xmc_dsd.c **** {
  70              	 .loc 1 94 0
  71              	 .cfi_startproc
  72              	 
  73              	 
  74 0000 80B5     	 push {r7,lr}
  75              	.LCFI5:
  76              	 .cfi_def_cfa_offset 8
  77              	 .cfi_offset 7,-8
  78              	 .cfi_offset 14,-4
  79 0002 82B0     	 sub sp,sp,#8
  80              	.LCFI6:
  81              	 .cfi_def_cfa_offset 16
  82 0004 00AF     	 add r7,sp,#0
  83              	.LCFI7:
  84              	 .cfi_def_cfa_register 7
  85 0006 7860     	 str r0,[r7,#4]
  95:../Libraries/XMCLib/src/xmc_dsd.c ****   XMC_ASSERT("XMC_DSD_Disable:Invalid module pointer", XMC_DSD_CHECK_MODULE_PTR(dsd));
  96:../Libraries/XMCLib/src/xmc_dsd.c ****   XMC_UNUSED_ARG(dsd);
  97:../Libraries/XMCLib/src/xmc_dsd.c **** 
  98:../Libraries/XMCLib/src/xmc_dsd.c ****   XMC_SCU_RESET_AssertPeripheralReset(XMC_SCU_PERIPHERAL_RESET_DSD);
  86              	 .loc 1 98 0
  87 0008 0220     	 movs r0,#2
  88 000a FFF7FEFF 	 bl XMC_SCU_RESET_AssertPeripheralReset
  99:../Libraries/XMCLib/src/xmc_dsd.c **** #if defined(CLOCK_GATING_SUPPORTED)
 100:../Libraries/XMCLib/src/xmc_dsd.c ****   XMC_SCU_CLOCK_GatePeripheralClock(XMC_SCU_PERIPHERAL_CLOCK_DSD);
  89              	 .loc 1 100 0
  90 000e 0220     	 movs r0,#2
  91 0010 FFF7FEFF 	 bl XMC_SCU_CLOCK_GatePeripheralClock
 101:../Libraries/XMCLib/src/xmc_dsd.c **** #endif
 102:../Libraries/XMCLib/src/xmc_dsd.c **** }
  92              	 .loc 1 102 0
  93 0014 0837     	 adds r7,r7,#8
  94              	.LCFI8:
  95              	 .cfi_def_cfa_offset 8
  96 0016 BD46     	 mov sp,r7
  97              	.LCFI9:
  98              	 .cfi_def_cfa_register 13
  99              	 
 100 0018 80BD     	 pop {r7,pc}
 101              	 .cfi_endproc
 102              	.LFE193:
 104 001a 00BF     	 .section .text.XMC_DSD_EnableClock,"ax",%progbits
 105              	 .align 2
 106              	 .global XMC_DSD_EnableClock
 107              	 .thumb
 108              	 .thumb_func
 110              	XMC_DSD_EnableClock:
 111              	.LFB194:
 103:../Libraries/XMCLib/src/xmc_dsd.c **** 
 104:../Libraries/XMCLib/src/xmc_dsd.c **** /* Enable the module clock*/
 105:../Libraries/XMCLib/src/xmc_dsd.c **** void XMC_DSD_EnableClock(XMC_DSD_t *const dsd)
 106:../Libraries/XMCLib/src/xmc_dsd.c **** {
 112              	 .loc 1 106 0
 113              	 .cfi_startproc
 114              	 
 115              	 
 116              	 
 117 0000 80B4     	 push {r7}
 118              	.LCFI10:
 119              	 .cfi_def_cfa_offset 4
 120              	 .cfi_offset 7,-4
 121 0002 83B0     	 sub sp,sp,#12
 122              	.LCFI11:
 123              	 .cfi_def_cfa_offset 16
 124 0004 00AF     	 add r7,sp,#0
 125              	.LCFI12:
 126              	 .cfi_def_cfa_register 7
 127 0006 7860     	 str r0,[r7,#4]
 107:../Libraries/XMCLib/src/xmc_dsd.c ****   XMC_ASSERT("XMC_DSD_EnableClock:Invalid module pointer", XMC_DSD_CHECK_MODULE_PTR(dsd));
 108:../Libraries/XMCLib/src/xmc_dsd.c ****   /* Enable the module clock */
 109:../Libraries/XMCLib/src/xmc_dsd.c ****   dsd->CLC &= ~(uint32_t)DSD_CLC_DISR_Msk;
 128              	 .loc 1 109 0
 129 0008 7B68     	 ldr r3,[r7,#4]
 130 000a 1B68     	 ldr r3,[r3]
 131 000c 23F00102 	 bic r2,r3,#1
 132 0010 7B68     	 ldr r3,[r7,#4]
 133 0012 1A60     	 str r2,[r3]
 110:../Libraries/XMCLib/src/xmc_dsd.c ****   /* enable internal module clock */
 111:../Libraries/XMCLib/src/xmc_dsd.c ****   dsd ->GLOBCFG |= (uint32_t)0x01;
 134              	 .loc 1 111 0
 135 0014 7B68     	 ldr r3,[r7,#4]
 136 0016 D3F88030 	 ldr r3,[r3,#128]
 137 001a 43F00102 	 orr r2,r3,#1
 138 001e 7B68     	 ldr r3,[r7,#4]
 139 0020 C3F88020 	 str r2,[r3,#128]
 112:../Libraries/XMCLib/src/xmc_dsd.c **** }
 140              	 .loc 1 112 0
 141 0024 0C37     	 adds r7,r7,#12
 142              	.LCFI13:
 143              	 .cfi_def_cfa_offset 4
 144 0026 BD46     	 mov sp,r7
 145              	.LCFI14:
 146              	 .cfi_def_cfa_register 13
 147              	 
 148 0028 5DF8047B 	 ldr r7,[sp],#4
 149              	.LCFI15:
 150              	 .cfi_restore 7
 151              	 .cfi_def_cfa_offset 0
 152 002c 7047     	 bx lr
 153              	 .cfi_endproc
 154              	.LFE194:
 156 002e 00BF     	 .section .text.XMC_DSD_DisableClock,"ax",%progbits
 157              	 .align 2
 158              	 .global XMC_DSD_DisableClock
 159              	 .thumb
 160              	 .thumb_func
 162              	XMC_DSD_DisableClock:
 163              	.LFB195:
 113:../Libraries/XMCLib/src/xmc_dsd.c **** 
 114:../Libraries/XMCLib/src/xmc_dsd.c **** void XMC_DSD_DisableClock(XMC_DSD_t *const dsd)
 115:../Libraries/XMCLib/src/xmc_dsd.c **** {
 164              	 .loc 1 115 0
 165              	 .cfi_startproc
 166              	 
 167              	 
 168              	 
 169 0000 80B4     	 push {r7}
 170              	.LCFI16:
 171              	 .cfi_def_cfa_offset 4
 172              	 .cfi_offset 7,-4
 173 0002 83B0     	 sub sp,sp,#12
 174              	.LCFI17:
 175              	 .cfi_def_cfa_offset 16
 176 0004 00AF     	 add r7,sp,#0
 177              	.LCFI18:
 178              	 .cfi_def_cfa_register 7
 179 0006 7860     	 str r0,[r7,#4]
 116:../Libraries/XMCLib/src/xmc_dsd.c ****   XMC_ASSERT("XMC_DSD_DisableClock:Invalid module pointer", XMC_DSD_CHECK_MODULE_PTR(dsd));
 117:../Libraries/XMCLib/src/xmc_dsd.c **** 
 118:../Libraries/XMCLib/src/xmc_dsd.c ****   /* disable internal module clock */
 119:../Libraries/XMCLib/src/xmc_dsd.c ****   dsd->GLOBCFG &= ~(uint32_t)DSD_GLOBCFG_MCSEL_Msk;
 180              	 .loc 1 119 0
 181 0008 7B68     	 ldr r3,[r7,#4]
 182 000a D3F88030 	 ldr r3,[r3,#128]
 183 000e 23F00702 	 bic r2,r3,#7
 184 0012 7B68     	 ldr r3,[r7,#4]
 185 0014 C3F88020 	 str r2,[r3,#128]
 120:../Libraries/XMCLib/src/xmc_dsd.c **** 
 121:../Libraries/XMCLib/src/xmc_dsd.c ****   /* stop the module clock */
 122:../Libraries/XMCLib/src/xmc_dsd.c ****   dsd->CLC |= (uint32_t)DSD_CLC_DISR_Msk;
 186              	 .loc 1 122 0
 187 0018 7B68     	 ldr r3,[r7,#4]
 188 001a 1B68     	 ldr r3,[r3]
 189 001c 43F00102 	 orr r2,r3,#1
 190 0020 7B68     	 ldr r3,[r7,#4]
 191 0022 1A60     	 str r2,[r3]
 123:../Libraries/XMCLib/src/xmc_dsd.c **** 
 124:../Libraries/XMCLib/src/xmc_dsd.c **** }
 192              	 .loc 1 124 0
 193 0024 0C37     	 adds r7,r7,#12
 194              	.LCFI19:
 195              	 .cfi_def_cfa_offset 4
 196 0026 BD46     	 mov sp,r7
 197              	.LCFI20:
 198              	 .cfi_def_cfa_register 13
 199              	 
 200 0028 5DF8047B 	 ldr r7,[sp],#4
 201              	.LCFI21:
 202              	 .cfi_restore 7
 203              	 .cfi_def_cfa_offset 0
 204 002c 7047     	 bx lr
 205              	 .cfi_endproc
 206              	.LFE195:
 208 002e 00BF     	 .section .text.XMC_DSD_Init,"ax",%progbits
 209              	 .align 2
 210              	 .global XMC_DSD_Init
 211              	 .thumb
 212              	 .thumb_func
 214              	XMC_DSD_Init:
 215              	.LFB196:
 125:../Libraries/XMCLib/src/xmc_dsd.c **** 
 126:../Libraries/XMCLib/src/xmc_dsd.c **** /* Enable the DSD module and clock */
 127:../Libraries/XMCLib/src/xmc_dsd.c **** void XMC_DSD_Init(XMC_DSD_t *const dsd)
 128:../Libraries/XMCLib/src/xmc_dsd.c **** {
 216              	 .loc 1 128 0
 217              	 .cfi_startproc
 218              	 
 219              	 
 220 0000 80B5     	 push {r7,lr}
 221              	.LCFI22:
 222              	 .cfi_def_cfa_offset 8
 223              	 .cfi_offset 7,-8
 224              	 .cfi_offset 14,-4
 225 0002 82B0     	 sub sp,sp,#8
 226              	.LCFI23:
 227              	 .cfi_def_cfa_offset 16
 228 0004 00AF     	 add r7,sp,#0
 229              	.LCFI24:
 230              	 .cfi_def_cfa_register 7
 231 0006 7860     	 str r0,[r7,#4]
 129:../Libraries/XMCLib/src/xmc_dsd.c ****   XMC_ASSERT("XMC_DSD_Init:Invalid module pointer", XMC_DSD_CHECK_MODULE_PTR(dsd));
 130:../Libraries/XMCLib/src/xmc_dsd.c ****   XMC_DSD_Enable(dsd);
 232              	 .loc 1 130 0
 233 0008 7868     	 ldr r0,[r7,#4]
 234 000a FFF7FEFF 	 bl XMC_DSD_Enable
 131:../Libraries/XMCLib/src/xmc_dsd.c ****   XMC_DSD_EnableClock(dsd);
 235              	 .loc 1 131 0
 236 000e 7868     	 ldr r0,[r7,#4]
 237 0010 FFF7FEFF 	 bl XMC_DSD_EnableClock
 132:../Libraries/XMCLib/src/xmc_dsd.c **** }
 238              	 .loc 1 132 0
 239 0014 0837     	 adds r7,r7,#8
 240              	.LCFI25:
 241              	 .cfi_def_cfa_offset 8
 242 0016 BD46     	 mov sp,r7
 243              	.LCFI26:
 244              	 .cfi_def_cfa_register 13
 245              	 
 246 0018 80BD     	 pop {r7,pc}
 247              	 .cfi_endproc
 248              	.LFE196:
 250 001a 00BF     	 .section .text.XMC_DSD_IsEnabled,"ax",%progbits
 251              	 .align 2
 252              	 .global XMC_DSD_IsEnabled
 253              	 .thumb
 254              	 .thumb_func
 256              	XMC_DSD_IsEnabled:
 257              	.LFB197:
 133:../Libraries/XMCLib/src/xmc_dsd.c **** 
 134:../Libraries/XMCLib/src/xmc_dsd.c **** bool XMC_DSD_IsEnabled(XMC_DSD_t *const dsd)
 135:../Libraries/XMCLib/src/xmc_dsd.c **** {
 258              	 .loc 1 135 0
 259              	 .cfi_startproc
 260              	 
 261              	 
 262 0000 80B5     	 push {r7,lr}
 263              	.LCFI27:
 264              	 .cfi_def_cfa_offset 8
 265              	 .cfi_offset 7,-8
 266              	 .cfi_offset 14,-4
 267 0002 84B0     	 sub sp,sp,#16
 268              	.LCFI28:
 269              	 .cfi_def_cfa_offset 24
 270 0004 00AF     	 add r7,sp,#0
 271              	.LCFI29:
 272              	 .cfi_def_cfa_register 7
 273 0006 7860     	 str r0,[r7,#4]
 136:../Libraries/XMCLib/src/xmc_dsd.c ****   bool status;
 137:../Libraries/XMCLib/src/xmc_dsd.c ****   XMC_ASSERT("XMC_DSD_Disable:Invalid module pointer", XMC_DSD_CHECK_MODULE_PTR(dsd));
 138:../Libraries/XMCLib/src/xmc_dsd.c ****   XMC_UNUSED_ARG(dsd);
 139:../Libraries/XMCLib/src/xmc_dsd.c **** 
 140:../Libraries/XMCLib/src/xmc_dsd.c **** #if ((UC_SERIES == XMC44) || (UC_SERIES == XMC48)||(UC_SERIES == XMC47))
 141:../Libraries/XMCLib/src/xmc_dsd.c ****   if (XMC_SCU_RESET_IsPeripheralResetAsserted(XMC_SCU_PERIPHERAL_RESET_DSD) == false)
 274              	 .loc 1 141 0
 275 0008 0220     	 movs r0,#2
 276 000a FFF7FEFF 	 bl XMC_SCU_RESET_IsPeripheralResetAsserted
 277 000e 0346     	 mov r3,r0
 278 0010 83F00103 	 eor r3,r3,#1
 279 0014 DBB2     	 uxtb r3,r3
 280 0016 002B     	 cmp r3,#0
 281 0018 0ED0     	 beq .L7
 142:../Libraries/XMCLib/src/xmc_dsd.c ****   {
 143:../Libraries/XMCLib/src/xmc_dsd.c ****     if (XMC_SCU_CLOCK_IsPeripheralClockGated(XMC_SCU_PERIPHERAL_CLOCK_DSD) == false)
 282              	 .loc 1 143 0
 283 001a 0220     	 movs r0,#2
 284 001c FFF7FEFF 	 bl XMC_SCU_CLOCK_IsPeripheralClockGated
 285 0020 0346     	 mov r3,r0
 286 0022 83F00103 	 eor r3,r3,#1
 287 0026 DBB2     	 uxtb r3,r3
 288 0028 002B     	 cmp r3,#0
 289 002a 02D0     	 beq .L8
 144:../Libraries/XMCLib/src/xmc_dsd.c ****     {
 145:../Libraries/XMCLib/src/xmc_dsd.c ****       status = true;
 290              	 .loc 1 145 0
 291 002c 0123     	 movs r3,#1
 292 002e FB73     	 strb r3,[r7,#15]
 293 0030 04E0     	 b .L10
 294              	.L8:
 146:../Libraries/XMCLib/src/xmc_dsd.c ****     }
 147:../Libraries/XMCLib/src/xmc_dsd.c ****     else
 148:../Libraries/XMCLib/src/xmc_dsd.c ****     {
 149:../Libraries/XMCLib/src/xmc_dsd.c ****       status = false;
 295              	 .loc 1 149 0
 296 0032 0023     	 movs r3,#0
 297 0034 FB73     	 strb r3,[r7,#15]
 298 0036 01E0     	 b .L10
 299              	.L7:
 150:../Libraries/XMCLib/src/xmc_dsd.c ****     }
 151:../Libraries/XMCLib/src/xmc_dsd.c ****   }
 152:../Libraries/XMCLib/src/xmc_dsd.c ****   else
 153:../Libraries/XMCLib/src/xmc_dsd.c ****   {
 154:../Libraries/XMCLib/src/xmc_dsd.c ****     status = false;
 300              	 .loc 1 154 0
 301 0038 0023     	 movs r3,#0
 302 003a FB73     	 strb r3,[r7,#15]
 303              	.L10:
 155:../Libraries/XMCLib/src/xmc_dsd.c ****   }
 156:../Libraries/XMCLib/src/xmc_dsd.c **** #else
 157:../Libraries/XMCLib/src/xmc_dsd.c ****   if (XMC_SCU_RESET_IsPeripheralResetAsserted(XMC_SCU_PERIPHERAL_RESET_DSD) == false)
 158:../Libraries/XMCLib/src/xmc_dsd.c ****   {
 159:../Libraries/XMCLib/src/xmc_dsd.c ****     status = true;
 160:../Libraries/XMCLib/src/xmc_dsd.c ****   }
 161:../Libraries/XMCLib/src/xmc_dsd.c ****   else
 162:../Libraries/XMCLib/src/xmc_dsd.c ****   {
 163:../Libraries/XMCLib/src/xmc_dsd.c ****     status = false;
 164:../Libraries/XMCLib/src/xmc_dsd.c ****   }
 165:../Libraries/XMCLib/src/xmc_dsd.c **** #endif
 166:../Libraries/XMCLib/src/xmc_dsd.c **** 
 167:../Libraries/XMCLib/src/xmc_dsd.c ****   return (status);
 304              	 .loc 1 167 0
 305 003c FB7B     	 ldrb r3,[r7,#15]
 168:../Libraries/XMCLib/src/xmc_dsd.c **** }
 306              	 .loc 1 168 0
 307 003e 1846     	 mov r0,r3
 308 0040 1037     	 adds r7,r7,#16
 309              	.LCFI30:
 310              	 .cfi_def_cfa_offset 8
 311 0042 BD46     	 mov sp,r7
 312              	.LCFI31:
 313              	 .cfi_def_cfa_register 13
 314              	 
 315 0044 80BD     	 pop {r7,pc}
 316              	 .cfi_endproc
 317              	.LFE197:
 319              	 .section .text.XMC_DSD_Generator_Init,"ax",%progbits
 320              	 .align 2
 321              	 .global XMC_DSD_Generator_Init
 322              	 .thumb
 323              	 .thumb_func
 325              	XMC_DSD_Generator_Init:
 326              	.LFB198:
 169:../Libraries/XMCLib/src/xmc_dsd.c **** 
 170:../Libraries/XMCLib/src/xmc_dsd.c **** /*Initializes the Waveform Generator*/
 171:../Libraries/XMCLib/src/xmc_dsd.c **** void XMC_DSD_Generator_Init(XMC_DSD_t *const dsd, const XMC_DSD_GENERATOR_CONFIG_t *const config)
 172:../Libraries/XMCLib/src/xmc_dsd.c **** {
 327              	 .loc 1 172 0
 328              	 .cfi_startproc
 329              	 
 330              	 
 331              	 
 332 0000 80B4     	 push {r7}
 333              	.LCFI32:
 334              	 .cfi_def_cfa_offset 4
 335              	 .cfi_offset 7,-4
 336 0002 83B0     	 sub sp,sp,#12
 337              	.LCFI33:
 338              	 .cfi_def_cfa_offset 16
 339 0004 00AF     	 add r7,sp,#0
 340              	.LCFI34:
 341              	 .cfi_def_cfa_register 7
 342 0006 7860     	 str r0,[r7,#4]
 343 0008 3960     	 str r1,[r7]
 173:../Libraries/XMCLib/src/xmc_dsd.c ****   XMC_ASSERT("XMC_DSD_GENERATOR_Init:Invalid module pointer", XMC_DSD_CHECK_MODULE_PTR(dsd));
 174:../Libraries/XMCLib/src/xmc_dsd.c ****   XMC_ASSERT("XMC_DSD_GENERATOR_Init:NULL Pointer", (config != (XMC_DSD_GENERATOR_CONFIG_t *)NULL) 
 175:../Libraries/XMCLib/src/xmc_dsd.c ****   /* Reset Generator */
 176:../Libraries/XMCLib/src/xmc_dsd.c ****   dsd ->CGCFG &= ~((uint32_t)DSD_CGCFG_CGMOD_Msk | (uint32_t)DSD_CGCFG_BREV_Msk | (uint32_t)DSD_CGC
 344              	 .loc 1 176 0
 345 000a 7B68     	 ldr r3,[r7,#4]
 346 000c D3F8A030 	 ldr r3,[r3,#160]
 347 0010 23F0FF02 	 bic r2,r3,#255
 348 0014 7B68     	 ldr r3,[r7,#4]
 349 0016 C3F8A020 	 str r2,[r3,#160]
 177:../Libraries/XMCLib/src/xmc_dsd.c **** 
 178:../Libraries/XMCLib/src/xmc_dsd.c ****   /* Generator configuration */
 179:../Libraries/XMCLib/src/xmc_dsd.c ****   dsd ->CGCFG = config->generator_conf;
 350              	 .loc 1 179 0
 351 001a 3B68     	 ldr r3,[r7]
 352 001c 1A68     	 ldr r2,[r3]
 353 001e 7B68     	 ldr r3,[r7,#4]
 354 0020 C3F8A020 	 str r2,[r3,#160]
 180:../Libraries/XMCLib/src/xmc_dsd.c **** }
 355              	 .loc 1 180 0
 356 0024 0C37     	 adds r7,r7,#12
 357              	.LCFI35:
 358              	 .cfi_def_cfa_offset 4
 359 0026 BD46     	 mov sp,r7
 360              	.LCFI36:
 361              	 .cfi_def_cfa_register 13
 362              	 
 363 0028 5DF8047B 	 ldr r7,[sp],#4
 364              	.LCFI37:
 365              	 .cfi_restore 7
 366              	 .cfi_def_cfa_offset 0
 367 002c 7047     	 bx lr
 368              	 .cfi_endproc
 369              	.LFE198:
 371 002e 00BF     	 .section .text.XMC_DSD_CH_Init,"ax",%progbits
 372              	 .align 2
 373              	 .global XMC_DSD_CH_Init
 374              	 .thumb
 375              	 .thumb_func
 377              	XMC_DSD_CH_Init:
 378              	.LFB199:
 181:../Libraries/XMCLib/src/xmc_dsd.c **** 
 182:../Libraries/XMCLib/src/xmc_dsd.c **** /* Initialize main filter,auxiliary filter,integrator, rectifier and timestamp of DSD*/
 183:../Libraries/XMCLib/src/xmc_dsd.c **** XMC_DSD_STATUS_t XMC_DSD_CH_Init( XMC_DSD_CH_t *const channel, const XMC_DSD_CH_CONFIG_t *const con
 184:../Libraries/XMCLib/src/xmc_dsd.c **** {
 379              	 .loc 1 184 0
 380              	 .cfi_startproc
 381              	 
 382              	 
 383 0000 80B5     	 push {r7,lr}
 384              	.LCFI38:
 385              	 .cfi_def_cfa_offset 8
 386              	 .cfi_offset 7,-8
 387              	 .cfi_offset 14,-4
 388 0002 84B0     	 sub sp,sp,#16
 389              	.LCFI39:
 390              	 .cfi_def_cfa_offset 24
 391 0004 00AF     	 add r7,sp,#0
 392              	.LCFI40:
 393              	 .cfi_def_cfa_register 7
 394 0006 7860     	 str r0,[r7,#4]
 395 0008 3960     	 str r1,[r7]
 185:../Libraries/XMCLib/src/xmc_dsd.c ****   XMC_DSD_STATUS_t status;
 186:../Libraries/XMCLib/src/xmc_dsd.c **** 
 187:../Libraries/XMCLib/src/xmc_dsd.c ****   XMC_ASSERT("XMC_DSD_CH_Init:Invalid module pointer", XMC_DSD_CHECK_CHANNEL_PTR(channel));
 188:../Libraries/XMCLib/src/xmc_dsd.c ****   XMC_ASSERT("XMC_DSD_CH_Init:NULL Pointer", (config != (XMC_DSD_CH_CONFIG_t *)NULL) );
 189:../Libraries/XMCLib/src/xmc_dsd.c **** 
 190:../Libraries/XMCLib/src/xmc_dsd.c ****   if (config->filter != (XMC_DSD_CH_FILTER_CONFIG_t *)NULL)
 396              	 .loc 1 190 0
 397 000a 3B68     	 ldr r3,[r7]
 398 000c 1B68     	 ldr r3,[r3]
 399 000e 002B     	 cmp r3,#0
 400 0010 30D0     	 beq .L14
 191:../Libraries/XMCLib/src/xmc_dsd.c ****   {
 192:../Libraries/XMCLib/src/xmc_dsd.c ****     XMC_DSD_CH_MainFilter_Init(channel, config->filter);
 401              	 .loc 1 192 0
 402 0012 3B68     	 ldr r3,[r7]
 403 0014 1B68     	 ldr r3,[r3]
 404 0016 7868     	 ldr r0,[r7,#4]
 405 0018 1946     	 mov r1,r3
 406 001a FFF7FEFF 	 bl XMC_DSD_CH_MainFilter_Init
 193:../Libraries/XMCLib/src/xmc_dsd.c **** 
 194:../Libraries/XMCLib/src/xmc_dsd.c ****     if (config->aux != (XMC_DSD_CH_AUX_FILTER_CONFIG_t *)NULL)
 407              	 .loc 1 194 0
 408 001e 3B68     	 ldr r3,[r7]
 409 0020 DB68     	 ldr r3,[r3,#12]
 410 0022 002B     	 cmp r3,#0
 411 0024 05D0     	 beq .L15
 195:../Libraries/XMCLib/src/xmc_dsd.c ****     {
 196:../Libraries/XMCLib/src/xmc_dsd.c ****       XMC_DSD_CH_AuxFilter_Init(channel, config->aux);
 412              	 .loc 1 196 0
 413 0026 3B68     	 ldr r3,[r7]
 414 0028 DB68     	 ldr r3,[r3,#12]
 415 002a 7868     	 ldr r0,[r7,#4]
 416 002c 1946     	 mov r1,r3
 417 002e FFF7FEFF 	 bl XMC_DSD_CH_AuxFilter_Init
 418              	.L15:
 197:../Libraries/XMCLib/src/xmc_dsd.c ****     }
 198:../Libraries/XMCLib/src/xmc_dsd.c ****     if (config->integrator != (XMC_DSD_CH_INTEGRATOR_CONFIG_t *)NULL)
 419              	 .loc 1 198 0
 420 0032 3B68     	 ldr r3,[r7]
 421 0034 5B68     	 ldr r3,[r3,#4]
 422 0036 002B     	 cmp r3,#0
 423 0038 05D0     	 beq .L16
 199:../Libraries/XMCLib/src/xmc_dsd.c ****     {
 200:../Libraries/XMCLib/src/xmc_dsd.c ****       XMC_DSD_CH_Integrator_Init(channel, config->integrator);
 424              	 .loc 1 200 0
 425 003a 3B68     	 ldr r3,[r7]
 426 003c 5B68     	 ldr r3,[r3,#4]
 427 003e 7868     	 ldr r0,[r7,#4]
 428 0040 1946     	 mov r1,r3
 429 0042 FFF7FEFF 	 bl XMC_DSD_CH_Integrator_Init
 430              	.L16:
 201:../Libraries/XMCLib/src/xmc_dsd.c ****     }
 202:../Libraries/XMCLib/src/xmc_dsd.c ****     if (config->rectify != (XMC_DSD_CH_RECTIFY_CONFIG_t *)NULL)
 431              	 .loc 1 202 0
 432 0046 3B68     	 ldr r3,[r7]
 433 0048 1B69     	 ldr r3,[r3,#16]
 434 004a 002B     	 cmp r3,#0
 435 004c 05D0     	 beq .L17
 203:../Libraries/XMCLib/src/xmc_dsd.c ****     {
 204:../Libraries/XMCLib/src/xmc_dsd.c ****       XMC_DSD_CH_Rectify_Init(channel, config->rectify);
 436              	 .loc 1 204 0
 437 004e 3B68     	 ldr r3,[r7]
 438 0050 1B69     	 ldr r3,[r3,#16]
 439 0052 7868     	 ldr r0,[r7,#4]
 440 0054 1946     	 mov r1,r3
 441 0056 FFF7FEFF 	 bl XMC_DSD_CH_Rectify_Init
 442              	.L17:
 205:../Libraries/XMCLib/src/xmc_dsd.c ****     }
 206:../Libraries/XMCLib/src/xmc_dsd.c ****     if (config->timestamp != (XMC_DSD_CH_TIMESTAMP_CONFIG_t *)NULL)
 443              	 .loc 1 206 0
 444 005a 3B68     	 ldr r3,[r7]
 445 005c 9B68     	 ldr r3,[r3,#8]
 446 005e 002B     	 cmp r3,#0
 447 0060 05D0     	 beq .L18
 207:../Libraries/XMCLib/src/xmc_dsd.c ****     {
 208:../Libraries/XMCLib/src/xmc_dsd.c ****       XMC_DSD_CH_Timestamp_Init(channel, config->timestamp);
 448              	 .loc 1 208 0
 449 0062 3B68     	 ldr r3,[r7]
 450 0064 9B68     	 ldr r3,[r3,#8]
 451 0066 7868     	 ldr r0,[r7,#4]
 452 0068 1946     	 mov r1,r3
 453 006a FFF7FEFF 	 bl XMC_DSD_CH_Timestamp_Init
 454              	.L18:
 209:../Libraries/XMCLib/src/xmc_dsd.c ****     }
 210:../Libraries/XMCLib/src/xmc_dsd.c ****     status =  XMC_DSD_STATUS_OK;
 455              	 .loc 1 210 0
 456 006e 0023     	 movs r3,#0
 457 0070 FB73     	 strb r3,[r7,#15]
 458 0072 01E0     	 b .L19
 459              	.L14:
 211:../Libraries/XMCLib/src/xmc_dsd.c ****   }
 212:../Libraries/XMCLib/src/xmc_dsd.c ****   else
 213:../Libraries/XMCLib/src/xmc_dsd.c ****   {
 214:../Libraries/XMCLib/src/xmc_dsd.c ****     status =  XMC_DSD_STATUS_ERROR;
 460              	 .loc 1 214 0
 461 0074 0123     	 movs r3,#1
 462 0076 FB73     	 strb r3,[r7,#15]
 463              	.L19:
 215:../Libraries/XMCLib/src/xmc_dsd.c ****   }
 216:../Libraries/XMCLib/src/xmc_dsd.c ****   return (status);
 464              	 .loc 1 216 0
 465 0078 FB7B     	 ldrb r3,[r7,#15]
 217:../Libraries/XMCLib/src/xmc_dsd.c **** 
 218:../Libraries/XMCLib/src/xmc_dsd.c **** }
 466              	 .loc 1 218 0
 467 007a 1846     	 mov r0,r3
 468 007c 1037     	 adds r7,r7,#16
 469              	.LCFI41:
 470              	 .cfi_def_cfa_offset 8
 471 007e BD46     	 mov sp,r7
 472              	.LCFI42:
 473              	 .cfi_def_cfa_register 13
 474              	 
 475 0080 80BD     	 pop {r7,pc}
 476              	 .cfi_endproc
 477              	.LFE199:
 479 0082 00BF     	 .section .text.XMC_DSD_CH_MainFilter_Init,"ax",%progbits
 480              	 .align 2
 481              	 .global XMC_DSD_CH_MainFilter_Init
 482              	 .thumb
 483              	 .thumb_func
 485              	XMC_DSD_CH_MainFilter_Init:
 486              	.LFB200:
 219:../Libraries/XMCLib/src/xmc_dsd.c **** 
 220:../Libraries/XMCLib/src/xmc_dsd.c **** /* Initialize main filter of DSD */
 221:../Libraries/XMCLib/src/xmc_dsd.c **** void XMC_DSD_CH_MainFilter_Init(XMC_DSD_CH_t *const channel, const XMC_DSD_CH_FILTER_CONFIG_t *cons
 222:../Libraries/XMCLib/src/xmc_dsd.c **** {
 487              	 .loc 1 222 0
 488              	 .cfi_startproc
 489              	 
 490              	 
 491              	 
 492 0000 80B4     	 push {r7}
 493              	.LCFI43:
 494              	 .cfi_def_cfa_offset 4
 495              	 .cfi_offset 7,-4
 496 0002 85B0     	 sub sp,sp,#20
 497              	.LCFI44:
 498              	 .cfi_def_cfa_offset 24
 499 0004 00AF     	 add r7,sp,#0
 500              	.LCFI45:
 501              	 .cfi_def_cfa_register 7
 502 0006 7860     	 str r0,[r7,#4]
 503 0008 3960     	 str r1,[r7]
 223:../Libraries/XMCLib/src/xmc_dsd.c ****   uint32_t decimation_factor_temp;
 224:../Libraries/XMCLib/src/xmc_dsd.c ****   uint32_t filter_start_value_temp;
 225:../Libraries/XMCLib/src/xmc_dsd.c **** 
 226:../Libraries/XMCLib/src/xmc_dsd.c ****   XMC_ASSERT("XMC_DSD_MAIN_FILTER_Init:Invalid module pointer", XMC_DSD_CHECK_CHANNEL_PTR(channel))
 227:../Libraries/XMCLib/src/xmc_dsd.c ****   XMC_ASSERT("XMC_DSD_MAIN_FILTER_Init:NULL Pointer", (config != (XMC_DSD_CH_FILTER_CONFIG_t *)NULL
 228:../Libraries/XMCLib/src/xmc_dsd.c ****   XMC_ASSERT("XMC_DSD_MAIN_FILTER_Init:Invalid Filter Start Value", (config->filter_start_value >= 
 229:../Libraries/XMCLib/src/xmc_dsd.c ****   XMC_ASSERT("XMC_DSD_MAIN_FILTER_Init:Invalid Filter Start Value", (config->filter_start_value <= 
 230:../Libraries/XMCLib/src/xmc_dsd.c ****   XMC_ASSERT("XMC_DSD_MAIN_FILTER_Init:Invalid Decimation Factor",
 231:../Libraries/XMCLib/src/xmc_dsd.c ****              ((config->decimation_factor >= XMC_DSD_MIN_DECIMATION_FACTOR) && (config->decimation_f
 232:../Libraries/XMCLib/src/xmc_dsd.c **** 
 233:../Libraries/XMCLib/src/xmc_dsd.c ****   /*Set Channel frequency*/
 234:../Libraries/XMCLib/src/xmc_dsd.c ****   channel->MODCFG = ((uint32_t)config->clock_divider << DSD_CH_MODCFG_DIVM_Pos) | (uint32_t)DSD_CH_
 504              	 .loc 1 234 0
 505 000a 3B68     	 ldr r3,[r7]
 506 000c 1B78     	 ldrb r3,[r3]
 507 000e C3F30303 	 ubfx r3,r3,#0,#4
 508 0012 DBB2     	 uxtb r3,r3
 509 0014 1B04     	 lsls r3,r3,#16
 510 0016 43F40002 	 orr r2,r3,#8388608
 511 001a 7B68     	 ldr r3,[r7,#4]
 512 001c 1A60     	 str r2,[r3]
 235:../Libraries/XMCLib/src/xmc_dsd.c **** 
 236:../Libraries/XMCLib/src/xmc_dsd.c ****   /* Input Data/Clk */
 237:../Libraries/XMCLib/src/xmc_dsd.c ****   channel->DICFG = config->demodulator_conf | (uint32_t)DSD_CH_DICFG_DSWC_Msk | (uint32_t)DSD_CH_DI
 513              	 .loc 1 237 0
 514 001e 3B68     	 ldr r3,[r7]
 515 0020 5B68     	 ldr r3,[r3,#4]
 516 0022 43F00043 	 orr r3,r3,#-2147483648
 517 0026 43F08003 	 orr r3,r3,#128
 518 002a 7A68     	 ldr r2,[r7,#4]
 519 002c 9360     	 str r3,[r2,#8]
 238:../Libraries/XMCLib/src/xmc_dsd.c **** 
 239:../Libraries/XMCLib/src/xmc_dsd.c ****   /*The decimation factor of the Main CIC filter is CFMDF + 1.*/
 240:../Libraries/XMCLib/src/xmc_dsd.c ****   decimation_factor_temp = config->decimation_factor - 1U;
 520              	 .loc 1 240 0
 521 002e 3B68     	 ldr r3,[r7]
 522 0030 DB68     	 ldr r3,[r3,#12]
 523 0032 013B     	 subs r3,r3,#1
 524 0034 FB60     	 str r3,[r7,#12]
 241:../Libraries/XMCLib/src/xmc_dsd.c ****   filter_start_value_temp = config->filter_start_value - 1U;
 525              	 .loc 1 241 0
 526 0036 3B68     	 ldr r3,[r7]
 527 0038 1B69     	 ldr r3,[r3,#16]
 528 003a 013B     	 subs r3,r3,#1
 529 003c BB60     	 str r3,[r7,#8]
 242:../Libraries/XMCLib/src/xmc_dsd.c **** 
 243:../Libraries/XMCLib/src/xmc_dsd.c ****   /* Filter setup*/
 244:../Libraries/XMCLib/src/xmc_dsd.c ****   channel->FCFGC = (decimation_factor_temp |
 245:../Libraries/XMCLib/src/xmc_dsd.c ****                     (filter_start_value_temp << (uint32_t)DSD_CH_FCFGC_CFMSV_Pos) |
 530              	 .loc 1 245 0
 531 003e BB68     	 ldr r3,[r7,#8]
 532 0040 1A04     	 lsls r2,r3,#16
 244:../Libraries/XMCLib/src/xmc_dsd.c ****                     (filter_start_value_temp << (uint32_t)DSD_CH_FCFGC_CFMSV_Pos) |
 533              	 .loc 1 244 0
 534 0042 FB68     	 ldr r3,[r7,#12]
 535 0044 1A43     	 orrs r2,r2,r3
 246:../Libraries/XMCLib/src/xmc_dsd.c ****                     config->main_filter_conf |
 536              	 .loc 1 246 0
 537 0046 3B68     	 ldr r3,[r7]
 538 0048 9B68     	 ldr r3,[r3,#8]
 245:../Libraries/XMCLib/src/xmc_dsd.c ****                     config->main_filter_conf |
 539              	 .loc 1 245 0
 540 004a 1343     	 orrs r3,r3,r2
 541              	 .loc 1 246 0
 542 004c 43F48062 	 orr r2,r3,#1024
 244:../Libraries/XMCLib/src/xmc_dsd.c ****                     (filter_start_value_temp << (uint32_t)DSD_CH_FCFGC_CFMSV_Pos) |
 543              	 .loc 1 244 0
 544 0050 7B68     	 ldr r3,[r7,#4]
 545 0052 5A61     	 str r2,[r3,#20]
 247:../Libraries/XMCLib/src/xmc_dsd.c ****                     (uint32_t)DSD_CH_FCFGC_CFEN_Msk);
 248:../Libraries/XMCLib/src/xmc_dsd.c **** 
 249:../Libraries/XMCLib/src/xmc_dsd.c ****   /* Offset */
 250:../Libraries/XMCLib/src/xmc_dsd.c ****   channel->OFFM = (uint16_t)config->offset;
 546              	 .loc 1 250 0
 547 0054 3B68     	 ldr r3,[r7]
 548 0056 5B88     	 ldrh r3,[r3,#2]
 549 0058 9BB2     	 uxth r3,r3
 550 005a 1A46     	 mov r2,r3
 551 005c 7B68     	 ldr r3,[r7,#4]
 552 005e 9A63     	 str r2,[r3,#56]
 251:../Libraries/XMCLib/src/xmc_dsd.c **** }
 553              	 .loc 1 251 0
 554 0060 1437     	 adds r7,r7,#20
 555              	.LCFI46:
 556              	 .cfi_def_cfa_offset 4
 557 0062 BD46     	 mov sp,r7
 558              	.LCFI47:
 559              	 .cfi_def_cfa_register 13
 560              	 
 561 0064 5DF8047B 	 ldr r7,[sp],#4
 562              	.LCFI48:
 563              	 .cfi_restore 7
 564              	 .cfi_def_cfa_offset 0
 565 0068 7047     	 bx lr
 566              	 .cfi_endproc
 567              	.LFE200:
 569 006a 00BF     	 .section .text.XMC_DSD_CH_Timestamp_Init,"ax",%progbits
 570              	 .align 2
 571              	 .global XMC_DSD_CH_Timestamp_Init
 572              	 .thumb
 573              	 .thumb_func
 575              	XMC_DSD_CH_Timestamp_Init:
 576              	.LFB201:
 252:../Libraries/XMCLib/src/xmc_dsd.c **** 
 253:../Libraries/XMCLib/src/xmc_dsd.c **** /* Initialize timestamp mode of DSD */
 254:../Libraries/XMCLib/src/xmc_dsd.c **** void XMC_DSD_CH_Timestamp_Init(XMC_DSD_CH_t *const channel, const XMC_DSD_CH_TIMESTAMP_CONFIG_t *co
 255:../Libraries/XMCLib/src/xmc_dsd.c **** {
 577              	 .loc 1 255 0
 578              	 .cfi_startproc
 579              	 
 580              	 
 581              	 
 582 0000 80B4     	 push {r7}
 583              	.LCFI49:
 584              	 .cfi_def_cfa_offset 4
 585              	 .cfi_offset 7,-4
 586 0002 85B0     	 sub sp,sp,#20
 587              	.LCFI50:
 588              	 .cfi_def_cfa_offset 24
 589 0004 00AF     	 add r7,sp,#0
 590              	.LCFI51:
 591              	 .cfi_def_cfa_register 7
 592 0006 7860     	 str r0,[r7,#4]
 593 0008 3960     	 str r1,[r7]
 256:../Libraries/XMCLib/src/xmc_dsd.c ****   uint32_t temp;
 257:../Libraries/XMCLib/src/xmc_dsd.c ****   XMC_ASSERT("XMC_DSD_MAIN_FILTER_Init:Invalid module pointer", XMC_DSD_CHECK_CHANNEL_PTR(channel))
 258:../Libraries/XMCLib/src/xmc_dsd.c ****   XMC_ASSERT("XMC_DSD_MAIN_FILTER_Init:NULL Pointer", (config != (XMC_DSD_CH_TIMESTAMP_CONFIG_t *)N
 259:../Libraries/XMCLib/src/xmc_dsd.c **** 
 260:../Libraries/XMCLib/src/xmc_dsd.c ****   temp = (channel->DICFG | (uint32_t)DSD_CH_DICFG_TRWC_Msk);
 594              	 .loc 1 260 0
 595 000a 7B68     	 ldr r3,[r7,#4]
 596 000c 9B68     	 ldr r3,[r3,#8]
 597 000e 43F40043 	 orr r3,r3,#32768
 598 0012 FB60     	 str r3,[r7,#12]
 261:../Libraries/XMCLib/src/xmc_dsd.c ****   temp &= ~((uint32_t)DSD_CH_DICFG_TSTRMODE_Msk | (uint32_t)DSD_CH_DICFG_TRSEL_Msk);
 599              	 .loc 1 261 0
 600 0014 FB68     	 ldr r3,[r7,#12]
 601 0016 23F4F843 	 bic r3,r3,#31744
 602 001a FB60     	 str r3,[r7,#12]
 262:../Libraries/XMCLib/src/xmc_dsd.c ****   temp |= config->timestamp_conf;
 603              	 .loc 1 262 0
 604 001c 3B68     	 ldr r3,[r7]
 605 001e 1B68     	 ldr r3,[r3]
 606 0020 FA68     	 ldr r2,[r7,#12]
 607 0022 1343     	 orrs r3,r3,r2
 608 0024 FB60     	 str r3,[r7,#12]
 263:../Libraries/XMCLib/src/xmc_dsd.c ****   channel->DICFG = temp;
 609              	 .loc 1 263 0
 610 0026 7B68     	 ldr r3,[r7,#4]
 611 0028 FA68     	 ldr r2,[r7,#12]
 612 002a 9A60     	 str r2,[r3,#8]
 264:../Libraries/XMCLib/src/xmc_dsd.c **** }
 613              	 .loc 1 264 0
 614 002c 1437     	 adds r7,r7,#20
 615              	.LCFI52:
 616              	 .cfi_def_cfa_offset 4
 617 002e BD46     	 mov sp,r7
 618              	.LCFI53:
 619              	 .cfi_def_cfa_register 13
 620              	 
 621 0030 5DF8047B 	 ldr r7,[sp],#4
 622              	.LCFI54:
 623              	 .cfi_restore 7
 624              	 .cfi_def_cfa_offset 0
 625 0034 7047     	 bx lr
 626              	 .cfi_endproc
 627              	.LFE201:
 629 0036 00BF     	 .section .text.XMC_DSD_CH_AuxFilter_Init,"ax",%progbits
 630              	 .align 2
 631              	 .global XMC_DSD_CH_AuxFilter_Init
 632              	 .thumb
 633              	 .thumb_func
 635              	XMC_DSD_CH_AuxFilter_Init:
 636              	.LFB202:
 265:../Libraries/XMCLib/src/xmc_dsd.c **** 
 266:../Libraries/XMCLib/src/xmc_dsd.c **** /* Initialize auxiliary filter of DSD */
 267:../Libraries/XMCLib/src/xmc_dsd.c **** void XMC_DSD_CH_AuxFilter_Init(XMC_DSD_CH_t *const channel, const XMC_DSD_CH_AUX_FILTER_CONFIG_t *c
 268:../Libraries/XMCLib/src/xmc_dsd.c **** {
 637              	 .loc 1 268 0
 638              	 .cfi_startproc
 639              	 
 640              	 
 641              	 
 642 0000 80B4     	 push {r7}
 643              	.LCFI55:
 644              	 .cfi_def_cfa_offset 4
 645              	 .cfi_offset 7,-4
 646 0002 85B0     	 sub sp,sp,#20
 647              	.LCFI56:
 648              	 .cfi_def_cfa_offset 24
 649 0004 00AF     	 add r7,sp,#0
 650              	.LCFI57:
 651              	 .cfi_def_cfa_register 7
 652 0006 7860     	 str r0,[r7,#4]
 653 0008 3960     	 str r1,[r7]
 269:../Libraries/XMCLib/src/xmc_dsd.c ****   uint32_t decimation_factor_temp;
 270:../Libraries/XMCLib/src/xmc_dsd.c **** 
 271:../Libraries/XMCLib/src/xmc_dsd.c ****   XMC_ASSERT("XMC_DSD_AUX_FILTER_Init:Invalid module pointer", XMC_DSD_CHECK_CHANNEL_PTR(channel));
 272:../Libraries/XMCLib/src/xmc_dsd.c ****   XMC_ASSERT("XMC_DSD_AUX_FILTER_Init:NULL Pointer", (config != (XMC_DSD_CH_AUX_FILTER_CONFIG_t *)N
 273:../Libraries/XMCLib/src/xmc_dsd.c ****   XMC_ASSERT("XMC_DSD_AUX_FILTER_Init:Invalid Decimation Factor",
 274:../Libraries/XMCLib/src/xmc_dsd.c ****              ((config->decimation_factor >= XMC_DSD_MIN_DECIMATION_FACTOR) && (config->decimation_f
 275:../Libraries/XMCLib/src/xmc_dsd.c **** 
 276:../Libraries/XMCLib/src/xmc_dsd.c ****   channel->BOUNDSEL = config->boundary_conf;
 654              	 .loc 1 276 0
 655 000a 3B68     	 ldr r3,[r7]
 656 000c 5A68     	 ldr r2,[r3,#4]
 657 000e 7B68     	 ldr r3,[r7,#4]
 658 0010 9A62     	 str r2,[r3,#40]
 277:../Libraries/XMCLib/src/xmc_dsd.c ****   /*The decimation factor of the Aux CIC filter is CFMDF + 1.*/
 278:../Libraries/XMCLib/src/xmc_dsd.c ****   decimation_factor_temp = config->decimation_factor - 1U;
 659              	 .loc 1 278 0
 660 0012 3B68     	 ldr r3,[r7]
 661 0014 9B68     	 ldr r3,[r3,#8]
 662 0016 013B     	 subs r3,r3,#1
 663 0018 FB60     	 str r3,[r7,#12]
 279:../Libraries/XMCLib/src/xmc_dsd.c ****   channel->FCFGA = (decimation_factor_temp | config->aux_filter_conf);
 664              	 .loc 1 279 0
 665 001a 3B68     	 ldr r3,[r7]
 666 001c 1A68     	 ldr r2,[r3]
 667 001e FB68     	 ldr r3,[r7,#12]
 668 0020 1A43     	 orrs r2,r2,r3
 669 0022 7B68     	 ldr r3,[r7,#4]
 670 0024 9A61     	 str r2,[r3,#24]
 280:../Libraries/XMCLib/src/xmc_dsd.c **** }
 671              	 .loc 1 280 0
 672 0026 1437     	 adds r7,r7,#20
 673              	.LCFI58:
 674              	 .cfi_def_cfa_offset 4
 675 0028 BD46     	 mov sp,r7
 676              	.LCFI59:
 677              	 .cfi_def_cfa_register 13
 678              	 
 679 002a 5DF8047B 	 ldr r7,[sp],#4
 680              	.LCFI60:
 681              	 .cfi_restore 7
 682              	 .cfi_def_cfa_offset 0
 683 002e 7047     	 bx lr
 684              	 .cfi_endproc
 685              	.LFE202:
 687              	 .section .text.XMC_DSD_CH_Integrator_Init,"ax",%progbits
 688              	 .align 2
 689              	 .global XMC_DSD_CH_Integrator_Init
 690              	 .thumb
 691              	 .thumb_func
 693              	XMC_DSD_CH_Integrator_Init:
 694              	.LFB203:
 281:../Libraries/XMCLib/src/xmc_dsd.c **** 
 282:../Libraries/XMCLib/src/xmc_dsd.c **** /* Integrator initialization of DSD */
 283:../Libraries/XMCLib/src/xmc_dsd.c **** void XMC_DSD_CH_Integrator_Init(XMC_DSD_CH_t *const channel, const XMC_DSD_CH_INTEGRATOR_CONFIG_t *
 284:../Libraries/XMCLib/src/xmc_dsd.c **** {
 695              	 .loc 1 284 0
 696              	 .cfi_startproc
 697              	 
 698              	 
 699              	 
 700 0000 80B4     	 push {r7}
 701              	.LCFI61:
 702              	 .cfi_def_cfa_offset 4
 703              	 .cfi_offset 7,-4
 704 0002 85B0     	 sub sp,sp,#20
 705              	.LCFI62:
 706              	 .cfi_def_cfa_offset 24
 707 0004 00AF     	 add r7,sp,#0
 708              	.LCFI63:
 709              	 .cfi_def_cfa_register 7
 710 0006 7860     	 str r0,[r7,#4]
 711 0008 3960     	 str r1,[r7]
 285:../Libraries/XMCLib/src/xmc_dsd.c ****   uint32_t temp;
 286:../Libraries/XMCLib/src/xmc_dsd.c ****   XMC_ASSERT("XMC_DSD_INTEGRATOR_Init:Invalid module pointer", XMC_DSD_CHECK_CHANNEL_PTR(channel));
 287:../Libraries/XMCLib/src/xmc_dsd.c ****   XMC_ASSERT("XMC_DSD_INTEGRATOR_Init:NULL Pointer", (config != (XMC_DSD_CH_INTEGRATOR_CONFIG_t *)N
 288:../Libraries/XMCLib/src/xmc_dsd.c ****   XMC_ASSERT("XMC_DSD_INTEGRATOR_Init:Invalid integration_loop", (config->integration_loop > 0U ));
 289:../Libraries/XMCLib/src/xmc_dsd.c ****   XMC_ASSERT("XMC_DSD_INTEGRATOR_Init:Invalid counted_values", (config->counted_values > 0U ));
 290:../Libraries/XMCLib/src/xmc_dsd.c **** 
 291:../Libraries/XMCLib/src/xmc_dsd.c ****   channel->IWCTR = ((config->integration_loop - 1U) << DSD_CH_IWCTR_REPVAL_Pos)
 712              	 .loc 1 291 0
 713 000a 3B68     	 ldr r3,[r7]
 714 000c 5B68     	 ldr r3,[r3,#4]
 715 000e 013B     	 subs r3,r3,#1
 716 0010 1A03     	 lsls r2,r3,#12
 292:../Libraries/XMCLib/src/xmc_dsd.c ****                    | (config->discarded_values << DSD_CH_IWCTR_NVALDIS_Pos)
 717              	 .loc 1 292 0
 718 0012 3B68     	 ldr r3,[r7]
 719 0014 9B68     	 ldr r3,[r3,#8]
 720 0016 1B04     	 lsls r3,r3,#16
 721 0018 1A43     	 orrs r2,r2,r3
 293:../Libraries/XMCLib/src/xmc_dsd.c ****                    | (config->stop_condition << DSD_CH_IWCTR_IWS_Pos)
 722              	 .loc 1 293 0
 723 001a 3B68     	 ldr r3,[r7]
 724 001c DB68     	 ldr r3,[r3,#12]
 725 001e DB05     	 lsls r3,r3,#23
 726 0020 1A43     	 orrs r2,r2,r3
 294:../Libraries/XMCLib/src/xmc_dsd.c ****                    | ((config->counted_values - 1U) << DSD_CH_IWCTR_NVALINT_Pos);
 727              	 .loc 1 294 0
 728 0022 3B68     	 ldr r3,[r7]
 729 0024 1B69     	 ldr r3,[r3,#16]
 730 0026 013B     	 subs r3,r3,#1
 731 0028 1B06     	 lsls r3,r3,#24
 732 002a 1A43     	 orrs r2,r2,r3
 291:../Libraries/XMCLib/src/xmc_dsd.c ****                    | (config->discarded_values << DSD_CH_IWCTR_NVALDIS_Pos)
 733              	 .loc 1 291 0
 734 002c 7B68     	 ldr r3,[r7,#4]
 735 002e 1A62     	 str r2,[r3,#32]
 295:../Libraries/XMCLib/src/xmc_dsd.c **** 
 296:../Libraries/XMCLib/src/xmc_dsd.c ****   /*To ensure proper operation, ensure that bit field ITRMODE is zero before selecting any other tr
 297:../Libraries/XMCLib/src/xmc_dsd.c ****   temp = (channel->DICFG & ~((uint32_t)DSD_CH_DICFG_ITRMODE_Msk | (uint32_t)DSD_CH_DICFG_TRSEL_Msk)
 736              	 .loc 1 297 0
 737 0030 7B68     	 ldr r3,[r7,#4]
 738 0032 9B68     	 ldr r3,[r3,#8]
 739 0034 23F47343 	 bic r3,r3,#62208
 740 0038 43F40043 	 orr r3,r3,#32768
 741 003c FB60     	 str r3,[r7,#12]
 298:../Libraries/XMCLib/src/xmc_dsd.c **** 
 299:../Libraries/XMCLib/src/xmc_dsd.c ****   channel->DICFG = temp;
 742              	 .loc 1 299 0
 743 003e 7B68     	 ldr r3,[r7,#4]
 744 0040 FA68     	 ldr r2,[r7,#12]
 745 0042 9A60     	 str r2,[r3,#8]
 300:../Libraries/XMCLib/src/xmc_dsd.c **** 
 301:../Libraries/XMCLib/src/xmc_dsd.c ****   temp |=  config->integrator_trigger;
 746              	 .loc 1 301 0
 747 0044 3B68     	 ldr r3,[r7]
 748 0046 1B68     	 ldr r3,[r3]
 749 0048 FA68     	 ldr r2,[r7,#12]
 750 004a 1343     	 orrs r3,r3,r2
 751 004c FB60     	 str r3,[r7,#12]
 302:../Libraries/XMCLib/src/xmc_dsd.c ****   channel->DICFG = temp;
 752              	 .loc 1 302 0
 753 004e 7B68     	 ldr r3,[r7,#4]
 754 0050 FA68     	 ldr r2,[r7,#12]
 755 0052 9A60     	 str r2,[r3,#8]
 303:../Libraries/XMCLib/src/xmc_dsd.c **** }
 756              	 .loc 1 303 0
 757 0054 1437     	 adds r7,r7,#20
 758              	.LCFI64:
 759              	 .cfi_def_cfa_offset 4
 760 0056 BD46     	 mov sp,r7
 761              	.LCFI65:
 762              	 .cfi_def_cfa_register 13
 763              	 
 764 0058 5DF8047B 	 ldr r7,[sp],#4
 765              	.LCFI66:
 766              	 .cfi_restore 7
 767              	 .cfi_def_cfa_offset 0
 768 005c 7047     	 bx lr
 769              	 .cfi_endproc
 770              	.LFE203:
 772 005e 00BF     	 .section .text.XMC_DSD_CH_Rectify_Init,"ax",%progbits
 773              	 .align 2
 774              	 .global XMC_DSD_CH_Rectify_Init
 775              	 .thumb
 776              	 .thumb_func
 778              	XMC_DSD_CH_Rectify_Init:
 779              	.LFB204:
 304:../Libraries/XMCLib/src/xmc_dsd.c **** 
 305:../Libraries/XMCLib/src/xmc_dsd.c **** /* Rectifier initialization of DSD */
 306:../Libraries/XMCLib/src/xmc_dsd.c **** void XMC_DSD_CH_Rectify_Init(XMC_DSD_CH_t *const channel, const XMC_DSD_CH_RECTIFY_CONFIG_t *const 
 307:../Libraries/XMCLib/src/xmc_dsd.c **** {
 780              	 .loc 1 307 0
 781              	 .cfi_startproc
 782              	 
 783              	 
 784              	 
 785 0000 80B4     	 push {r7}
 786              	.LCFI67:
 787              	 .cfi_def_cfa_offset 4
 788              	 .cfi_offset 7,-4
 789 0002 83B0     	 sub sp,sp,#12
 790              	.LCFI68:
 791              	 .cfi_def_cfa_offset 16
 792 0004 00AF     	 add r7,sp,#0
 793              	.LCFI69:
 794              	 .cfi_def_cfa_register 7
 795 0006 7860     	 str r0,[r7,#4]
 796 0008 3960     	 str r1,[r7]
 308:../Libraries/XMCLib/src/xmc_dsd.c ****   XMC_ASSERT("XMC_DSD_RECTIFY_Init:Invalid module pointer", XMC_DSD_CHECK_CHANNEL_PTR(channel));
 309:../Libraries/XMCLib/src/xmc_dsd.c ****   XMC_ASSERT("XMC_DSD_RECTIFY_Init:NULL Pointer", (config != (XMC_DSD_CH_RECTIFY_CONFIG_t *)NULL));
 310:../Libraries/XMCLib/src/xmc_dsd.c ****   XMC_ASSERT("XMC_DSD_RECTIFY_Init:NULL Pointer", (((uint16_t)config->delay + (uint16_t)config->hal
 311:../Libraries/XMCLib/src/xmc_dsd.c **** 
 312:../Libraries/XMCLib/src/xmc_dsd.c ****   channel->RECTCFG = config->rectify_config | (uint32_t)DSD_CH_RECTCFG_RFEN_Msk;
 797              	 .loc 1 312 0
 798 000a 3B68     	 ldr r3,[r7]
 799 000c 1B68     	 ldr r3,[r3]
 800 000e 43F00102 	 orr r2,r3,#1
 801 0012 7B68     	 ldr r3,[r7,#4]
 802 0014 C3F8A820 	 str r2,[r3,#168]
 313:../Libraries/XMCLib/src/xmc_dsd.c ****   channel->CGSYNC = (((uint32_t) config->delay << (uint32_t)DSD_CH_CGSYNC_SDPOS_Pos)
 803              	 .loc 1 313 0
 804 0018 3B68     	 ldr r3,[r7]
 805 001a 1B79     	 ldrb r3,[r3,#4]
 806 001c 1A04     	 lsls r2,r3,#16
 314:../Libraries/XMCLib/src/xmc_dsd.c ****                      | (((uint32_t)config->delay + (uint32_t)config->half_cycle) << (uint32_t)DSD_C
 807              	 .loc 1 314 0
 808 001e 3B68     	 ldr r3,[r7]
 809 0020 1B79     	 ldrb r3,[r3,#4]
 810 0022 1946     	 mov r1,r3
 811 0024 3B68     	 ldr r3,[r7]
 812 0026 5B79     	 ldrb r3,[r3,#5]
 813 0028 0B44     	 add r3,r3,r1
 814 002a 1B06     	 lsls r3,r3,#24
 815 002c 1A43     	 orrs r2,r2,r3
 313:../Libraries/XMCLib/src/xmc_dsd.c ****   channel->CGSYNC = (((uint32_t) config->delay << (uint32_t)DSD_CH_CGSYNC_SDPOS_Pos)
 816              	 .loc 1 313 0
 817 002e 7B68     	 ldr r3,[r7,#4]
 818 0030 C3F8A020 	 str r2,[r3,#160]
 315:../Libraries/XMCLib/src/xmc_dsd.c **** }
 819              	 .loc 1 315 0
 820 0034 0C37     	 adds r7,r7,#12
 821              	.LCFI70:
 822              	 .cfi_def_cfa_offset 4
 823 0036 BD46     	 mov sp,r7
 824              	.LCFI71:
 825              	 .cfi_def_cfa_register 13
 826              	 
 827 0038 5DF8047B 	 ldr r7,[sp],#4
 828              	.LCFI72:
 829              	 .cfi_restore 7
 830              	 .cfi_def_cfa_offset 0
 831 003c 7047     	 bx lr
 832              	 .cfi_endproc
 833              	.LFE204:
 835 003e 00BF     	 .section .text.XMC_DSD_CH_GetResult_TS,"ax",%progbits
 836              	 .align 2
 837              	 .global XMC_DSD_CH_GetResult_TS
 838              	 .thumb
 839              	 .thumb_func
 841              	XMC_DSD_CH_GetResult_TS:
 842              	.LFB205:
 316:../Libraries/XMCLib/src/xmc_dsd.c **** 
 317:../Libraries/XMCLib/src/xmc_dsd.c **** /* API to get the result of the last conversion */
 318:../Libraries/XMCLib/src/xmc_dsd.c **** void XMC_DSD_CH_GetResult_TS(XMC_DSD_CH_t *const channel,
 319:../Libraries/XMCLib/src/xmc_dsd.c ****                              int16_t *dsd_result,
 320:../Libraries/XMCLib/src/xmc_dsd.c ****                              uint8_t *dsd_filter_count,
 321:../Libraries/XMCLib/src/xmc_dsd.c ****                              uint8_t *dsd_integration_count)
 322:../Libraries/XMCLib/src/xmc_dsd.c **** {
 843              	 .loc 1 322 0
 844              	 .cfi_startproc
 845              	 
 846              	 
 847              	 
 848 0000 80B4     	 push {r7}
 849              	.LCFI73:
 850              	 .cfi_def_cfa_offset 4
 851              	 .cfi_offset 7,-4
 852 0002 87B0     	 sub sp,sp,#28
 853              	.LCFI74:
 854              	 .cfi_def_cfa_offset 32
 855 0004 00AF     	 add r7,sp,#0
 856              	.LCFI75:
 857              	 .cfi_def_cfa_register 7
 858 0006 F860     	 str r0,[r7,#12]
 859 0008 B960     	 str r1,[r7,#8]
 860 000a 7A60     	 str r2,[r7,#4]
 861 000c 3B60     	 str r3,[r7]
 323:../Libraries/XMCLib/src/xmc_dsd.c ****   uint32_t timestamp;
 324:../Libraries/XMCLib/src/xmc_dsd.c ****   uint16_t result;
 325:../Libraries/XMCLib/src/xmc_dsd.c **** 
 326:../Libraries/XMCLib/src/xmc_dsd.c ****   timestamp = channel->TSTMP;
 862              	 .loc 1 326 0
 863 000e FB68     	 ldr r3,[r7,#12]
 864 0010 1B6D     	 ldr r3,[r3,#80]
 865 0012 7B61     	 str r3,[r7,#20]
 327:../Libraries/XMCLib/src/xmc_dsd.c ****   result = (uint16_t)((uint32_t)timestamp & DSD_CH_TSTMP_RESULT_Msk);
 866              	 .loc 1 327 0
 867 0014 7B69     	 ldr r3,[r7,#20]
 868 0016 7B82     	 strh r3,[r7,#18]
 328:../Libraries/XMCLib/src/xmc_dsd.c ****   *dsd_result = (int16_t)(result);
 869              	 .loc 1 328 0
 870 0018 7A8A     	 ldrh r2,[r7,#18]
 871 001a BB68     	 ldr r3,[r7,#8]
 872 001c 1A80     	 strh r2,[r3]
 329:../Libraries/XMCLib/src/xmc_dsd.c ****   *dsd_filter_count = (uint8_t) ((timestamp & (uint32_t)DSD_CH_TSTMP_CFMDCNT_Msk) >> (uint32_t)DSD_
 873              	 .loc 1 329 0
 874 001e 7B69     	 ldr r3,[r7,#20]
 875 0020 03F47F03 	 and r3,r3,#16711680
 876 0024 1B0C     	 lsrs r3,r3,#16
 877 0026 DAB2     	 uxtb r2,r3
 878 0028 7B68     	 ldr r3,[r7,#4]
 879 002a 1A70     	 strb r2,[r3]
 330:../Libraries/XMCLib/src/xmc_dsd.c ****   *dsd_integration_count = (uint8_t) ((timestamp & (uint32_t)DSD_CH_TSTMP_NVALCNT_Msk) >> (uint32_t
 880              	 .loc 1 330 0
 881 002c 7B69     	 ldr r3,[r7,#20]
 882 002e 03F07C53 	 and r3,r3,#1056964608
 883 0032 1B0E     	 lsrs r3,r3,#24
 884 0034 DAB2     	 uxtb r2,r3
 885 0036 3B68     	 ldr r3,[r7]
 886 0038 1A70     	 strb r2,[r3]
 331:../Libraries/XMCLib/src/xmc_dsd.c **** }
 887              	 .loc 1 331 0
 888 003a 1C37     	 adds r7,r7,#28
 889              	.LCFI76:
 890              	 .cfi_def_cfa_offset 4
 891 003c BD46     	 mov sp,r7
 892              	.LCFI77:
 893              	 .cfi_def_cfa_register 13
 894              	 
 895 003e 5DF8047B 	 ldr r7,[sp],#4
 896              	.LCFI78:
 897              	 .cfi_restore 7
 898              	 .cfi_def_cfa_offset 0
 899 0042 7047     	 bx lr
 900              	 .cfi_endproc
 901              	.LFE205:
 903              	 .section .text.XMC_DSD_CH_GetResult_TS_Time,"ax",%progbits
 904              	 .align 2
 905              	 .global XMC_DSD_CH_GetResult_TS_Time
 906              	 .thumb
 907              	 .thumb_func
 909              	XMC_DSD_CH_GetResult_TS_Time:
 910              	.LFB206:
 332:../Libraries/XMCLib/src/xmc_dsd.c **** 
 333:../Libraries/XMCLib/src/xmc_dsd.c **** /* API to get the result of the last conversion with the time */
 334:../Libraries/XMCLib/src/xmc_dsd.c **** void XMC_DSD_CH_GetResult_TS_Time(XMC_DSD_CH_t *const channel, int16_t *dsd_Result, uint32_t *time)
 335:../Libraries/XMCLib/src/xmc_dsd.c **** {
 911              	 .loc 1 335 0
 912              	 .cfi_startproc
 913              	 
 914              	 
 915              	 
 916 0000 80B4     	 push {r7}
 917              	.LCFI79:
 918              	 .cfi_def_cfa_offset 4
 919              	 .cfi_offset 7,-4
 920 0002 89B0     	 sub sp,sp,#36
 921              	.LCFI80:
 922              	 .cfi_def_cfa_offset 40
 923 0004 00AF     	 add r7,sp,#0
 924              	.LCFI81:
 925              	 .cfi_def_cfa_register 7
 926 0006 F860     	 str r0,[r7,#12]
 927 0008 B960     	 str r1,[r7,#8]
 928 000a 7A60     	 str r2,[r7,#4]
 336:../Libraries/XMCLib/src/xmc_dsd.c ****   uint32_t timestamp;
 337:../Libraries/XMCLib/src/xmc_dsd.c ****   uint16_t filter_count;
 338:../Libraries/XMCLib/src/xmc_dsd.c ****   uint16_t integrator_count;
 339:../Libraries/XMCLib/src/xmc_dsd.c ****   uint16_t decimation;
 340:../Libraries/XMCLib/src/xmc_dsd.c ****   uint16_t result;
 341:../Libraries/XMCLib/src/xmc_dsd.c **** 
 342:../Libraries/XMCLib/src/xmc_dsd.c ****   timestamp = channel->TSTMP;
 929              	 .loc 1 342 0
 930 000c FB68     	 ldr r3,[r7,#12]
 931 000e 1B6D     	 ldr r3,[r3,#80]
 932 0010 BB61     	 str r3,[r7,#24]
 343:../Libraries/XMCLib/src/xmc_dsd.c ****   decimation = (uint16_t)(channel->FCFGC & DSD_CH_FCFGC_CFMDF_Msk);
 933              	 .loc 1 343 0
 934 0012 FB68     	 ldr r3,[r7,#12]
 935 0014 5B69     	 ldr r3,[r3,#20]
 936 0016 9BB2     	 uxth r3,r3
 937 0018 DBB2     	 uxtb r3,r3
 938 001a FB82     	 strh r3,[r7,#22]
 344:../Libraries/XMCLib/src/xmc_dsd.c ****   filter_count = (uint16_t)((timestamp & DSD_CH_TSTMP_CFMDCNT_Msk) >> DSD_CH_TSTMP_CFMDCNT_Pos);
 939              	 .loc 1 344 0
 940 001c BB69     	 ldr r3,[r7,#24]
 941 001e 03F47F03 	 and r3,r3,#16711680
 942 0022 1B0C     	 lsrs r3,r3,#16
 943 0024 BB82     	 strh r3,[r7,#20]
 345:../Libraries/XMCLib/src/xmc_dsd.c **** 
 346:../Libraries/XMCLib/src/xmc_dsd.c ****   /* Integration enabled? */
 347:../Libraries/XMCLib/src/xmc_dsd.c ****   if ((channel->IWCTR & DSD_CH_IWCTR_INTEN_Msk))
 944              	 .loc 1 347 0
 945 0026 FB68     	 ldr r3,[r7,#12]
 946 0028 1B6A     	 ldr r3,[r3,#32]
 947 002a 03F08003 	 and r3,r3,#128
 948 002e 002B     	 cmp r3,#0
 949 0030 17D0     	 beq .L28
 348:../Libraries/XMCLib/src/xmc_dsd.c ****   {
 349:../Libraries/XMCLib/src/xmc_dsd.c ****     integrator_count = (uint16_t) ((timestamp & DSD_CH_TSTMP_NVALCNT_Msk) >> DSD_CH_TSTMP_NVALCNT_P
 950              	 .loc 1 349 0
 951 0032 BB69     	 ldr r3,[r7,#24]
 952 0034 03F07C53 	 and r3,r3,#1056964608
 953 0038 1B0E     	 lsrs r3,r3,#24
 954 003a FB83     	 strh r3,[r7,#30]
 350:../Libraries/XMCLib/src/xmc_dsd.c **** 
 351:../Libraries/XMCLib/src/xmc_dsd.c ****     /*See Errata number: xxyy */
 352:../Libraries/XMCLib/src/xmc_dsd.c ****     if (filter_count == decimation)
 955              	 .loc 1 352 0
 956 003c BA8A     	 ldrh r2,[r7,#20]
 957 003e FB8A     	 ldrh r3,[r7,#22]
 958 0040 9A42     	 cmp r2,r3
 959 0042 02D1     	 bne .L29
 353:../Libraries/XMCLib/src/xmc_dsd.c ****     {
 354:../Libraries/XMCLib/src/xmc_dsd.c ****       integrator_count++;
 960              	 .loc 1 354 0
 961 0044 FB8B     	 ldrh r3,[r7,#30]
 962 0046 0133     	 adds r3,r3,#1
 963 0048 FB83     	 strh r3,[r7,#30]
 964              	.L29:
 355:../Libraries/XMCLib/src/xmc_dsd.c ****     }
 356:../Libraries/XMCLib/src/xmc_dsd.c ****     *time = (uint32_t)(((uint32_t) integrator_count * ((uint32_t) decimation + 1U)) + (uint32_t) ((
 965              	 .loc 1 356 0
 966 004a FB8B     	 ldrh r3,[r7,#30]
 967 004c FA8A     	 ldrh r2,[r7,#22]
 968 004e 0132     	 adds r2,r2,#1
 969 0050 02FB03F2 	 mul r2,r2,r3
 970 0054 F98A     	 ldrh r1,[r7,#22]
 971 0056 BB8A     	 ldrh r3,[r7,#20]
 972 0058 CB1A     	 subs r3,r1,r3
 973 005a 1A44     	 add r2,r2,r3
 974 005c 7B68     	 ldr r3,[r7,#4]
 975 005e 1A60     	 str r2,[r3]
 976 0060 04E0     	 b .L30
 977              	.L28:
 357:../Libraries/XMCLib/src/xmc_dsd.c ****   }
 358:../Libraries/XMCLib/src/xmc_dsd.c ****   else
 359:../Libraries/XMCLib/src/xmc_dsd.c ****   {
 360:../Libraries/XMCLib/src/xmc_dsd.c ****     *time = (uint32_t) ((uint32_t)decimation - filter_count);
 978              	 .loc 1 360 0
 979 0062 FA8A     	 ldrh r2,[r7,#22]
 980 0064 BB8A     	 ldrh r3,[r7,#20]
 981 0066 D21A     	 subs r2,r2,r3
 982 0068 7B68     	 ldr r3,[r7,#4]
 983 006a 1A60     	 str r2,[r3]
 984              	.L30:
 361:../Libraries/XMCLib/src/xmc_dsd.c ****   }
 362:../Libraries/XMCLib/src/xmc_dsd.c ****   result = (uint16_t)((uint32_t)timestamp & DSD_CH_TSTMP_RESULT_Msk);
 985              	 .loc 1 362 0
 986 006c BB69     	 ldr r3,[r7,#24]
 987 006e 7B82     	 strh r3,[r7,#18]
 363:../Libraries/XMCLib/src/xmc_dsd.c ****   *dsd_Result = (int16_t)(result);
 988              	 .loc 1 363 0
 989 0070 7A8A     	 ldrh r2,[r7,#18]
 990 0072 BB68     	 ldr r3,[r7,#8]
 991 0074 1A80     	 strh r2,[r3]
 364:../Libraries/XMCLib/src/xmc_dsd.c **** }
 992              	 .loc 1 364 0
 993 0076 2437     	 adds r7,r7,#36
 994              	.LCFI82:
 995              	 .cfi_def_cfa_offset 4
 996 0078 BD46     	 mov sp,r7
 997              	.LCFI83:
 998              	 .cfi_def_cfa_register 13
 999              	 
 1000 007a 5DF8047B 	 ldr r7,[sp],#4
 1001              	.LCFI84:
 1002              	 .cfi_restore 7
 1003              	 .cfi_def_cfa_offset 0
 1004 007e 7047     	 bx lr
 1005              	 .cfi_endproc
 1006              	.LFE206:
 1008              	 .text
 1009              	.Letext0:
 1010              	 .file 2 "d:\\programs\\infineon\\tools\\dave ide\\4.5.0.202105191637\\eclipse\\arm-gcc-49\\arm-none-eabi\\include\\machine\\_default_types.h"
 1011              	 .file 3 "d:\\programs\\infineon\\tools\\dave ide\\4.5.0.202105191637\\eclipse\\arm-gcc-49\\arm-none-eabi\\include\\stdint.h"
 1012              	 .file 4 "D:/Workspace/Development/my/DAVE/Infineon_CANopen/Libraries/CMSIS/Infineon/XMC4800_series/Include/XMC4800.h"
 1013              	 .file 5 "D:/Workspace/Development/my/DAVE/Infineon_CANopen/Libraries/XMCLib/inc/xmc4_scu.h"
 1014              	 .file 6 "D:/Workspace/Development/my/DAVE/Infineon_CANopen/Libraries/XMCLib/inc/xmc_dsd.h"
 1015              	 .file 7 "D:/Workspace/Development/my/DAVE/Infineon_CANopen/Libraries/CMSIS/Include/cmsis_gcc.h"
 1016              	 .file 8 "D:/Workspace/Development/my/DAVE/Infineon_CANopen/Libraries/CMSIS/Include/core_cm4.h"
 1017              	 .file 9 "D:/Workspace/Development/my/DAVE/Infineon_CANopen/Libraries/CMSIS/Infineon/XMC4800_series/Include/system_XMC4800.h"